MODULE Linux arm64 8ED854A9525600C9180668DF4D7E06090 johnny_cena.node_data_api.android64.so
INFO CODE_ID A954D88E5652C900180668DF4D7E0609F554C339
INFO GENERATOR mozilla/dump_syms 2.3.4
PUBLIC 71c60 0 __on_dlclose
PUBLIC 71c78 0 __on_dlclose_late
PUBLIC 71c80 0 __atexit_handler_wrapper
PUBLIC 71c94 0 atexit
PUBLIC 71cb0 0 pthread_atfork
FUNC 71cc0 27c 0 updateSavedLogLevels()
FUNC 71f3c d0 0 geode::Mod::setSavedValue<bool>(std::__ndk1::basic_string_view<char, std::__ndk1::char_traits<char> >, bool const&)
FUNC 7200c 184 0 geode::Mod::getSettingValue<std::__ndk1::basic_string<char, std::__ndk1::char_traits<char>, std::__ndk1::allocator<char> > >(std::__ndk1::basic_string_view<char, std::__ndk1::char_traits<char> >) const
FUNC 72190 60 0 __cxx_global_var_init.6
FUNC 721f0 1c 0 geode::modifier::ModifyBase<geode::modifier::ModifyDerive<MyMenuLayer, MenuLayer> >::~ModifyBase()
FUNC 7220c 14 0 std::__ndk1::basic_string<char, std::__ndk1::char_traits<char>, std::__ndk1::allocator<char> >::__throw_length_error[abi:ne190000]() const
FUNC 72220 50 0 std::__ndk1::__throw_length_error[abi:ne190000](char const*)
FUNC 72270 30 0 std::length_error::length_error[abi:ne190000](char const*)
FUNC 722a0 34 0 std::__throw_bad_array_new_length([abi:ne190000], void)
PUBLIC 722d4 0 __clang_call_terminate
FUNC 722e4 50 0 std::__ndk1::shared_ptr<geode::SettingV3>::~shared_ptr[abi:ne190000]()
FUNC 72334 50 0 std::__ndk1::shared_ptr<geode::StringSettingV3>::~shared_ptr[abi:ne190000]()
FUNC 72384 e4 0 geode::cast::traverseTypeinfoFor(void*, geode::cast::ClassTypeinfoType const*, char const*)
FUNC 72468 7c 0 std::__ndk1::basic_string<char, std::__ndk1::char_traits<char>, std::__ndk1::allocator<char> >::__init_copy_ctor_external(char const*, unsigned long)
FUNC 724e4 168 0 geode::Mod::getSavedValue<bool>(std::__ndk1::basic_string_view<char, std::__ndk1::char_traits<char> >)
FUNC 7264c 74 0 geode::impl::ResultData<matjson::Value&, std::__ndk1::basic_string<char, std::__ndk1::char_traits<char>, std::__ndk1::allocator<char> > >::~ResultData()
FUNC 726c0 34 0 std::__ndk1::__throw_bad_variant_access[abi:ne190000]()
FUNC 726f4 128 0 std::__ndk1::basic_stringstream<char, std::__ndk1::char_traits<char>, std::__ndk1::allocator<char> >::basic_stringstream[abi:ne190000]()
FUNC 7281c 88 0 std::__ndk1::basic_stringstream<char, std::__ndk1::char_traits<char>, std::__ndk1::allocator<char> >::~basic_stringstream()
FUNC 728a4 28 0 geode::UnwrapException::~UnwrapException()
FUNC 728cc 19c 0 std::__ndk1::__put_character_sequence[abi:ne190000]<char, std::__ndk1::char_traits<char> >(std::__ndk1::basic_ostream<char, std::__ndk1::char_traits<char> >, std::__ndk1::basic_ostream const*, unsigned long)
FUNC 72a68 1cc 0 std::__ndk1::__pad_and_output[abi:ne190000]<char, std::__ndk1::char_traits<char> >(std::__ndk1::char_traits<char>, std::__ndk1::ostreambuf_iterator const*, std::__ndk1::ostreambuf_iterator const, std::__ndk1::ostreambuf_iterator const, std::__ndk1::ios_base&, std::__ndk1::ostreambuf_iterator)
FUNC 72c34 164 0 std::__ndk1::basic_stringbuf<char, std::__ndk1::char_traits<char>, std::__ndk1::allocator<char> >::str[abi:ne190000]() &&
FUNC 72d98 14c 0 std::__ndk1::basic_stringbuf<char, std::__ndk1::char_traits<char>, std::__ndk1::allocator<char> >::__init_buf_ptrs[abi:ne190000]()
FUNC 72ee4 88 0 std::__ndk1::basic_string<char, std::__ndk1::char_traits<char>, std::__ndk1::allocator<char> >::__erase_external_with_move(unsigned long, unsigned long)
FUNC 72f6c 50 0 std::__ndk1::__throw_out_of_range[abi:ne190000](char const*)
FUNC 72fbc 30 0 std::out_of_range::out_of_range[abi:ne190000](char const*)
FUNC 72fec 4 0 std::__ndk1::__variant_detail::__visitation::__base::__dispatcher<(unsigned long)0>::__dispatch[abi:ne190000]<std::__ndk1::__variant_detail::__dtor<std::__ndk1::__variant_detail::__traits<std::__ndk1::reference_wrapper<matjson::Value>, std::__ndk1::basic_string<char, std::__ndk1::char_traits<char>, std::__ndk1::allocator<char> > >, (std::__ndk1::__variant_detail::_Trait)1>::__destroy[abi:ne190000]()::{lambda(auto:1&)#1}, std::__ndk1::__variant_detail::__base<(std::__ndk1::__variant_detail::__traits<std::__ndk1::reference_wrapper<matjson::Value>, std::__ndk1::basic_string<char, std::__ndk1::char_traits<char>, std::__ndk1::allocator<char> > >)1, matjson::Value, std::__ndk1::allocator<char> >&>(std::__ndk1::__variant_detail::__dtor<std::__ndk1::__variant_detail::__traits<std::__ndk1::reference_wrapper<matjson::Value>, std::__ndk1::basic_string<char, std::__ndk1::char_traits<char>, std::__ndk1::allocator<char> > >, (std::__ndk1::__variant_detail::_Trait)1>, std::__ndk1::__variant_detail::__base<(std::__ndk1::__variant_detail::__traits<std::__ndk1::reference_wrapper<matjson::Value>, std::__ndk1::basic_string<char, std::__ndk1::char_traits<char>, std::__ndk1::allocator<char> > >)1, matjson::Value, std::__ndk1::allocator<char> >&)
FUNC 72ff0 1c 0 std::__ndk1::__variant_detail::__visitation::__base::__dispatcher<(unsigned long)1>::__dispatch[abi:ne190000]<std::__ndk1::__variant_detail::__dtor<std::__ndk1::__variant_detail::__traits<std::__ndk1::reference_wrapper<matjson::Value>, std::__ndk1::basic_string<char, std::__ndk1::char_traits<char>, std::__ndk1::allocator<char> > >, (std::__ndk1::__variant_detail::_Trait)1>::__destroy[abi:ne190000]()::{lambda(auto:1&)#1}, std::__ndk1::__variant_detail::__base<(std::__ndk1::__variant_detail::__traits<std::__ndk1::reference_wrapper<matjson::Value>, std::__ndk1::basic_string<char, std::__ndk1::char_traits<char>, std::__ndk1::allocator<char> > >)1, matjson::Value, std::__ndk1::allocator<char> >&>(std::__ndk1::__variant_detail::__dtor<std::__ndk1::__variant_detail::__traits<std::__ndk1::reference_wrapper<matjson::Value>, std::__ndk1::basic_string<char, std::__ndk1::char_traits<char>, std::__ndk1::allocator<char> > >, (std::__ndk1::__variant_detail::_Trait)1>, std::__ndk1::__variant_detail::__base<(std::__ndk1::__variant_detail::__traits<std::__ndk1::reference_wrapper<matjson::Value>, std::__ndk1::basic_string<char, std::__ndk1::char_traits<char>, std::__ndk1::allocator<char> > >)1, matjson::Value, std::__ndk1::allocator<char> >&)
FUNC 7300c 4 0 std::__ndk1::__variant_detail::__visitation::__base::__dispatcher<(unsigned long)0>::__dispatch[abi:ne190000]<std::__ndk1::__variant_detail::__dtor<std::__ndk1::__variant_detail::__traits<bool, std::__ndk1::basic_string<char, std::__ndk1::char_traits<char>, std::__ndk1::allocator<char> > >, (std::__ndk1::__variant_detail::_Trait)1>::__destroy[abi:ne190000]()::{lambda(auto:1&)#1}, std::__ndk1::__variant_detail::__base<(std::__ndk1::__variant_detail::__traits<bool, std::__ndk1::basic_string<char, std::__ndk1::char_traits<char>, std::__ndk1::allocator<char> > >)1, bool, std::__ndk1::allocator<char> >&>(std::__ndk1::__variant_detail::__dtor<std::__ndk1::__variant_detail::__traits<bool, std::__ndk1::basic_string<char, std::__ndk1::char_traits<char>, std::__ndk1::allocator<char> > >, (std::__ndk1::__variant_detail::_Trait)1>, std::__ndk1::__variant_detail::__base<(std::__ndk1::__variant_detail::__traits<bool, std::__ndk1::basic_string<char, std::__ndk1::char_traits<char>, std::__ndk1::allocator<char> > >)1, bool, std::__ndk1::allocator<char> >&)
FUNC 73010 1c 0 std::__ndk1::__variant_detail::__visitation::__base::__dispatcher<(unsigned long)1>::__dispatch[abi:ne190000]<std::__ndk1::__variant_detail::__dtor<std::__ndk1::__variant_detail::__traits<bool, std::__ndk1::basic_string<char, std::__ndk1::char_traits<char>, std::__ndk1::allocator<char> > >, (std::__ndk1::__variant_detail::_Trait)1>::__destroy[abi:ne190000]()::{lambda(auto:1&)#1}, std::__ndk1::__variant_detail::__base<(std::__ndk1::__variant_detail::__traits<bool, std::__ndk1::basic_string<char, std::__ndk1::char_traits<char>, std::__ndk1::allocator<char> > >)1, bool, std::__ndk1::allocator<char> >&>(std::__ndk1::__variant_detail::__dtor<std::__ndk1::__variant_detail::__traits<bool, std::__ndk1::basic_string<char, std::__ndk1::char_traits<char>, std::__ndk1::allocator<char> > >, (std::__ndk1::__variant_detail::_Trait)1>, std::__ndk1::__variant_detail::__base<(std::__ndk1::__variant_detail::__traits<bool, std::__ndk1::basic_string<char, std::__ndk1::char_traits<char>, std::__ndk1::allocator<char> > >)1, bool, std::__ndk1::allocator<char> >&)
FUNC 7302c 4 0 std::__ndk1::__function::__base<void (std::__ndk1::shared_ptr<geode::SettingV3>)>::~__base()
FUNC 73030 8 0 std::__ndk1::__function::__func<geodeExecFunction22<(anonymous namespace)::ExecFuncUnique22>()::{lambda(std::__ndk1::shared_ptr<geode::SettingV3>)#1}, std::__ndk1::allocator<geodeExecFunction22<(anonymous namespace)::ExecFuncUnique22>()::{lambda(std::__ndk1::shared_ptr<geode::SettingV3>)#1}>, void (std::__ndk1::shared_ptr<geode::SettingV3>)>::~__func()
FUNC 73038 24 0 std::__ndk1::__function::__func<geodeExecFunction22<(anonymous namespace)::ExecFuncUnique22>()::{lambda(std::__ndk1::shared_ptr<geode::SettingV3>)#1}, std::__ndk1::allocator<geodeExecFunction22<(anonymous namespace)::ExecFuncUnique22>()::{lambda(std::__ndk1::shared_ptr<geode::SettingV3>)#1}>, void (std::__ndk1::shared_ptr<geode::SettingV3>)>::__clone() const
FUNC 7305c 10 0 std::__ndk1::__function::__func<geodeExecFunction22<(anonymous namespace)::ExecFuncUnique22>()::{lambda(std::__ndk1::shared_ptr<geode::SettingV3>)#1}, std::__ndk1::allocator<geodeExecFunction22<(anonymous namespace)::ExecFuncUnique22>()::{lambda(std::__ndk1::shared_ptr<geode::SettingV3>)#1}>, void (std::__ndk1::shared_ptr<geode::SettingV3>)>::__clone(std::__ndk1::__function::__base<void (std::__ndk1::shared_ptr<geode::SettingV3>)>*) const
FUNC 7306c 4 0 std::__ndk1::__function::__func<geodeExecFunction22<(anonymous namespace)::ExecFuncUnique22>()::{lambda(std::__ndk1::shared_ptr<geode::SettingV3>)#1}, std::__ndk1::allocator<geodeExecFunction22<(anonymous namespace)::ExecFuncUnique22>()::{lambda(std::__ndk1::shared_ptr<geode::SettingV3>)#1}>, void (std::__ndk1::shared_ptr<geode::SettingV3>)>::destroy()
FUNC 73070 8 0 std::__ndk1::__function::__func<geodeExecFunction22<(anonymous namespace)::ExecFuncUnique22>()::{lambda(std::__ndk1::shared_ptr<geode::SettingV3>)#1}, std::__ndk1::allocator<geodeExecFunction22<(anonymous namespace)::ExecFuncUnique22>()::{lambda(std::__ndk1::shared_ptr<geode::SettingV3>)#1}>, void (std::__ndk1::shared_ptr<geode::SettingV3>)>::destroy_deallocate()
FUNC 73078 bc 0 std::__ndk1::__function::__func<geodeExecFunction22<(anonymous namespace)::ExecFuncUnique22>()::{lambda(std::__ndk1::shared_ptr<geode::SettingV3>)#1}, std::__ndk1::allocator<geodeExecFunction22<(anonymous namespace)::ExecFuncUnique22>()::{lambda(std::__ndk1::shared_ptr<geode::SettingV3>)#1}>, void (std::__ndk1::shared_ptr<geode::SettingV3>)>::operator()(std::__ndk1::shared_ptr<geode::SettingV3>&&)
FUNC 73134 1c 0 std::__ndk1::__function::__func<geodeExecFunction22<(anonymous namespace)::ExecFuncUnique22>()::{lambda(std::__ndk1::shared_ptr<geode::SettingV3>)#1}, std::__ndk1::allocator<geodeExecFunction22<(anonymous namespace)::ExecFuncUnique22>()::{lambda(std::__ndk1::shared_ptr<geode::SettingV3>)#1}>, void (std::__ndk1::shared_ptr<geode::SettingV3>)>::target(std::type_info const&) const
FUNC 73150 c 0 std::__ndk1::__function::__func<geodeExecFunction22<(anonymous namespace)::ExecFuncUnique22>()::{lambda(std::__ndk1::shared_ptr<geode::SettingV3>)#1}, std::__ndk1::allocator<geodeExecFunction22<(anonymous namespace)::ExecFuncUnique22>()::{lambda(std::__ndk1::shared_ptr<geode::SettingV3>)#1}>, void (std::__ndk1::shared_ptr<geode::SettingV3>)>::target_type() const
FUNC 7315c 3c0 0 geode::modifier::ModifyBase<geode::modifier::ModifyDerive<MyMenuLayer, MenuLayer> >::ModifyBase()
FUNC 7351c 2c8 0 geode::modifier::ModifyDerive<MyMenuLayer, MenuLayer>::apply()
FUNC 737e4 50 0 std::__ndk1::shared_ptr<geode::Hook>::~shared_ptr[abi:ne190000]()
FUNC 73834 74 0 geode::impl::ResultData<geode::Hook*, std::__ndk1::basic_string<char, std::__ndk1::char_traits<char>, std::__ndk1::allocator<char> > >::~ResultData()
FUNC 738a8 8c 0 std::__ndk1::vector<std::__ndk1::basic_string<char, std::__ndk1::char_traits<char>, std::__ndk1::allocator<char> >, std::__ndk1::allocator<std::__ndk1::basic_string<char, std::__ndk1::char_traits<char>, std::__ndk1::allocator<char> > > >::~vector[abi:ne190000]()
FUNC 73934 4 0 geode::modifier::ModifyBase<geode::modifier::ModifyDerive<MyMenuLayer, MenuLayer> >::apply()
FUNC 73938 16c 0 _ZN5geode15UnwrapExceptionC2IRPNS_4HookEQsr4implE18IsStringStreamableIT_EEENS_4impl5OkTagEOS5_
FUNC 73aa4 1b8 0 std::__ndk1::vector<std::__ndk1::basic_string<char, std::__ndk1::char_traits<char>, std::__ndk1::allocator<char> >, std::__ndk1::allocator<std::__ndk1::basic_string<char, std::__ndk1::char_traits<char>, std::__ndk1::allocator<char> > > >::__push_back_slow_path<std::__ndk1::basic_string<char, std::__ndk1::char_traits<char>, std::__ndk1::allocator<char> > const&>(std::__ndk1::basic_string<char, std::__ndk1::char_traits<char>, std::__ndk1::allocator<char> > const&)
FUNC 73c5c 78 0 std::__ndk1::__split_buffer<std::__ndk1::basic_string<char, std::__ndk1::char_traits<char>, std::__ndk1::allocator<char> >, std::__ndk1::allocator<std::__ndk1::basic_string<char, std::__ndk1::char_traits<char>, std::__ndk1::allocator<char> > >&>::~__split_buffer()
FUNC 73cd4 14 0 std::__ndk1::vector<std::__ndk1::basic_string<char, std::__ndk1::char_traits<char>, std::__ndk1::allocator<char> >, std::__ndk1::allocator<std::__ndk1::basic_string<char, std::__ndk1::char_traits<char>, std::__ndk1::allocator<char> > > >::__throw_length_error[abi:ne190000]() const
FUNC 73ce8 4 0 std::__ndk1::__variant_detail::__visitation::__base::__dispatcher<(unsigned long)0>::__dispatch[abi:ne190000]<std::__ndk1::__variant_detail::__dtor<std::__ndk1::__variant_detail::__traits<geode::Hook*, std::__ndk1::basic_string<char, std::__ndk1::char_traits<char>, std::__ndk1::allocator<char> > >, (std::__ndk1::__variant_detail::_Trait)1>::__destroy[abi:ne190000]()::{lambda(auto:1&)#1}, std::__ndk1::__variant_detail::__base<(std::__ndk1::__variant_detail::__traits<geode::Hook*, std::__ndk1::basic_string<char, std::__ndk1::char_traits<char>, std::__ndk1::allocator<char> > >)1, geode::Hook, std::__ndk1::allocator<char> >&>(std::__ndk1::__variant_detail::__dtor<std::__ndk1::__variant_detail::__traits<geode::Hook*, std::__ndk1::basic_string<char, std::__ndk1::char_traits<char>, std::__ndk1::allocator<char> > >, (std::__ndk1::__variant_detail::_Trait)1>, std::__ndk1::__variant_detail::__base<(std::__ndk1::__variant_detail::__traits<geode::Hook*, std::__ndk1::basic_string<char, std::__ndk1::char_traits<char>, std::__ndk1::allocator<char> > >)1, geode::Hook, std::__ndk1::allocator<char> >&)
FUNC 73cec 1c 0 std::__ndk1::__variant_detail::__visitation::__base::__dispatcher<(unsigned long)1>::__dispatch[abi:ne190000]<std::__ndk1::__variant_detail::__dtor<std::__ndk1::__variant_detail::__traits<geode::Hook*, std::__ndk1::basic_string<char, std::__ndk1::char_traits<char>, std::__ndk1::allocator<char> > >, (std::__ndk1::__variant_detail::_Trait)1>::__destroy[abi:ne190000]()::{lambda(auto:1&)#1}, std::__ndk1::__variant_detail::__base<(std::__ndk1::__variant_detail::__traits<geode::Hook*, std::__ndk1::basic_string<char, std::__ndk1::char_traits<char>, std::__ndk1::allocator<char> > >)1, geode::Hook, std::__ndk1::allocator<char> >&>(std::__ndk1::__variant_detail::__dtor<std::__ndk1::__variant_detail::__traits<geode::Hook*, std::__ndk1::basic_string<char, std::__ndk1::char_traits<char>, std::__ndk1::allocator<char> > >, (std::__ndk1::__variant_detail::_Trait)1>, std::__ndk1::__variant_detail::__base<(std::__ndk1::__variant_detail::__traits<geode::Hook*, std::__ndk1::basic_string<char, std::__ndk1::char_traits<char>, std::__ndk1::allocator<char> > >)1, geode::Hook, std::__ndk1::allocator<char> >&)
FUNC 73d08 104 0 std::__ndk1::__tree<std::__ndk1::__value_type<std::__ndk1::basic_string<char, std::__ndk1::char_traits<char>, std::__ndk1::allocator<char> >, std::__ndk1::shared_ptr<geode::Hook> >, std::__ndk1::__map_value_compare<std::__ndk1::basic_string<char, std::__ndk1::char_traits<char>, std::__ndk1::allocator<char> >, std::__ndk1::__value_type<std::__ndk1::basic_string<char, std::__ndk1::char_traits<char>, std::__ndk1::allocator<char> >, std::__ndk1::shared_ptr<geode::Hook> >, std::__ndk1::less<std::__ndk1::basic_string<char, std::__ndk1::char_traits<char>, std::__ndk1::allocator<char> > >, true>, std::__ndk1::allocator<std::__ndk1::__value_type<std::__ndk1::basic_string<char, std::__ndk1::char_traits<char>, std::__ndk1::allocator<char> >, std::__ndk1::shared_ptr<geode::Hook> > > >::find<std::__ndk1::basic_string<char, std::__ndk1::char_traits<char>, std::__ndk1::allocator<char> > >(std::__ndk1::basic_string<char, std::__ndk1::char_traits<char>, std::__ndk1::allocator<char> > const&)
FUNC 73e0c e0 0 std::__ndk1::__tree<std::__ndk1::__value_type<std::__ndk1::basic_string<char, std::__ndk1::char_traits<char>, std::__ndk1::allocator<char> >, std::__ndk1::shared_ptr<geode::Hook> >, std::__ndk1::__map_value_compare<std::__ndk1::basic_string<char, std::__ndk1::char_traits<char>, std::__ndk1::allocator<char> >, std::__ndk1::__value_type<std::__ndk1::basic_string<char, std::__ndk1::char_traits<char>, std::__ndk1::allocator<char> >, std::__ndk1::shared_ptr<geode::Hook> >, std::__ndk1::less<std::__ndk1::basic_string<char, std::__ndk1::char_traits<char>, std::__ndk1::allocator<char> > >, true>, std::__ndk1::allocator<std::__ndk1::__value_type<std::__ndk1::basic_string<char, std::__ndk1::char_traits<char>, std::__ndk1::allocator<char> >, std::__ndk1::shared_ptr<geode::Hook> > > >::erase(std::__ndk1::__tree_const_iterator<std::__ndk1::__value_type<std::__ndk1::basic_string<char, std::__ndk1::char_traits<char>, std::__ndk1::allocator<char> >, std::__ndk1::shared_ptr<geode::Hook> >, std::__ndk1::__tree_node<std::__ndk1::__value_type<std::__ndk1::basic_string<char, std::__ndk1::char_traits<char>, std::__ndk1::allocator<char> >, std::__ndk1::shared_ptr<geode::Hook> >, void*>*, long>)
FUNC 73eec 390 0 std::__ndk1::__tree_remove[abi:ne190000]<std::__ndk1::__tree_node_base<void*>*>(std::__ndk1::__tree_node_base<void*>*, std::__ndk1::__tree_node_base<void*>*)
FUNC 7427c 98 0 std::__ndk1::__tree<std::__ndk1::__value_type<std::__ndk1::basic_string<char, std::__ndk1::char_traits<char>, std::__ndk1::allocator<char> >, std::__ndk1::shared_ptr<geode::Hook> >, std::__ndk1::__map_value_compare<std::__ndk1::basic_string<char, std::__ndk1::char_traits<char>, std::__ndk1::allocator<char> >, std::__ndk1::__value_type<std::__ndk1::basic_string<char, std::__ndk1::char_traits<char>, std::__ndk1::allocator<char> >, std::__ndk1::shared_ptr<geode::Hook> >, std::__ndk1::less<std::__ndk1::basic_string<char, std::__ndk1::char_traits<char>, std::__ndk1::allocator<char> > >, true>, std::__ndk1::allocator<std::__ndk1::__value_type<std::__ndk1::basic_string<char, std::__ndk1::char_traits<char>, std::__ndk1::allocator<char> >, std::__ndk1::shared_ptr<geode::Hook> > > >::destroy(std::__ndk1::__tree_node<std::__ndk1::__value_type<std::__ndk1::basic_string<char, std::__ndk1::char_traits<char>, std::__ndk1::allocator<char> >, std::__ndk1::shared_ptr<geode::Hook> >, void*>*)
FUNC 74314 6c 0 geode::addresser::getVirtual<bool (MenuLayer::*)()>(bool (MenuLayer::*)())
FUNC 74380 13c 0 geode::Hook::create<bool (*)(MyMenuLayer*)>(void*, bool (*)(MyMenuLayer*), std::__ndk1::basic_string<char, std::__ndk1::char_traits<char>, std::__ndk1::allocator<char> > const&, tulip::hook::TulipConvention, tulip::hook::HookMetadata const&)
FUNC 744bc 4 0 geode::modifier::AsStaticFunction_init<MyMenuLayer, bool (MyMenuLayer::*)()>::Impl<bool (MyMenuLayer::*)()>::function(MyMenuLayer*)
FUNC 744c0 90 0 _ZN5geode9addresser9Addresser14cachedInstanceI9MenuLayerEEPT_vQ18HasZeroConstructorIS4_E
FUNC 74550 9c 0 MenuLayer::MenuLayer(geode::ZeroConstructorType)
FUNC 745ec 50 0 std::__ndk1::shared_ptr<tulip::hook::CallingConvention>::~shared_ptr[abi:ne190000]()
FUNC 7463c 6c 0 tulip::hook::HandlerMetadata::~HandlerMetadata()
FUNC 746a8 274 0 MyMenuLayer::init()
FUNC 7491c 100 0 MyMenuLayer::cloneTitle(float)
FUNC 74a1c 34 0 MyMenuLayer::onTestException(cocos2d::CCObject*)
FUNC 74a50 498 0 NodeDataAPI::createNodeWithData<CCMenuItemSpriteExtra*>(NodeDataAPI::NodeData<CCMenuItemSpriteExtra*>*, bool)
FUNC 74ee8 498 0 NodeDataAPI::createNodeWithData<cocos2d::CCSprite*>(NodeDataAPI::NodeData<cocos2d::CCSprite*>*, bool)
FUNC 75380 800 0 NodeDataAPI::getNodeData<cocos2d::CCSprite*>(cocos2d::CCSprite*, bool)
FUNC 75b80 20 0 geode::cocos::CCArrayExt<cocos2d::CCNode*, cocos2d::CCNode>::~CCArrayExt()
FUNC 75ba0 c4 0 NodeDataAPI::AxisLayoutData::~AxisLayoutData()
FUNC 75c64 28 0 NodeDataAPI::AxisLayoutData::~AxisLayoutData()
FUNC 75c8c b4 0 NodeDataAPI::LayoutData::~LayoutData()
FUNC 75d40 28 0 NodeDataAPI::LayoutData::~LayoutData()
FUNC 75d68 118 0 geode::Mod::getSettingValue<bool>(std::__ndk1::basic_string_view<char, std::__ndk1::char_traits<char> >) const
FUNC 75e80 c4 0 NodeDataAPI::AxisLayoutOptionsData::~AxisLayoutOptionsData()
FUNC 75f44 28 0 NodeDataAPI::AxisLayoutOptionsData::~AxisLayoutOptionsData()
FUNC 75f6c b4 0 NodeDataAPI::LayoutOptionsData::~LayoutOptionsData()
FUNC 76020 28 0 NodeDataAPI::LayoutOptionsData::~LayoutOptionsData()
FUNC 76048 ac 0 std::__ndk1::basic_string<char, std::__ndk1::char_traits<char>, std::__ndk1::allocator<char> >::__assign_no_alias<true>(char const*, unsigned long)
FUNC 760f4 118 0 std::__ndk1::basic_string<char, std::__ndk1::char_traits<char>, std::__ndk1::allocator<char> >::__assign_no_alias<false>(char const*, unsigned long)
FUNC 7620c 128 0 NodeDataAPI::getUniqueNodeData<CCTextInputNode*>(CCTextInputNode*)
FUNC 76334 10c 0 NodeDataAPI::MissingImplementationException::MissingImplementationException(std::__ndk1::basic_string<char, std::__ndk1::char_traits<char>, std::__ndk1::allocator<char> >)
FUNC 76440 48 0 NodeDataAPI::MissingImplementationException::~MissingImplementationException()
FUNC 76488 50 0 NodeDataAPI::MissingImplementationException::~MissingImplementationException()
FUNC 764d8 ac 0 NodeDataAPI::MissingImplementationException::what() const
FUNC 76584 c4 0 NodeDataAPI::NodeData<cocos2d::CCSprite*>::~NodeData()
FUNC 76648 28 0 NodeDataAPI::NodeData<cocos2d::CCSprite*>::~NodeData()
FUNC 76670 118 0 NodeDataAPI::NodeData<cocos2d::CCNode*>::~NodeData()
FUNC 76788 28 0 NodeDataAPI::NodeData<cocos2d::CCNode*>::~NodeData()
FUNC 767b0 dc 0 NodeDataAPI::UniqueNodeData<cocos2d::CCSprite*>::~UniqueNodeData()
FUNC 7688c 28 0 NodeDataAPI::UniqueNodeData<cocos2d::CCSprite*>::~UniqueNodeData()
FUNC 768b4 b4 0 NodeDataAPI::UniqueNodeData<cocos2d::CCNode*>::~UniqueNodeData()
FUNC 76968 28 0 NodeDataAPI::UniqueNodeData<cocos2d::CCNode*>::~UniqueNodeData()
FUNC 76990 13c 0 std::__ndk1::basic_string<char, std::__ndk1::char_traits<char>, std::__ndk1::allocator<char> >::__assign_external(char const*, unsigned long)
FUNC 76acc 34 0 std::__ndk1::basic_string<char, std::__ndk1::char_traits<char>, std::__ndk1::allocator<char> >::__assign_external(char const*)
FUNC 76b00 17c 0 geode::modifier::FieldIntermediate<MyMenuLayer, MenuLayer>::self()
FUNC 76c7c 218 0 geode::modifier::FieldContainer::getField(unsigned long)
FUNC 76e94 110 0 geode::modifier::FieldContainer::setField(unsigned long, unsigned long, std::__ndk1::function<void (void*)>)
FUNC 76fa4 4 0 geode::modifier::FieldIntermediate<MyMenuLayer, MenuLayer>::fieldDestructor(void*)
FUNC 76fa8 14 0 std::__ndk1::vector<void*, std::__ndk1::allocator<void*> >::__throw_length_error[abi:ne190000]() const
FUNC 76fbc 204 0 std::__ndk1::vector<std::__ndk1::function<void (void*)>, std::__ndk1::allocator<std::__ndk1::function<void (void*)> > >::__push_back_slow_path<std::__ndk1::function<void (void*)> >(std::__ndk1::function<void (void*)>&&)
FUNC 771c0 14 0 std::__ndk1::vector<std::__ndk1::function<void (void*)>, std::__ndk1::allocator<std::__ndk1::function<void (void*)> > >::__throw_length_error[abi:ne190000]() const
FUNC 771d4 14 0 std::__ndk1::vector<void*, std::__ndk1::allocator<void*> >::__throw_out_of_range[abi:ne190000]() const
FUNC 771e8 14 0 std::__ndk1::vector<std::__ndk1::function<void (void*)>, std::__ndk1::allocator<std::__ndk1::function<void (void*)> > >::__throw_out_of_range[abi:ne190000]() const
FUNC 771fc 4 0 std::__ndk1::__function::__base<void (void*)>::~__base()
FUNC 77200 8 0 std::__ndk1::__function::__func<void (*)(void*), std::__ndk1::allocator<void (*)(void*)>, void (void*)>::~__func()
FUNC 77208 38 0 std::__ndk1::__function::__func<void (*)(void*), std::__ndk1::allocator<void (*)(void*)>, void (void*)>::__clone() const
FUNC 77240 18 0 std::__ndk1::__function::__func<void (*)(void*), std::__ndk1::allocator<void (*)(void*)>, void (void*)>::__clone(std::__ndk1::__function::__base<void (void*)>*) const
FUNC 77258 4 0 std::__ndk1::__function::__func<void (*)(void*), std::__ndk1::allocator<void (*)(void*)>, void (void*)>::destroy()
FUNC 7725c 8 0 std::__ndk1::__function::__func<void (*)(void*), std::__ndk1::allocator<void (*)(void*)>, void (void*)>::destroy_deallocate()
FUNC 77264 10 0 std::__ndk1::__function::__func<void (*)(void*), std::__ndk1::allocator<void (*)(void*)>, void (void*)>::operator()(void*&&)
FUNC 77274 1c 0 std::__ndk1::__function::__func<void (*)(void*), std::__ndk1::allocator<void (*)(void*)>, void (void*)>::target(std::type_info const&) const
FUNC 77290 c 0 std::__ndk1::__function::__func<void (*)(void*), std::__ndk1::allocator<void (*)(void*)>, void (void*)>::target_type() const
FUNC 7729c c4 0 NodeDataAPI::AnchorLayoutOptionsData::~AnchorLayoutOptionsData()
FUNC 77360 28 0 NodeDataAPI::AnchorLayoutOptionsData::~AnchorLayoutOptionsData()
FUNC 77388 14 0 std::__ndk1::vector<NodeDataAPI::NodeData<cocos2d::CCNode*>*, std::__ndk1::allocator<NodeDataAPI::NodeData<cocos2d::CCNode*>*> >::__throw_length_error[abi:ne190000]() const
FUNC 7739c c4 0 NodeDataAPI::AnchorLayoutData::~AnchorLayoutData()
FUNC 77460 28 0 NodeDataAPI::AnchorLayoutData::~AnchorLayoutData()
FUNC 77488 c4 0 NodeDataAPI::NodeData<CCMenuItemSpriteExtra*>::~NodeData()
FUNC 7754c 28 0 NodeDataAPI::NodeData<CCMenuItemSpriteExtra*>::~NodeData()
FUNC 77574 104 0 std::__ndk1::__tree<std::__ndk1::__value_type<std::__ndk1::basic_string<char, std::__ndk1::char_traits<char>, std::__ndk1::allocator<char> >, std::__ndk1::shared_ptr<geode::Hook> >, std::__ndk1::__map_value_compare<std::__ndk1::basic_string<char, std::__ndk1::char_traits<char>, std::__ndk1::allocator<char> >, std::__ndk1::__value_type<std::__ndk1::basic_string<char, std::__ndk1::char_traits<char>, std::__ndk1::allocator<char> >, std::__ndk1::shared_ptr<geode::Hook> >, std::__ndk1::less<std::__ndk1::basic_string<char, std::__ndk1::char_traits<char>, std::__ndk1::allocator<char> > >, true>, std::__ndk1::allocator<std::__ndk1::__value_type<std::__ndk1::basic_string<char, std::__ndk1::char_traits<char>, std::__ndk1::allocator<char> >, std::__ndk1::shared_ptr<geode::Hook> > > >::__find_equal<std::__ndk1::basic_string<char, std::__ndk1::char_traits<char>, std::__ndk1::allocator<char> > >(std::__ndk1::__tree_end_node<std::__ndk1::__tree_node_base<void*>*>*&, std::__ndk1::basic_string<char, std::__ndk1::char_traits<char>, std::__ndk1::allocator<char> > const&)
FUNC 77678 19c 0 std::__ndk1::__tree_balance_after_insert[abi:ne190000]<std::__ndk1::__tree_node_base<void*>*>(std::__ndk1::__tree_node_base<void*>*, std::__ndk1::__tree_node_base<void*>*)
FUNC 77814 144 0 _GLOBAL__sub_I_main.cpp
FUNC 77958 9c 0 NodeDataAPI::utils::createNodeExt(NodeDataAPI::NodeData<cocos2d::CCNode*>*, bool)
FUNC 779f4 498 0 NodeDataAPI::createNodeWithData<cocos2d::CCNode*>(NodeDataAPI::NodeData<cocos2d::CCNode*>*, bool)
FUNC 77e8c a4 0 NodeDataAPI::utils::getDataExt(cocos2d::CCNode*, bool)
FUNC 77f30 800 0 NodeDataAPI::getNodeData<CCMenuItemSpriteExtra*>(CCMenuItemSpriteExtra*, bool)
FUNC 78730 804 0 NodeDataAPI::getNodeData<cocos2d::CCNode*>(cocos2d::CCNode*, bool)
FUNC 78f34 4 0 NodeDataAPI::createNodeWithUniqueData<cocos2d::CCNode*>(NodeDataAPI::UniqueNodeData<cocos2d::CCNode*>*)
FUNC 78f38 8 0 NodeDataAPI::getUniqueNodeData<cocos2d::CCNode*>(cocos2d::CCNode*)
FUNC 78f40 8c 0 NodeDataAPI::createNodeWithUniqueData<cocos2d::CCSprite*>(NodeDataAPI::UniqueNodeData<cocos2d::CCSprite*>*)
FUNC 78fcc 514 0 NodeDataAPI::getUniqueNodeData<cocos2d::CCSprite*>(cocos2d::CCSprite*)
FUNC 794e0 20 0 geode::cocos::CCDictionaryExt<std::__ndk1::basic_string<char, std::__ndk1::char_traits<char>, std::__ndk1::allocator<char> >, cocos2d::CCTexture2D*, cocos2d::CCTexture2D>::~CCDictionaryExt()
FUNC 79500 20 0 geode::cocos::CCDictionaryExt<std::__ndk1::basic_string<char, std::__ndk1::char_traits<char>, std::__ndk1::allocator<char> >, cocos2d::CCSpriteFrame*, cocos2d::CCSpriteFrame>::~CCDictionaryExt()
FUNC 79520 140 0 NodeDataAPI::createNodeWithUniqueData<CCMenuItemSpriteExtra*>(NodeDataAPI::UniqueNodeData<CCMenuItemSpriteExtra*>*)
FUNC 79660 15c 0 NodeDataAPI::getUniqueNodeData<CCMenuItemSpriteExtra*>(CCMenuItemSpriteExtra*)
FUNC 797bc c4 0 NodeDataAPI::UniqueNodeData<CCMenuItemSpriteExtra*>::~UniqueNodeData()
FUNC 79880 28 0 NodeDataAPI::UniqueNodeData<CCMenuItemSpriteExtra*>::~UniqueNodeData()
FUNC 798a8 90 0 NodeDataAPI::callbacks::CallbackObject::create(NodeDataAPI::callbacks::CallbackData)
FUNC 79938 110 0 NodeDataAPI::callbacks::CallbackHandler::onCallback(cocos2d::CCObject*)
FUNC 79a48 8 0 cocos2d::CCCopying::copyWithZone(cocos2d::CCZone*)
FUNC 79a50 c4 0 NodeDataAPI::callbacks::CallbackObject::~CallbackObject()
FUNC 79b14 28 0 NodeDataAPI::callbacks::CallbackObject::~CallbackObject()
FUNC 79b3c 4 0 cocos2d::CCObject::update(float)
FUNC 79b40 c4 0 NodeDataAPI::callbacks::CallbackHandler::~CallbackHandler()
FUNC 79c04 28 0 NodeDataAPI::callbacks::CallbackHandler::~CallbackHandler()
FUNC 79c2c 70 0 _GLOBAL__sub_I_callbacks.cpp
FUNC 79c9c 30 0 geode::getMod()
FUNC 79ccc 30 0 geodeImplicitEntry
PUBLIC 79cfc 0 _Unwind_RaiseException
PUBLIC 79df4 0 unwind_phase2
PUBLIC 79f28 0 _Unwind_Resume
PUBLIC 79fac 0 unwind_phase2_forced
PUBLIC 7a0a0 0 _Unwind_DeleteException
PUBLIC m 7a0bc 0 __unw_init_local
PUBLIC m 7a164 0 __unw_get_reg
PUBLIC m 7a1e0 0 __unw_step
PUBLIC 7a1f4 0 __unw_step_stage2
PUBLIC m 7a208 0 __unw_get_proc_info
PUBLIC m 7a248 0 __unw_resume
PUBLIC 7a270 0 libunwind::CFI_Parser<libunwind::LocalAddressSpace>::decodeFDE(libunwind::LocalAddressSpace&, unsigned long, libunwind::CFI_Parser<libunwind::LocalAddressSpace>::FDE_Info*, libunwind::CFI_Parser<libunwind::LocalAddressSpace>::CIE_Info*, bool)
PUBLIC 7a400 0 libunwind::CFI_Parser<libunwind::LocalAddressSpace>::parseCIE(libunwind::LocalAddressSpace&, unsigned long, libunwind::CFI_Parser<libunwind::LocalAddressSpace>::CIE_Info*)
PUBLIC 7a6c8 0 libunwind::AbstractUnwindCursor::~AbstractUnwindCursor()
PUBLIC 7a6d0 0 libunwind::UnwindCursor<libunwind::LocalAddressSpace, libunwind::Registers_arm64>::~UnwindCursor()
PUBLIC 7a6d8 0 libunwind::UnwindCursor<libunwind::LocalAddressSpace, libunwind::Registers_arm64>::validReg(int)
PUBLIC 7a71c 0 libunwind::UnwindCursor<libunwind::LocalAddressSpace, libunwind::Registers_arm64>::getReg(int)
PUBLIC 7a804 0 libunwind::UnwindCursor<libunwind::LocalAddressSpace, libunwind::Registers_arm64>::setReg(int, unsigned long)
PUBLIC 7a8ec 0 libunwind::UnwindCursor<libunwind::LocalAddressSpace, libunwind::Registers_arm64>::validFloatReg(int)
PUBLIC 7a900 0 libunwind::UnwindCursor<libunwind::LocalAddressSpace, libunwind::Registers_arm64>::getFloatReg(int)
PUBLIC 7a910 0 libunwind::UnwindCursor<libunwind::LocalAddressSpace, libunwind::Registers_arm64>::setFloatReg(int, double)
PUBLIC 7a920 0 libunwind::UnwindCursor<libunwind::LocalAddressSpace, libunwind::Registers_arm64>::step(bool)
PUBLIC 7aa10 0 libunwind::UnwindCursor<libunwind::LocalAddressSpace, libunwind::Registers_arm64>::getInfo(unw_proc_info_t*)
PUBLIC 7aa54 0 libunwind::UnwindCursor<libunwind::LocalAddressSpace, libunwind::Registers_arm64>::jumpto()
PUBLIC 7aa60 0 libunwind::UnwindCursor<libunwind::LocalAddressSpace, libunwind::Registers_arm64>::isSignalFrame()
PUBLIC 7aa6c 0 libunwind::UnwindCursor<libunwind::LocalAddressSpace, libunwind::Registers_arm64>::getFunctionName(char*, unsigned long, unsigned long*)
PUBLIC 7aa98 0 libunwind::UnwindCursor<libunwind::LocalAddressSpace, libunwind::Registers_arm64>::setInfoBasedOnIPRegister(bool)
PUBLIC 7acd4 0 libunwind::UnwindCursor<libunwind::LocalAddressSpace, libunwind::Registers_arm64>::getRegisterName(int)
PUBLIC 7ace0 0 libunwind::UnwindCursor<libunwind::LocalAddressSpace, libunwind::Registers_arm64>::stepThroughSigReturn(libunwind::Registers_arm64&)
PUBLIC 7ae00 0 libunwind::DwarfInstructions<libunwind::LocalAddressSpace, libunwind::Registers_arm64>::stepWithDwarf(libunwind::LocalAddressSpace&, unsigned long, unsigned long, libunwind::Registers_arm64&, bool&, bool)
PUBLIC 7b294 0 libunwind::CFI_Parser<libunwind::LocalAddressSpace>::parseFDEInstructions(libunwind::LocalAddressSpace&, libunwind::CFI_Parser<libunwind::LocalAddressSpace>::FDE_Info const&, libunwind::CFI_Parser<libunwind::LocalAddressSpace>::CIE_Info const&, unsigned long, int, libunwind::CFI_Parser<libunwind::LocalAddressSpace>::PrologInfo*)
PUBLIC 7be0c 0 libunwind::DwarfInstructions<libunwind::LocalAddressSpace, libunwind::Registers_arm64>::getCFA(libunwind::LocalAddressSpace&, libunwind::CFI_Parser<libunwind::LocalAddressSpace>::PrologInfo const&, libunwind::Registers_arm64 const&)
PUBLIC 7bf40 0 libunwind::DwarfInstructions<libunwind::LocalAddressSpace, libunwind::Registers_arm64>::getSavedRegister(libunwind::LocalAddressSpace&, libunwind::Registers_arm64 const&, unsigned long, libunwind::CFI_Parser<libunwind::LocalAddressSpace>::RegisterLocation const&)
PUBLIC 7c150 0 libunwind::LocalAddressSpace::getEncodedP(unsigned long&, unsigned long, unsigned char, unsigned long)
PUBLIC 7c4dc 0 libunwind::LocalAddressSpace::getULEB128(unsigned long&, unsigned long)
PUBLIC 7c6a4 0 libunwind::DwarfInstructions<libunwind::LocalAddressSpace, libunwind::Registers_arm64>::evaluateExpression(unsigned long, libunwind::LocalAddressSpace&, libunwind::Registers_arm64 const&, unsigned long)
PUBLIC 7d068 0 libunwind::UnwindCursor<libunwind::LocalAddressSpace, libunwind::Registers_arm64>::getInfoFromDwarfSection(unsigned long, libunwind::UnwindInfoSections const&, unsigned int)
PUBLIC 7d33c 0 libunwind::findUnwindSectionsByPhdr(dl_phdr_info*, unsigned long, void*)
PUBLIC 7d46c 0 libunwind::EHHeaderParser<libunwind::LocalAddressSpace>::decodeEHHdr(libunwind::LocalAddressSpace&, unsigned long, unsigned long, libunwind::EHHeaderParser<libunwind::LocalAddressSpace>::EHHeaderInfo&)
PUBLIC 7d58c 0 libunwind::CFI_Parser<libunwind::LocalAddressSpace>::findFDE(libunwind::LocalAddressSpace&, unsigned long, unsigned long, unsigned long, unsigned long, libunwind::CFI_Parser<libunwind::LocalAddressSpace>::FDE_Info*, libunwind::CFI_Parser<libunwind::LocalAddressSpace>::CIE_Info*)
PUBLIC 7d754 0 libunwind::EHHeaderParser<libunwind::LocalAddressSpace>::findFDE(libunwind::LocalAddressSpace&, unsigned long, unsigned long, unsigned int, libunwind::CFI_Parser<libunwind::LocalAddressSpace>::FDE_Info*, libunwind::CFI_Parser<libunwind::LocalAddressSpace>::CIE_Info*)
PUBLIC 7d8bc 0 libunwind::EHHeaderParser<libunwind::LocalAddressSpace>::getTableEntrySize(unsigned char)
PUBLIC 7d9b8 0 libunwind::Registers_arm64::getRegisterName(int)
PUBLIC 7d9e8 0 __libunwind_Registers_arm64_jumpto
PUBLIC m 7da78 0 __unw_getcontext
FUNC 7db14 58 0 std::__ndk1::unordered_map<void*, bool, std::__ndk1::hash<void*>, std::__ndk1::equal_to<void*>, std::__ndk1::allocator<std::__ndk1::pair<void* const, bool> > >::~unordered_map[abi:ne190000]()
FUNC 7db6c 134 0 wrapFunction(unsigned long, tulip::hook::WrapperMetadata const&)
FUNC 7dca0 78 0 geode::impl::ResultData<void*, std::__ndk1::basic_string<char, std::__ndk1::char_traits<char>, std::__ndk1::allocator<char> > >::unwrapErr() &
FUNC 7dd18 74 0 geode::impl::ResultData<void*, std::__ndk1::basic_string<char, std::__ndk1::char_traits<char>, std::__ndk1::allocator<char> > >::~ResultData()
FUNC 7dd8c 6c 0 tulip::hook::WrapperMetadata::~WrapperMetadata()
FUNC 7ddf8 224 0 cocos2d::CCObject::CCObject()
FUNC 7e01c 28 0 cocos2d::CCObject::~CCObject()
FUNC 7e044 14 0 CCMenuItemSpriteExtra::create(cocos2d::CCNode*, cocos2d::CCObject*, void (cocos2d::CCObject::*)(cocos2d::CCObject*))
FUNC 7e058 14 0 CCTextInputNode::create(float, float, char const*, char const*)
FUNC 7e06c 2e8 0 cocos2d::CCObject::~CCObject()
FUNC 7e354 16c 0 _ZN5geode15UnwrapExceptionC2IRPvQsr4implE18IsStringStreamableIT_EEENS_4impl5OkTagEOS4_
FUNC 7e4c0 180 0 _ZN5geode15UnwrapExceptionC2IRNSt6__ndk112basic_stringIcNS2_11char_traitsIcEENS2_9allocatorIcEEEEQsr4implE18IsStringStreamableIT_EEENS_4impl6ErrTagEOSA_
FUNC 7e640 4 0 std::__ndk1::__variant_detail::__visitation::__base::__dispatcher<(unsigned long)0>::__dispatch[abi:ne190000]<std::__ndk1::__variant_detail::__dtor<std::__ndk1::__variant_detail::__traits<void*, std::__ndk1::basic_string<char, std::__ndk1::char_traits<char>, std::__ndk1::allocator<char> > >, (std::__ndk1::__variant_detail::_Trait)1>::__destroy[abi:ne190000]()::{lambda(auto:1&)#1}, std::__ndk1::__variant_detail::__base<(std::__ndk1::__variant_detail::__traits<void*, std::__ndk1::basic_string<char, std::__ndk1::char_traits<char>, std::__ndk1::allocator<char> > >)1, std::__ndk1::__variant_detail::__traits, std::__ndk1::allocator<char> >&>(std::__ndk1::__variant_detail::__dtor<std::__ndk1::__variant_detail::__traits<void*, std::__ndk1::basic_string<char, std::__ndk1::char_traits<char>, std::__ndk1::allocator<char> > >, (std::__ndk1::__variant_detail::_Trait)1>, std::__ndk1::__variant_detail::__base<(std::__ndk1::__variant_detail::__traits<void*, std::__ndk1::basic_string<char, std::__ndk1::char_traits<char>, std::__ndk1::allocator<char> > >)1, std::__ndk1::__variant_detail::__traits, std::__ndk1::allocator<char> >&)
FUNC 7e644 1c 0 std::__ndk1::__variant_detail::__visitation::__base::__dispatcher<(unsigned long)1>::__dispatch[abi:ne190000]<std::__ndk1::__variant_detail::__dtor<std::__ndk1::__variant_detail::__traits<void*, std::__ndk1::basic_string<char, std::__ndk1::char_traits<char>, std::__ndk1::allocator<char> > >, (std::__ndk1::__variant_detail::_Trait)1>::__destroy[abi:ne190000]()::{lambda(auto:1&)#1}, std::__ndk1::__variant_detail::__base<(std::__ndk1::__variant_detail::__traits<void*, std::__ndk1::basic_string<char, std::__ndk1::char_traits<char>, std::__ndk1::allocator<char> > >)1, std::__ndk1::__variant_detail::__traits, std::__ndk1::allocator<char> >&>(std::__ndk1::__variant_detail::__dtor<std::__ndk1::__variant_detail::__traits<void*, std::__ndk1::basic_string<char, std::__ndk1::char_traits<char>, std::__ndk1::allocator<char> > >, (std::__ndk1::__variant_detail::_Trait)1>, std::__ndk1::__variant_detail::__base<(std::__ndk1::__variant_detail::__traits<void*, std::__ndk1::basic_string<char, std::__ndk1::char_traits<char>, std::__ndk1::allocator<char> > >)1, std::__ndk1::__variant_detail::__traits, std::__ndk1::allocator<char> >&)
FUNC 7e660 304 0 std::__ndk1::__hash_table<std::__ndk1::__hash_value_type<void*, bool>, std::__ndk1::__unordered_map_hasher<void*, std::__ndk1::__hash_value_type<void*, bool>, std::__ndk1::hash<void*>, std::__ndk1::equal_to<void*>, true>, std::__ndk1::__unordered_map_equal<void*, std::__ndk1::__hash_value_type<void*, bool>, std::__ndk1::equal_to<void*>, std::__ndk1::hash<void*>, true>, std::__ndk1::allocator<std::__ndk1::__hash_value_type<void*, bool> > >::__emplace_unique_key_args<void*, std::__ndk1::piecewise_construct_t const&, std::__ndk1::tuple<void* const&>, std::__ndk1::tuple<> >(void* const&, std::__ndk1::piecewise_construct_t const&, std::__ndk1::tuple<void* const&>, std::__ndk1::tuple<>)
FUNC 7e964 170 0 std::__ndk1::__hash_table<std::__ndk1::__hash_value_type<void*, bool>, std::__ndk1::__unordered_map_hasher<void*, std::__ndk1::__hash_value_type<void*, bool>, std::__ndk1::hash<void*>, std::__ndk1::equal_to<void*>, true>, std::__ndk1::__unordered_map_equal<void*, std::__ndk1::__hash_value_type<void*, bool>, std::__ndk1::equal_to<void*>, std::__ndk1::hash<void*>, true>, std::__ndk1::allocator<std::__ndk1::__hash_value_type<void*, bool> > >::__do_rehash<true>(unsigned long)
FUNC 7ead4 148 0 std::__ndk1::__hash_table<std::__ndk1::__hash_value_type<void*, bool>, std::__ndk1::__unordered_map_hasher<void*, std::__ndk1::__hash_value_type<void*, bool>, std::__ndk1::hash<void*>, std::__ndk1::equal_to<void*>, true>, std::__ndk1::__unordered_map_equal<void*, std::__ndk1::__hash_value_type<void*, bool>, std::__ndk1::equal_to<void*>, std::__ndk1::hash<void*>, true>, std::__ndk1::allocator<std::__ndk1::__hash_value_type<void*, bool> > >::__erase_unique<void*>(void* const&)
FUNC 7ec1c 134 0 std::__ndk1::__hash_table<std::__ndk1::__hash_value_type<void*, bool>, std::__ndk1::__unordered_map_hasher<void*, std::__ndk1::__hash_value_type<void*, bool>, std::__ndk1::hash<void*>, std::__ndk1::equal_to<void*>, true>, std::__ndk1::__unordered_map_equal<void*, std::__ndk1::__hash_value_type<void*, bool>, std::__ndk1::equal_to<void*>, std::__ndk1::hash<void*>, true>, std::__ndk1::allocator<std::__ndk1::__hash_value_type<void*, bool> > >::remove(std::__ndk1::__hash_const_iterator<std::__ndk1::__hash_node<std::__ndk1::__hash_value_type<void*, bool>, void*>*>)
FUNC 7ed50 1a4 0 fmt::v11::detail::write_loc(fmt::v11::basic_appender<char>, fmt::v11::loc_value, fmt::v11::format_specs const&, fmt::v11::detail::locale_ref)
FUNC 7eef4 19c 0 fmt::v11::format_facet<std::__ndk1::locale>::format_facet(std::__ndk1::locale&)
FUNC 7f090 88 0 fmt::v11::format_facet<std::__ndk1::locale>::~format_facet()
FUNC 7f118 50 0 fmt::v11::report_error(char const*)
FUNC 7f168 2c 0 fmt::v11::format_error::runtime_error(char const*)
FUNC 7f194 1b8 0 fmt::v11::format_facet<std::__ndk1::locale>::do_put(fmt::v11::basic_appender<char>, fmt::v11::loc_value, fmt::v11::format_specs const&) const
FUNC 7f34c 9c 0 fmt::v11::loc_value::visit<fmt::v11::detail::loc_writer<char> >(fmt::v11::detail::loc_writer<char>&&)
FUNC 7f3e8 7c 0 fmt::v11::detail::loc_writer<char>::~loc_writer()
FUNC 7f464 134 0 fmt::v11::vformat(fmt::v11::basic_string_view<char>, fmt::v11::basic_format_args<fmt::v11::context>)
FUNC 7f598 204 0 fmt::v11::detail::vformat_to(fmt::v11::detail::buffer<char>&, fmt::v11::basic_string_view<char>, fmt::v11::basic_format_args<fmt::v11::context>, fmt::v11::detail::locale_ref)
FUNC 7f79c 958 0 fmt::v11::detail::parse_format_string<char, fmt::v11::detail::format_handler<char> >(fmt::v11::basic_string_view<char>, fmt::v11::detail::format_handler<char>&&)
FUNC 800f4 218 0 fmt::v11::detail::is_printable(unsigned int)
FUNC 8030c 2b4 0 fmt::v11::detail::dragonbox::to_decimal<float>(float)
FUNC 805c0 530 0 fmt::v11::detail::dragonbox::to_decimal<double>(double)
FUNC 80af0 120 0 fmt::v11::detail::thousands_sep_impl<char>(fmt::v11::detail::locale_ref)
FUNC 80c10 a4 0 fmt::v11::basic_memory_buffer<char, (unsigned long)500, fmt::v11::detail::allocator<char> >::grow(fmt::v11::detail::buffer<char>&, unsigned long)
FUNC 80cb4 94 0 fmt::v11::format_facet<std::__ndk1::locale>::~format_facet()
FUNC 80d48 28 0 fmt::v11::format_error::~format_error()
FUNC 80d70 150 0 fmt::v11::detail::copy_noinline<char, char const*, fmt::v11::basic_appender<char> >(char const*, char const*, fmt::v11::basic_appender<char>)
FUNC 80ec0 74 0 _ZN3fmt3v116detail21default_arg_formatterIcEclIcTnNSt6__ndk19enable_ifIXsr10is_builtinIT_EE5valueEiE4typeELi0EEEvS7_
FUNC 80f34 e8 0 _ZN3fmt3v116detail21default_arg_formatterIcEclIfTnNSt6__ndk19enable_ifIXsr10is_builtinIT_EE5valueEiE4typeELi0EEEvS7_
FUNC 8101c e4 0 _ZN3fmt3v116detail21default_arg_formatterIcEclIdTnNSt6__ndk19enable_ifIXsr10is_builtinIT_EE5valueEiE4typeELi0EEEvS7_
FUNC 81100 48 0 _ZN3fmt3v116detail21default_arg_formatterIcEclIPKcTnNSt6__ndk19enable_ifIXsr10is_builtinIT_EE5valueEiE4typeELi0EEEvS9_
FUNC 81148 98 0 _ZN3fmt3v116detail21default_arg_formatterIcEclIPKvTnNSt6__ndk19enable_ifIXsr10is_builtinIT_EE5valueEiE4typeELi0EEEvS9_
FUNC 811e0 194 0 _ZN3fmt3v116detail5writeIcNS0_14basic_appenderIcEEiTnNSt6__ndk19enable_ifIXaaaasr11is_integralIT1_EE5valuentsr3std7is_sameIS7_bEE5valuentsr3std7is_sameIS7_T_EE5valueEiE4typeELi0EEET0_SB_S7_
FUNC 81374 1cc 0 _ZN3fmt3v116detail14format_decimalIcjNS0_14basic_appenderIcEETnNSt6__ndk19enable_ifIXntsr3std10is_pointerINS5_9remove_cvINS5_16remove_referenceIT1_E4typeEE4typeEEE5valueEiE4typeELi0EEES9_S9_T0_i
FUNC 81540 150 0 fmt::v11::detail::copy_noinline<char, char*, fmt::v11::basic_appender<char> >(char*, char*, fmt::v11::basic_appender<char>)
FUNC 81690 118 0 _ZN3fmt3v116detail5writeIcNS0_14basic_appenderIcEEjTnNSt6__ndk19enable_ifIXaaaasr11is_integralIT1_EE5valuentsr3std7is_sameIS7_bEE5valuentsr3std7is_sameIS7_T_EE5valueEiE4typeELi0EEET0_SB_S7_
FUNC 817a8 190 0 _ZN3fmt3v116detail5writeIcNS0_14basic_appenderIcEExTnNSt6__ndk19enable_ifIXaaaasr11is_integralIT1_EE5valuentsr3std7is_sameIS7_bEE5valuentsr3std7is_sameIS7_T_EE5valueEiE4typeELi0EEET0_SB_S7_
FUNC 81938 1e4 0 _ZN3fmt3v116detail14format_decimalIcmNS0_14basic_appenderIcEETnNSt6__ndk19enable_ifIXntsr3std10is_pointerINS5_9remove_cvINS5_16remove_referenceIT1_E4typeEE4typeEEE5valueEiE4typeELi0EEES9_S9_T0_i
FUNC 81b1c 130 0 _ZN3fmt3v116detail5writeIcNS0_14basic_appenderIcEEyTnNSt6__ndk19enable_ifIXaaaasr11is_integralIT1_EE5valuentsr3std7is_sameIS7_bEE5valuentsr3std7is_sameIS7_T_EE5valueEiE4typeELi0EEET0_SB_S7_
FUNC 81c4c 254 0 _ZN3fmt3v116detail5writeIcNS0_14basic_appenderIcEEnTnNSt6__ndk19enable_ifIXaaaasr11is_integralIT1_EE5valuentsr3std7is_sameIS7_bEE5valuentsr3std7is_sameIS7_T_EE5valueEiE4typeELi0EEET0_SB_S7_
FUNC 81ea0 214 0 _ZN3fmt3v116detail14format_decimalIcoNS0_14basic_appenderIcEETnNSt6__ndk19enable_ifIXntsr3std10is_pointerINS5_9remove_cvINS5_16remove_referenceIT1_E4typeEE4typeEEE5valueEiE4typeELi0EEES9_S9_T0_i
FUNC 820b4 1e4 0 _ZN3fmt3v116detail5writeIcNS0_14basic_appenderIcEEoTnNSt6__ndk19enable_ifIXaaaasr11is_integralIT1_EE5valuentsr3std7is_sameIS7_bEE5valuentsr3std7is_sameIS7_T_EE5valueEiE4typeELi0EEET0_SB_S7_
FUNC 82298 f4 0 _ZN3fmt3v116detail5writeIcNS0_14basic_appenderIcEEbTnNSt6__ndk19enable_ifIXsr3std7is_sameIT1_bEE5valueEiE4typeELi0EEET0_SA_S7_RKNS0_12format_specsENS1_10locale_refE
FUNC 8238c 48c 0 fmt::v11::detail::write_int_noinline<char, fmt::v11::basic_appender<char>, unsigned int>(fmt::v11::basic_appender<char>, fmt::v11::detail::write_int_arg<unsigned int>, fmt::v11::format_specs const&)
FUNC 82818 104 0 fmt::v11::detail::write_padded<char, (fmt::v11::align)1, fmt::v11::basic_appender<char>, fmt::v11::detail::write_char<char, fmt::v11::basic_appender<char> >(fmt::v11::basic_appender<char>, char, fmt::v11::format_specs const&)::{lambda(fmt::v11::basic_appender<char>&)#1}>(fmt::v11::basic_appender<char>, fmt::v11::format_specs const&, unsigned long, unsigned long, fmt::v11::detail::write_char<char, fmt::v11::basic_appender<char> >(fmt::v11::basic_appender<char>, char, fmt::v11::format_specs const&)::{lambda(fmt::v11::basic_appender<char>&)#1})
FUNC 8291c 1d8 0 fmt::v11::detail::fill<char, fmt::v11::basic_appender<char> >(fmt::v11::basic_appender<char>, unsigned long, fmt::v11::basic_specs const&)
FUNC 82af4 168 0 fmt::v11::detail::write_escaped_char<char, fmt::v11::basic_appender<char> >(fmt::v11::basic_appender<char>, char)
FUNC 82c5c 1e4 0 fmt::v11::detail::write_escaped_cp<fmt::v11::basic_appender<char>, char>(fmt::v11::basic_appender<char>, fmt::v11::detail::find_escape_result<char> const&)
FUNC 82e40 178 0 fmt::v11::detail::write_codepoint<(unsigned long)2, char, fmt::v11::basic_appender<char> >(fmt::v11::basic_appender<char>, char, unsigned int)
FUNC 82fb8 178 0 fmt::v11::detail::write_codepoint<(unsigned long)4, char, fmt::v11::basic_appender<char> >(fmt::v11::basic_appender<char>, char, unsigned int)
FUNC 83130 178 0 fmt::v11::detail::write_codepoint<(unsigned long)8, char, fmt::v11::basic_appender<char> >(fmt::v11::basic_appender<char>, char, unsigned int)
FUNC 832a8 28c 0 fmt::v11::detail::write_padded<char, (fmt::v11::align)2, fmt::v11::basic_appender<char>, fmt::v11::detail::write_int<char, fmt::v11::basic_appender<char>, unsigned int>(fmt::v11::basic_appender<char>, fmt::v11::detail::write_int_arg<unsigned int>, fmt::v11::format_specs const&)::{lambda(fmt::v11::basic_appender<char>&)#1}>(fmt::v11::basic_appender<char>, fmt::v11::format_specs const&, unsigned long, unsigned long, fmt::v11::detail::write_int<char, fmt::v11::basic_appender<char>, unsigned int>(fmt::v11::basic_appender<char>, fmt::v11::detail::write_int_arg<unsigned int>, fmt::v11::format_specs const&)::{lambda(fmt::v11::basic_appender<char>&)#1})
FUNC 83534 1f4 0 fmt::v11::detail::write_padded<char, (fmt::v11::align)1, fmt::v11::basic_appender<char>, fmt::v11::detail::write_bytes<char, (fmt::v11::align)1, fmt::v11::basic_appender<char> >(fmt::v11::basic_appender<char>, fmt::v11::basic_string_view<char>, fmt::v11::format_specs const&)::{lambda(fmt::v11::basic_appender<char>&)#1}>(fmt::v11::basic_appender<char>, fmt::v11::format_specs const&, unsigned long, unsigned long, fmt::v11::detail::write_bytes<char, (fmt::v11::align)1, fmt::v11::basic_appender<char> >(fmt::v11::basic_appender<char>, fmt::v11::basic_string_view<char>, fmt::v11::format_specs const&)::{lambda(fmt::v11::basic_appender<char>&)#1})
FUNC 83728 254 0 fmt::v11::detail::write_padded<char, (fmt::v11::align)1, fmt::v11::basic_appender<char>, fmt::v11::detail::write_nonfinite<char, fmt::v11::basic_appender<char> >(fmt::v11::basic_appender<char>, bool, fmt::v11::format_specs, fmt::v11::sign)::{lambda(fmt::v11::basic_appender<char>&)#1}>(fmt::v11::basic_appender<char>, fmt::v11::format_specs const&, unsigned long, unsigned long, fmt::v11::detail::write_nonfinite<char, fmt::v11::basic_appender<char> >(fmt::v11::basic_appender<char>, bool, fmt::v11::format_specs, fmt::v11::sign)::{lambda(fmt::v11::basic_appender<char>&)#1})
FUNC 8397c 684 0 fmt::v11::detail::do_write_float<char, fmt::v11::basic_appender<char>, fmt::v11::detail::dragonbox::decimal_fp<float>, fmt::v11::detail::digit_grouping<char> >(fmt::v11::basic_appender<char>, fmt::v11::detail::dragonbox::decimal_fp<float> const&, fmt::v11::format_specs const&, fmt::v11::sign, int, fmt::v11::detail::locale_ref)
FUNC 84000 154 0 fmt::v11::detail::do_write_float<char, fmt::v11::basic_appender<char>, fmt::v11::detail::dragonbox::decimal_fp<float>, fmt::v11::detail::digit_grouping<char> >(fmt::v11::basic_appender<char>, fmt::v11::detail::dragonbox::decimal_fp<float> const&, fmt::v11::format_specs const&, fmt::v11::sign, int, fmt::v11::detail::locale_ref)::{lambda(fmt::v11::basic_appender<char>(fmt::v11::basic_appender<char>))#1}::operator() const
FUNC 84154 1c8 0 _ZN3fmt3v116detail14digit_groupingIcEC2INS1_10locale_refETnNSt6__ndk19enable_ifIXsr3std7is_sameIT_S5_EE5valueEiE4typeELi0EEES8_b
FUNC 8431c 54 0 fmt::v11::detail::digit_grouping<char>::~digit_grouping()
FUNC 84370 1a4 0 fmt::v11::detail::write_exponent<char, fmt::v11::basic_appender<char> >(int, fmt::v11::basic_appender<char>)
FUNC 84514 1a0 0 _ZN3fmt3v116detail17write_significandIcjTnNSt6__ndk19enable_ifIXsr3std11is_integralIT0_EE5valueEiE4typeELi0EEEPT_S9_S5_iiS8_
FUNC 846b4 134 0 fmt::v11::detail::do_write_float<char, fmt::v11::basic_appender<char>, fmt::v11::detail::dragonbox::decimal_fp<float>, fmt::v11::detail::digit_grouping<char> >(fmt::v11::basic_appender<char>, fmt::v11::detail::dragonbox::decimal_fp<float> const&, fmt::v11::format_specs const&, fmt::v11::sign, int, fmt::v11::detail::locale_ref)::{lambda(fmt::v11::basic_appender<char>(fmt::v11::basic_appender<char>))#2}::operator() const
FUNC 847e8 1a8 0 fmt::v11::detail::write_significand<char, fmt::v11::basic_appender<char>, unsigned int, fmt::v11::detail::digit_grouping<char> >(fmt::v11::basic_appender<char>, unsigned int, int, int, fmt::v11::detail::digit_grouping<char> const&)
FUNC 84990 39c 0 fmt::v11::detail::digit_grouping<char>::apply<fmt::v11::basic_appender<char>, char>(fmt::v11::basic_appender<char>, fmt::v11::basic_string_view<char>) const
FUNC 84d2c c0 0 fmt::v11::basic_memory_buffer<int, (unsigned long)500, fmt::v11::detail::allocator<int> >::grow(fmt::v11::detail::buffer<int>&, unsigned long)
FUNC 84dec 190 0 fmt::v11::detail::write_padded<char, (fmt::v11::align)2, fmt::v11::basic_appender<char>, fmt::v11::detail::do_write_float<char, fmt::v11::basic_appender<char>, fmt::v11::detail::dragonbox::decimal_fp<float>, fmt::v11::detail::digit_grouping<char> >(fmt::v11::basic_appender<char>, fmt::v11::detail::dragonbox::decimal_fp<float> const&, fmt::v11::format_specs const&, fmt::v11::sign, int, fmt::v11::detail::locale_ref)::{lambda(fmt::v11::basic_appender<char>&)#3}>(fmt::v11::basic_appender<char>, fmt::v11::format_specs const&, unsigned long, unsigned long, fmt::v11::detail::do_write_float<char, fmt::v11::basic_appender<char>, fmt::v11::detail::dragonbox::decimal_fp<float>, fmt::v11::detail::digit_grouping<char> >(fmt::v11::basic_appender<char>, fmt::v11::detail::dragonbox::decimal_fp<float> const&, fmt::v11::format_specs const&, fmt::v11::sign, int, fmt::v11::detail::locale_ref)::{lambda(fmt::v11::basic_appender<char>&)#3})
FUNC 84f7c 148 0 fmt::v11::detail::write_significand<fmt::v11::basic_appender<char>, char, unsigned int, fmt::v11::detail::digit_grouping<char> >(fmt::v11::basic_appender<char>, unsigned int, int, int, char, fmt::v11::detail::digit_grouping<char> const&)
FUNC 850c4 178 0 fmt::v11::detail::do_write_float<char, fmt::v11::basic_appender<char>, fmt::v11::detail::dragonbox::decimal_fp<float>, fmt::v11::detail::digit_grouping<char> >(fmt::v11::basic_appender<char>, fmt::v11::detail::dragonbox::decimal_fp<float> const&, fmt::v11::format_specs const&, fmt::v11::sign, int, fmt::v11::detail::locale_ref)::{lambda(fmt::v11::basic_appender<char>(fmt::v11::basic_appender<char>))#4}::operator() const
FUNC 8523c 6a0 0 fmt::v11::detail::do_write_float<char, fmt::v11::basic_appender<char>, fmt::v11::detail::dragonbox::decimal_fp<double>, fmt::v11::detail::digit_grouping<char> >(fmt::v11::basic_appender<char>, fmt::v11::detail::dragonbox::decimal_fp<double> const&, fmt::v11::format_specs const&, fmt::v11::sign, int, fmt::v11::detail::locale_ref)
FUNC 858dc 158 0 fmt::v11::detail::do_write_float<char, fmt::v11::basic_appender<char>, fmt::v11::detail::dragonbox::decimal_fp<double>, fmt::v11::detail::digit_grouping<char> >(fmt::v11::basic_appender<char>, fmt::v11::detail::dragonbox::decimal_fp<double> const&, fmt::v11::format_specs const&, fmt::v11::sign, int, fmt::v11::detail::locale_ref)::{lambda(fmt::v11::basic_appender<char>(fmt::v11::basic_appender<char>))#1}::operator() const
FUNC 85a34 1b4 0 _ZN3fmt3v116detail17write_significandIcmTnNSt6__ndk19enable_ifIXsr3std11is_integralIT0_EE5valueEiE4typeELi0EEEPT_S9_S5_iiS8_
FUNC 85be8 134 0 fmt::v11::detail::do_write_float<char, fmt::v11::basic_appender<char>, fmt::v11::detail::dragonbox::decimal_fp<double>, fmt::v11::detail::digit_grouping<char> >(fmt::v11::basic_appender<char>, fmt::v11::detail::dragonbox::decimal_fp<double> const&, fmt::v11::format_specs const&, fmt::v11::sign, int, fmt::v11::detail::locale_ref)::{lambda(fmt::v11::basic_appender<char>(fmt::v11::basic_appender<char>))#2}::operator() const
FUNC 85d1c 1a8 0 fmt::v11::detail::write_significand<char, fmt::v11::basic_appender<char>, unsigned long, fmt::v11::detail::digit_grouping<char> >(fmt::v11::basic_appender<char>, unsigned long, int, int, fmt::v11::detail::digit_grouping<char> const&)
FUNC 85ec4 190 0 fmt::v11::detail::write_padded<char, (fmt::v11::align)2, fmt::v11::basic_appender<char>, fmt::v11::detail::do_write_float<char, fmt::v11::basic_appender<char>, fmt::v11::detail::dragonbox::decimal_fp<double>, fmt::v11::detail::digit_grouping<char> >(fmt::v11::basic_appender<char>, fmt::v11::detail::dragonbox::decimal_fp<double> const&, fmt::v11::format_specs const&, fmt::v11::sign, int, fmt::v11::detail::locale_ref)::{lambda(fmt::v11::basic_appender<char>&)#3}>(fmt::v11::basic_appender<char>, fmt::v11::format_specs const&, unsigned long, unsigned long, fmt::v11::detail::do_write_float<char, fmt::v11::basic_appender<char>, fmt::v11::detail::dragonbox::decimal_fp<double>, fmt::v11::detail::digit_grouping<char> >(fmt::v11::basic_appender<char>, fmt::v11::detail::dragonbox::decimal_fp<double> const&, fmt::v11::format_specs const&, fmt::v11::sign, int, fmt::v11::detail::locale_ref)::{lambda(fmt::v11::basic_appender<char>&)#3})
FUNC 86054 148 0 fmt::v11::detail::write_significand<fmt::v11::basic_appender<char>, char, unsigned long, fmt::v11::detail::digit_grouping<char> >(fmt::v11::basic_appender<char>, unsigned long, int, int, char, fmt::v11::detail::digit_grouping<char> const&)
FUNC 8619c 178 0 fmt::v11::detail::do_write_float<char, fmt::v11::basic_appender<char>, fmt::v11::detail::dragonbox::decimal_fp<double>, fmt::v11::detail::digit_grouping<char> >(fmt::v11::basic_appender<char>, fmt::v11::detail::dragonbox::decimal_fp<double> const&, fmt::v11::format_specs const&, fmt::v11::sign, int, fmt::v11::detail::locale_ref)::{lambda(fmt::v11::basic_appender<char>(fmt::v11::basic_appender<char>))#4}::operator() const
FUNC 86314 32c 0 fmt::v11::detail::write_float<char, fmt::v11::basic_appender<char>, long double>(fmt::v11::basic_appender<char>, long double, fmt::v11::format_specs, fmt::v11::detail::locale_ref)
FUNC 86640 4d8 0 _ZN3fmt3v116detail15format_hexfloatIeTnNSt6__ndk19enable_ifIXntsr16is_double_doubleIT_EE5valueEiE4typeELi0EEEvS5_NS0_12format_specsERNS1_6bufferIcEE
FUNC 86b18 2a8 0 fmt::v11::detail::format_float<long double>(long double, int, fmt::v11::format_specs const&, bool, fmt::v11::detail::buffer<char>&)
FUNC 86dc0 1f4 0 fmt::v11::detail::write_padded<char, (fmt::v11::align)2, fmt::v11::basic_appender<char>, fmt::v11::detail::write_bytes<char, (fmt::v11::align)2, fmt::v11::basic_appender<char> >(fmt::v11::basic_appender<char>, fmt::v11::basic_string_view<char>, fmt::v11::format_specs const&)::{lambda(fmt::v11::basic_appender<char>&)#1}>(fmt::v11::basic_appender<char>, fmt::v11::format_specs const&, unsigned long, unsigned long, fmt::v11::detail::write_bytes<char, (fmt::v11::align)2, fmt::v11::basic_appender<char> >(fmt::v11::basic_appender<char>, fmt::v11::basic_string_view<char>, fmt::v11::format_specs const&)::{lambda(fmt::v11::basic_appender<char>&)#1})
FUNC 86fb4 1790 0 fmt::v11::detail::format_dragon(fmt::v11::detail::basic_fp<unsigned __int128>, unsigned int, int, fmt::v11::detail::buffer<char>&, int&)
FUNC 88744 254 0 fmt::v11::detail::bigint::assign_pow10(int)
FUNC 88998 120 0 fmt::v11::detail::add_compare(fmt::v11::detail::bigint const&, fmt::v11::detail::bigint const&, fmt::v11::detail::bigint const&)
FUNC 88ab8 300 0 fmt::v11::detail::bigint::divmod_assign(fmt::v11::detail::bigint const&)
FUNC 88db8 c0 0 fmt::v11::basic_memory_buffer<unsigned int, (unsigned long)32, fmt::v11::detail::allocator<unsigned int> >::grow(fmt::v11::detail::buffer<unsigned int>&, unsigned long)
FUNC 88e78 4cc 0 fmt::v11::detail::bigint::square()
FUNC 89344 674 0 fmt::v11::detail::do_write_float<char, fmt::v11::basic_appender<char>, fmt::v11::detail::big_decimal_fp, fmt::v11::detail::digit_grouping<char> >(fmt::v11::basic_appender<char>, fmt::v11::detail::big_decimal_fp const&, fmt::v11::format_specs const&, fmt::v11::sign, int, fmt::v11::detail::locale_ref)
FUNC 899b8 168 0 fmt::v11::detail::do_write_float<char, fmt::v11::basic_appender<char>, fmt::v11::detail::big_decimal_fp, fmt::v11::detail::digit_grouping<char> >(fmt::v11::basic_appender<char>, fmt::v11::detail::big_decimal_fp const&, fmt::v11::format_specs const&, fmt::v11::sign, int, fmt::v11::detail::locale_ref)::{lambda(fmt::v11::basic_appender<char>(fmt::v11::basic_appender<char>))#1}::operator() const
FUNC 89b20 134 0 fmt::v11::detail::do_write_float<char, fmt::v11::basic_appender<char>, fmt::v11::detail::big_decimal_fp, fmt::v11::detail::digit_grouping<char> >(fmt::v11::basic_appender<char>, fmt::v11::detail::big_decimal_fp const&, fmt::v11::format_specs const&, fmt::v11::sign, int, fmt::v11::detail::locale_ref)::{lambda(fmt::v11::basic_appender<char>(fmt::v11::basic_appender<char>))#2}::operator() const
FUNC 89c54 3e8 0 fmt::v11::detail::write_significand<char, fmt::v11::basic_appender<char>, char const*, fmt::v11::detail::digit_grouping<char> >(fmt::v11::basic_appender<char>, char const*, int, int, fmt::v11::detail::digit_grouping<char> const&)
FUNC 8a03c 190 0 fmt::v11::detail::write_padded<char, (fmt::v11::align)2, fmt::v11::basic_appender<char>, fmt::v11::detail::do_write_float<char, fmt::v11::basic_appender<char>, fmt::v11::detail::big_decimal_fp, fmt::v11::detail::digit_grouping<char> >(fmt::v11::basic_appender<char>, fmt::v11::detail::big_decimal_fp const&, fmt::v11::format_specs const&, fmt::v11::sign, int, fmt::v11::detail::locale_ref)::{lambda(fmt::v11::basic_appender<char>&)#3}>(fmt::v11::basic_appender<char>, fmt::v11::format_specs const&, unsigned long, unsigned long, fmt::v11::detail::do_write_float<char, fmt::v11::basic_appender<char>, fmt::v11::detail::big_decimal_fp, fmt::v11::detail::digit_grouping<char> >(fmt::v11::basic_appender<char>, fmt::v11::detail::big_decimal_fp const&, fmt::v11::format_specs const&, fmt::v11::sign, int, fmt::v11::detail::locale_ref)::{lambda(fmt::v11::basic_appender<char>&)#3})
FUNC 8a1cc 214 0 fmt::v11::detail::write_significand<fmt::v11::basic_appender<char>, char, char const*, fmt::v11::detail::digit_grouping<char> >(fmt::v11::basic_appender<char>, char const*, int, int, char, fmt::v11::detail::digit_grouping<char> const&)
FUNC 8a3e0 284 0 fmt::v11::detail::do_write_float<char, fmt::v11::basic_appender<char>, fmt::v11::detail::big_decimal_fp, fmt::v11::detail::digit_grouping<char> >(fmt::v11::basic_appender<char>, fmt::v11::detail::big_decimal_fp const&, fmt::v11::format_specs const&, fmt::v11::sign, int, fmt::v11::detail::locale_ref)::{lambda(fmt::v11::basic_appender<char>(fmt::v11::basic_appender<char>))#4}::operator() const
FUNC 8a664 210 0 fmt::v11::detail::write_padded<char, (fmt::v11::align)2, fmt::v11::basic_appender<char>, fmt::v11::detail::write_ptr<char, fmt::v11::basic_appender<char>, unsigned long>(fmt::v11::basic_appender<char>, unsigned long, fmt::v11::format_specs const*)::{lambda(fmt::v11::basic_appender<char>&)#1}>(fmt::v11::basic_appender<char>, fmt::v11::format_specs const&, unsigned long, unsigned long, fmt::v11::detail::write_ptr<char, fmt::v11::basic_appender<char>, unsigned long>(fmt::v11::basic_appender<char>, unsigned long, fmt::v11::format_specs const*)::{lambda(fmt::v11::basic_appender<char>&)#1})
FUNC 8a874 210 0 fmt::v11::detail::parse_arg_id<char, fmt::v11::detail::parse_replacement_field<char, fmt::v11::detail::format_handler<char>&>(char const*, char const*, fmt::v11::detail::format_handler<char>&)::id_adapter&>(char const*, char const*, fmt::v11::detail::parse_replacement_field<char, fmt::v11::detail::format_handler<char>&>(char const*, char const*, fmt::v11::detail::format_handler<char>&)::id_adapter&)
FUNC 8aa84 5c0 0 fmt::v11::detail::format_handler<char>::on_format_specs(int, char const*, char const*)
FUNC 8b044 4b0 0 fmt::v11::detail::parse_format_specs<char>(char const*, char const*, fmt::v11::detail::dynamic_format_specs<char>&, fmt::v11::parse_context<char>&, fmt::v11::detail::type)
FUNC 8b4f4 1b0 0 fmt::v11::detail::parse_dynamic_spec<char>(char const*, char const*, int&, fmt::v11::detail::arg_ref<char>&, fmt::v11::parse_context<char>&)
FUNC 8b6a4 184 0 fmt::v11::detail::parse_arg_id<char, fmt::v11::detail::dynamic_spec_handler<char> >(char const*, char const*, fmt::v11::detail::dynamic_spec_handler<char>&&)
FUNC 8b828 180 0 fmt::v11::detail::get_dynamic_spec<fmt::v11::context>(fmt::v11::arg_id_kind, fmt::v11::detail::arg_ref<fmt::v11::context::char_type> const&, fmt::v11::context&)
FUNC 8b9a8 110 0 fmt::v11::basic_format_args<fmt::v11::context>::get<char>(fmt::v11::basic_string_view<char>) const
FUNC 8bab8 494 0 fmt::v11::detail::write_int_noinline<char, fmt::v11::basic_appender<char>, unsigned long>(fmt::v11::basic_appender<char>, fmt::v11::detail::write_int_arg<unsigned long>, fmt::v11::format_specs const&)
FUNC 8bf4c 28c 0 fmt::v11::detail::write_padded<char, (fmt::v11::align)2, fmt::v11::basic_appender<char>, fmt::v11::detail::write_int<char, fmt::v11::basic_appender<char>, unsigned long>(fmt::v11::basic_appender<char>, fmt::v11::detail::write_int_arg<unsigned long>, fmt::v11::format_specs const&)::{lambda(fmt::v11::basic_appender<char>&)#1}>(fmt::v11::basic_appender<char>, fmt::v11::format_specs const&, unsigned long, unsigned long, fmt::v11::detail::write_int<char, fmt::v11::basic_appender<char>, unsigned long>(fmt::v11::basic_appender<char>, fmt::v11::detail::write_int_arg<unsigned long>, fmt::v11::format_specs const&)::{lambda(fmt::v11::basic_appender<char>&)#1})
FUNC 8c1d8 4f4 0 fmt::v11::detail::write_int_noinline<char, fmt::v11::basic_appender<char>, unsigned __int128>(fmt::v11::basic_appender<char>, fmt::v11::detail::write_int_arg<unsigned __int128>, fmt::v11::format_specs const&)
FUNC 8c6cc 28c 0 fmt::v11::detail::write_padded<char, (fmt::v11::align)2, fmt::v11::basic_appender<char>, fmt::v11::detail::write_int<char, fmt::v11::basic_appender<char>, unsigned __int128>(fmt::v11::basic_appender<char>, fmt::v11::detail::write_int_arg<unsigned __int128>, fmt::v11::format_specs const&)::{lambda(fmt::v11::basic_appender<char>&)#1}>(fmt::v11::basic_appender<char>, fmt::v11::format_specs const&, unsigned long, unsigned long, fmt::v11::detail::write_int<char, fmt::v11::basic_appender<char>, unsigned __int128>(fmt::v11::basic_appender<char>, fmt::v11::detail::write_int_arg<unsigned __int128>, fmt::v11::format_specs const&)::{lambda(fmt::v11::basic_appender<char>&)#1})
FUNC 8c958 144 0 fmt::v11::detail::write<char, fmt::v11::basic_appender<char> >(fmt::v11::basic_appender<char>, char, fmt::v11::format_specs const&, fmt::v11::detail::locale_ref)
FUNC 8ca9c 348 0 fmt::v11::detail::write_float<char, fmt::v11::basic_appender<char>, float>(fmt::v11::basic_appender<char>, float, fmt::v11::format_specs, fmt::v11::detail::locale_ref)
FUNC 8cde4 490 0 _ZN3fmt3v116detail15format_hexfloatIdTnNSt6__ndk19enable_ifIXntsr16is_double_doubleIT_EE5valueEiE4typeELi0EEEvS5_NS0_12format_specsERNS1_6bufferIcEE
FUNC 8d274 82c 0 fmt::v11::detail::format_float<double>(double, int, fmt::v11::format_specs const&, bool, fmt::v11::detail::buffer<char>&)
FUNC 8daa0 344 0 fmt::v11::detail::write_float<char, fmt::v11::basic_appender<char>, double>(fmt::v11::basic_appender<char>, double, fmt::v11::format_specs, fmt::v11::detail::locale_ref)
FUNC 8dde4 2ac 0 fmt::v11::detail::write<char, fmt::v11::basic_appender<char> >(fmt::v11::basic_appender<char>, fmt::v11::basic_string_view<char>, fmt::v11::format_specs const&)
FUNC 8e090 384 0 fmt::v11::detail::write_escaped_string<char, fmt::v11::basic_appender<char> >(fmt::v11::basic_appender<char>, fmt::v11::basic_string_view<char>)
FUNC 8e414 214 0 fmt::v11::detail::write_padded<char, (fmt::v11::align)1, fmt::v11::basic_appender<char>, fmt::v11::detail::write<char, fmt::v11::basic_appender<char> >(fmt::v11::basic_appender<char>, fmt::v11::basic_string_view<char>, fmt::v11::format_specs const&)::{lambda(fmt::v11::basic_appender<char>)#1}>(fmt::v11::basic_appender<char>, fmt::v11::format_specs const&, unsigned long, unsigned long, fmt::v11::detail::write<char, fmt::v11::basic_appender<char> >(fmt::v11::basic_appender<char>, fmt::v11::basic_string_view<char>, fmt::v11::format_specs const&)::{lambda(fmt::v11::basic_appender<char>&&)#1})
FUNC 8e628 38c 0 fmt::v11::detail::for_each_codepoint<fmt::v11::detail::code_point_index(fmt::v11::basic_string_view<char>, unsigned long)::{lambda(unsigned int, fmt::v11::basic_string_view<char>)#1}>(fmt::v11::basic_string_view<char>, fmt::v11::detail::code_point_index(fmt::v11::basic_string_view<char>, unsigned long)::{lambda(unsigned int, fmt::v11::basic_string_view<char>)#1})
FUNC 8e9b4 20 0 fmt::v11::detail::counting_buffer<char>::grow(fmt::v11::detail::buffer<char>&, unsigned long)
FUNC 8e9d4 184 0 fmt::v11::detail::for_each_codepoint<fmt::v11::detail::find_escape(char const*, char const*)::{lambda(unsigned int, fmt::v11::basic_string_view<char>)#1}>(fmt::v11::basic_string_view<char>, fmt::v11::detail::find_escape(char const*, char const*)::{lambda(unsigned int, fmt::v11::basic_string_view<char>)#1})::{lambda(char const*, char const*)#1}::operator()(char const*, char const*) const
FUNC 8eb58 1b4 0 fmt::v11::detail::for_each_codepoint<fmt::v11::detail::compute_width(fmt::v11::basic_string_view<char>)::count_code_points>(fmt::v11::basic_string_view<char>, fmt::v11::detail::compute_width(fmt::v11::basic_string_view<char>)::count_code_points)::{lambda(char const*, char const*)#1}::operator()(char const*, char const*) const
FUNC 8ed0c 204 0 _ZN3fmt3v116detail10loc_writerIcEclIiTnNSt6__ndk19enable_ifIXsr10is_integerIT_EE5valueEiE4typeELi0EEEbS7_
FUNC 8ef10 1ec 0 _ZN3fmt3v116detail10loc_writerIcEclIjTnNSt6__ndk19enable_ifIXsr10is_integerIT_EE5valueEiE4typeELi0EEEbS7_
FUNC 8f0fc 204 0 _ZN3fmt3v116detail10loc_writerIcEclIxTnNSt6__ndk19enable_ifIXsr10is_integerIT_EE5valueEiE4typeELi0EEEbS7_
FUNC 8f300 1ec 0 _ZN3fmt3v116detail10loc_writerIcEclIyTnNSt6__ndk19enable_ifIXsr10is_integerIT_EE5valueEiE4typeELi0EEEbS7_
FUNC 8f4ec 218 0 _ZN3fmt3v116detail10loc_writerIcEclInTnNSt6__ndk19enable_ifIXsr10is_integerIT_EE5valueEiE4typeELi0EEEbS7_
FUNC 8f704 1fc 0 _ZN3fmt3v116detail10loc_writerIcEclIoTnNSt6__ndk19enable_ifIXsr10is_integerIT_EE5valueEiE4typeELi0EEEbS7_
FUNC 8f900 55c 0 fmt::v11::detail::write_int<fmt::v11::basic_appender<char>, unsigned long, char>(fmt::v11::basic_appender<char>, unsigned long, unsigned int, fmt::v11::format_specs const&, fmt::v11::detail::digit_grouping<char> const&)
FUNC 8fe5c 11c 0 fmt::v11::detail::write_padded<char, (fmt::v11::align)2, fmt::v11::basic_appender<char>, fmt::v11::detail::write_int<fmt::v11::basic_appender<char>, unsigned long, char>(fmt::v11::basic_appender<char>, unsigned long, unsigned int, fmt::v11::format_specs const&, fmt::v11::detail::digit_grouping<char> const&)::{lambda(fmt::v11::basic_appender<char>)#1}>(fmt::v11::basic_appender<char>, fmt::v11::format_specs const&, unsigned long, unsigned long, fmt::v11::detail::write_int<fmt::v11::basic_appender<char>, unsigned long, char>(fmt::v11::basic_appender<char>, unsigned long, unsigned int, fmt::v11::format_specs const&, fmt::v11::detail::digit_grouping<char> const&)::{lambda(fmt::v11::basic_appender<char>&&)#1})
FUNC 8ff78 660 0 fmt::v11::detail::write_int<fmt::v11::basic_appender<char>, unsigned __int128, char>(fmt::v11::basic_appender<char>, unsigned __int128, unsigned int, fmt::v11::format_specs const&, fmt::v11::detail::digit_grouping<char> const&)
FUNC 905d8 11c 0 fmt::v11::detail::write_padded<char, (fmt::v11::align)2, fmt::v11::basic_appender<char>, fmt::v11::detail::write_int<fmt::v11::basic_appender<char>, unsigned __int128, char>(fmt::v11::basic_appender<char>, unsigned __int128, unsigned int, fmt::v11::format_specs const&, fmt::v11::detail::digit_grouping<char> const&)::{lambda(fmt::v11::basic_appender<char>)#1}>(fmt::v11::basic_appender<char>, fmt::v11::format_specs const&, unsigned long, unsigned long, fmt::v11::detail::write_int<fmt::v11::basic_appender<char>, unsigned __int128, char>(fmt::v11::basic_appender<char>, unsigned __int128, unsigned int, fmt::v11::format_specs const&, fmt::v11::detail::digit_grouping<char> const&)::{lambda(fmt::v11::basic_appender<char>&&)#1})
FUNC 906f4 78 0 std::__ndk1::chrono::system_clock::now()
FUNC 9076c 28 0 std::__ndk1::chrono::system_clock::to_time_t(std::__ndk1::chrono::time_point<std::__ndk1::chrono::system_clock, std::__ndk1::chrono::duration<long long, std::__ndk1::ratio<(long)1, (long)1000000> > > const&)
FUNC 90794 14 0 std::__ndk1::chrono::system_clock::from_time_t(long)
FUNC 907a8 58 0 std::__ndk1::chrono::steady_clock::now()
FUNC 90800 68 0 std::__ndk1::__fs::filesystem::_FilesystemClock::now()
FUNC 90868 228 0 std::__ndk1::__fs::filesystem::path::replace_extension(std::__ndk1::__fs::filesystem::path const&)
FUNC 90a90 e0 0 std::__ndk1::basic_string<char, std::__ndk1::char_traits<char>, std::__ndk1::allocator<char> >::append[abi:ne190000](std::__ndk1::basic_string<char, std::__ndk1::char_traits<char>, std::__ndk1::allocator<char> > const&)
FUNC 90b70 64 0 std::__ndk1::__fs::filesystem::path::__root_name() const
FUNC 90bd4 a0 0 std::__ndk1::__fs::filesystem::path::__root_directory() const
FUNC 90c74 f0 0 std::__ndk1::__fs::filesystem::path::__root_path_raw() const
FUNC 90d64 b8 0 std::__ndk1::__fs::filesystem::path::__relative_path() const
FUNC 90e1c 13c 0 std::__ndk1::__fs::filesystem::path::__parent_path() const
FUNC 90f58 13c 0 std::__ndk1::__fs::filesystem::path::__filename() const
FUNC 91094 9c 0 std::__ndk1::__fs::filesystem::path::__stem() const
FUNC 91130 bc 0 std::__ndk1::__fs::filesystem::path::__extension() const
FUNC 911ec 55c 0 std::__ndk1::__fs::filesystem::path::lexically_normal() const
FUNC 91748 520 0 std::__ndk1::__fs::filesystem::path::lexically_relative(std::__ndk1::__fs::filesystem::path const&) const
FUNC 91c68 2f8 0 std::__ndk1::__fs::filesystem::path::__compare(std::__ndk1::basic_string_view<char, std::__ndk1::char_traits<char> >) const
FUNC 91f60 12c 0 std::__ndk1::__fs::filesystem::hash_value(std::__ndk1::__fs::filesystem::path const&)
FUNC 9208c 174 0 std::__ndk1::__fs::filesystem::path::begin() const
FUNC 92200 20 0 std::__ndk1::__fs::filesystem::path::end() const
FUNC 92220 170 0 std::__ndk1::__fs::filesystem::path::iterator::__increment()
FUNC 92390 170 0 std::__ndk1::__fs::filesystem::path::iterator::__decrement()
FUNC 92500 18 0 std::__ndk1::basic_string<char, std::__ndk1::char_traits<char>, std::__ndk1::allocator<char> >::__throw_out_of_range[abi:ne190000]() const
FUNC 92518 208 0 std::__ndk1::__fs::filesystem::parser::PathParser::increment()
FUNC 92720 1fc 0 std::__ndk1::__fs::filesystem::parser::PathParser::decrement()
FUNC 9291c 18 0 std::__ndk1::vector<std::__ndk1::pair<std::__ndk1::basic_string_view<char, std::__ndk1::char_traits<char> >, std::__ndk1::__fs::filesystem::PathPartKind>, std::__ndk1::allocator<std::__ndk1::pair<std::__ndk1::basic_string_view<char, std::__ndk1::char_traits<char> >, std::__ndk1::__fs::filesystem::PathPartKind> > >::__throw_length_error[abi:ne190000]() const
FUNC 92934 43c 0 std::__ndk1::__murmur2_or_cityhash<unsigned long, (unsigned long)64>::operator()[abi:ne190000](void const*, unsigned long) const
FUNC 92d70 368 0 _ZNSt6__ndk112basic_stringIcNS_11char_traitsIcEENS_9allocatorIcEEE6appendB8ne190000IPKcTnNS_9enable_ifIXsr31__has_forward_iterator_categoryIT_EE5valueEiE4typeELi0EEERS5_SA_SA_
FUNC 930d8 720 0 std::__ndk1::__next_prime(unsigned long)
FUNC 937f8 54 0 std::__ndk1::__throw_overflow_error[abi:ne190000](char const*)
FUNC 9384c 38 0 std::overflow_error::overflow_error[abi:ne190000](char const*)
FUNC 93884 8 0 std::__ndk1::bad_weak_ptr::~bad_weak_ptr()
FUNC 9388c 2c 0 std::__ndk1::bad_weak_ptr::~bad_weak_ptr()
FUNC 938b8 10 0 std::__ndk1::bad_weak_ptr::what() const
FUNC 938c8 8 0 std::__ndk1::__shared_weak_count::~__shared_weak_count()
FUNC 938d0 8 0 std::__ndk1::__shared_count::~__shared_count()
FUNC 938d8 8 0 std::__ndk1::__shared_weak_count::~__shared_weak_count()
FUNC 938e0 24 0 std::__ndk1::__shared_count::__add_shared()
FUNC 93904 50 0 std::__ndk1::__shared_count::__release_shared()
FUNC 93954 24 0 std::__ndk1::__shared_weak_count::__add_shared()
FUNC 93978 24 0 std::__ndk1::__shared_weak_count::__add_weak()
FUNC 9399c 7c 0 std::__ndk1::__shared_weak_count::__release_shared()
FUNC 93a18 58 0 std::__ndk1::__shared_weak_count::__release_weak()
FUNC 93a70 60 0 std::__ndk1::__shared_weak_count::lock()
FUNC 93ad0 c 0 std::__ndk1::__shared_weak_count::__get_deleter(std::type_info const&) const
FUNC 93adc 24 0 std::__ndk1::__sp_mut::lock()
FUNC 93b00 24 0 std::__ndk1::__sp_mut::unlock()
FUNC 93b24 54 0 std::__ndk1::__get_sp_mut(void const*)
FUNC 93b78 50 0 std::__ndk1::align(unsigned long, unsigned long, void*&, unsigned long&)
FUNC 93bc8 8 0 std::bad_optional_access::~bad_optional_access()
FUNC 93bd0 2c 0 std::bad_optional_access::~bad_optional_access()
FUNC 93bfc 10 0 std::bad_optional_access::what() const
FUNC 93c0c 8 0 std::experimental::bad_optional_access::~bad_optional_access()
FUNC 93c14 2c 0 std::experimental::bad_optional_access::~bad_optional_access()
FUNC 93c40 94 0 std::logic_error::logic_error(std::__ndk1::basic_string<char, std::__ndk1::char_traits<char>, std::__ndk1::allocator<char> > const&)
FUNC 93cd4 88 0 std::logic_error::logic_error(char const*)
FUNC 93d5c 38 0 std::logic_error::logic_error(std::logic_error const&)
FUNC 93d94 5c 0 std::logic_error::operator=(std::logic_error const&)
FUNC 93df0 94 0 std::runtime_error::runtime_error(std::__ndk1::basic_string<char, std::__ndk1::char_traits<char>, std::__ndk1::allocator<char> > const&)
FUNC 93e84 88 0 std::runtime_error::runtime_error(char const*)
FUNC 93f0c 38 0 std::runtime_error::runtime_error(std::runtime_error const&)
FUNC 93f44 5c 0 std::runtime_error::operator=(std::runtime_error const&)
FUNC 93fa0 54 0 std::__ndk1::__throw_runtime_error(char const*)
FUNC 93ff4 1d4 0 std::__ndk1::basic_string<char, std::__ndk1::char_traits<char>, std::__ndk1::allocator<char> >::replace(unsigned long, unsigned long, char const*, unsigned long)
FUNC 941c8 154 0 std::__ndk1::basic_string<char, std::__ndk1::char_traits<char>, std::__ndk1::allocator<char> >::__grow_by_and_replace(unsigned long, unsigned long, unsigned long, unsigned long, unsigned long, unsigned long, char const*)
FUNC 9431c b8 0 std::__ndk1::basic_string<char, std::__ndk1::char_traits<char>, std::__ndk1::allocator<char> >::rfind(char const*, unsigned long, unsigned long) const
FUNC 943d4 a4 0 std::__ndk1::basic_string<char, std::__ndk1::char_traits<char>, std::__ndk1::allocator<char> >::__init(char const*, unsigned long, unsigned long)
FUNC 94478 2c 0 std::__ndk1::basic_string<char, std::__ndk1::char_traits<char>, std::__ndk1::allocator<char> >::basic_string(std::__ndk1::basic_string<char, std::__ndk1::char_traits<char>, std::__ndk1::allocator<char> > const&)
FUNC 944a4 54 0 std::__ndk1::basic_string<char, std::__ndk1::char_traits<char>, std::__ndk1::allocator<char> >::replace(unsigned long, unsigned long, char const*)
FUNC 944f8 2c 0 std::__ndk1::basic_string<char, std::__ndk1::char_traits<char>, std::__ndk1::allocator<char> >::basic_string(std::__ndk1::basic_string<char, std::__ndk1::char_traits<char>, std::__ndk1::allocator<char> > const&, std::__ndk1::allocator<char> const&)
FUNC 94524 80 0 std::__ndk1::basic_string<char, std::__ndk1::char_traits<char>, std::__ndk1::allocator<char> >::find_last_not_of(char const*, unsigned long, unsigned long) const
FUNC 945a4 18 0 std::__ndk1::basic_string<char, std::__ndk1::char_traits<char>, std::__ndk1::allocator<char> >::~basic_string()
FUNC 945bc 8c 0 std::__ndk1::basic_string<char, std::__ndk1::char_traits<char>, std::__ndk1::allocator<char> >::find_first_not_of(char const*, unsigned long, unsigned long) const
FUNC 94648 1c0 0 std::__ndk1::basic_string<char, std::__ndk1::char_traits<char>, std::__ndk1::allocator<char> >::insert(unsigned long, unsigned long, char)
FUNC 94808 134 0 std::__ndk1::basic_string<char, std::__ndk1::char_traits<char>, std::__ndk1::allocator<char> >::__grow_by_without_replace[abi:ne190000](unsigned long, unsigned long, unsigned long, unsigned long, unsigned long, unsigned long)
FUNC 9493c 34 0 std::__ndk1::basic_string<char, std::__ndk1::char_traits<char>, std::__ndk1::allocator<char> >::operator=(char)
FUNC 94970 a0 0 std::__ndk1::basic_string<char, std::__ndk1::char_traits<char>, std::__ndk1::allocator<char> >::__init(char const*, unsigned long)
FUNC 94a10 44 0 std::__ndk1::basic_string<char, std::__ndk1::char_traits<char>, std::__ndk1::allocator<char> >::at(unsigned long) const
FUNC 94a54 11c 0 std::__ndk1::basic_string<char, std::__ndk1::char_traits<char>, std::__ndk1::allocator<char> >::insert(unsigned long, char const*, unsigned long)
FUNC 94b70 7c 0 std::__ndk1::basic_string<char, std::__ndk1::char_traits<char>, std::__ndk1::allocator<char> >::find_first_of(char const*, unsigned long, unsigned long) const
FUNC 94bec 134 0 std::__ndk1::basic_string<char, std::__ndk1::char_traits<char>, std::__ndk1::allocator<char> >::replace(unsigned long, unsigned long, unsigned long, char)
FUNC 94d20 8 0 std::__ndk1::basic_string<char, std::__ndk1::char_traits<char>, std::__ndk1::allocator<char> >::assign(char const*, unsigned long)
FUNC 94d28 184 0 std::__ndk1::basic_string<char, std::__ndk1::char_traits<char>, std::__ndk1::allocator<char> >::reserve(unsigned long)
FUNC 94eac d4 0 std::__ndk1::basic_string<char, std::__ndk1::char_traits<char>, std::__ndk1::allocator<char> >::append(char const*, unsigned long)
FUNC 94f80 50 0 std::__ndk1::basic_string<char, std::__ndk1::char_traits<char>, std::__ndk1::allocator<char> >::assign(std::__ndk1::basic_string<char, std::__ndk1::char_traits<char>, std::__ndk1::allocator<char> > const&, unsigned long, unsigned long)
FUNC 94fd0 70 0 std::__ndk1::basic_string<char, std::__ndk1::char_traits<char>, std::__ndk1::allocator<char> >::copy(char*, unsigned long, unsigned long) const
FUNC 95040 dc 0 std::__ndk1::basic_string<char, std::__ndk1::char_traits<char>, std::__ndk1::allocator<char> >::basic_string(std::__ndk1::basic_string<char, std::__ndk1::char_traits<char>, std::__ndk1::allocator<char> > const&, unsigned long, unsigned long, std::__ndk1::allocator<char> const&)
FUNC 9511c 70 0 std::__ndk1::basic_string<char, std::__ndk1::char_traits<char>, std::__ndk1::allocator<char> >::find(char, unsigned long) const
FUNC 9518c a0 0 std::__ndk1::basic_string<char, std::__ndk1::char_traits<char>, std::__ndk1::allocator<char> >::__init(unsigned long, char)
FUNC 9522c 4c 0 std::__ndk1::basic_string<char, std::__ndk1::char_traits<char>, std::__ndk1::allocator<char> >::insert(unsigned long, char const*)
FUNC 95278 88 0 std::__ndk1::basic_string<char, std::__ndk1::char_traits<char>, std::__ndk1::allocator<char> >::find_last_of(char const*, unsigned long, unsigned long) const
FUNC 95300 12c 0 std::__ndk1::basic_string<char, std::__ndk1::char_traits<char>, std::__ndk1::allocator<char> >::__grow_by(unsigned long, unsigned long, unsigned long, unsigned long, unsigned long, unsigned long)
FUNC 9542c 134 0 std::__ndk1::basic_string<char, std::__ndk1::char_traits<char>, std::__ndk1::allocator<char> >::push_back(char)
FUNC 95560 184 0 std::__ndk1::basic_string<char, std::__ndk1::char_traits<char>, std::__ndk1::allocator<char> >::append(unsigned long, char)
FUNC 956e4 50 0 std::__ndk1::basic_string<char, std::__ndk1::char_traits<char>, std::__ndk1::allocator<char> >::rfind(char, unsigned long) const
FUNC 95734 144 0 std::__ndk1::basic_string<char, std::__ndk1::char_traits<char>, std::__ndk1::allocator<char> >::assign(unsigned long, char)
FUNC 95878 78 0 std::__ndk1::basic_string<char, std::__ndk1::char_traits<char>, std::__ndk1::allocator<char> >::erase(unsigned long, unsigned long)
FUNC 958f0 108 0 std::__ndk1::basic_string<char, std::__ndk1::char_traits<char>, std::__ndk1::allocator<char> >::append(std::__ndk1::basic_string<char, std::__ndk1::char_traits<char>, std::__ndk1::allocator<char> > const&, unsigned long, unsigned long)
FUNC 959f8 80 0 std::__ndk1::basic_string<char, std::__ndk1::char_traits<char>, std::__ndk1::allocator<char> >::compare(char const*) const
FUNC 95a78 80 0 std::__ndk1::basic_string<char, std::__ndk1::char_traits<char>, std::__ndk1::allocator<char> >::compare(unsigned long, unsigned long, char const*, unsigned long) const
FUNC 95af8 a4 0 std::__ndk1::basic_string<char, std::__ndk1::char_traits<char>, std::__ndk1::allocator<char> >::compare(unsigned long, unsigned long, char const*) const
FUNC 95b9c 44 0 std::__ndk1::basic_string<char, std::__ndk1::char_traits<char>, std::__ndk1::allocator<char> >::at(unsigned long)
FUNC 95be0 8 0 std::__ndk1::basic_string<char, std::__ndk1::char_traits<char>, std::__ndk1::allocator<char> >::assign(char const*)
FUNC 95be8 d0 0 std::__ndk1::basic_string<char, std::__ndk1::char_traits<char>, std::__ndk1::allocator<char> >::find(char const*, unsigned long, unsigned long) const
FUNC 95cb8 b0 0 std::__ndk1::basic_string<char, std::__ndk1::char_traits<char>, std::__ndk1::allocator<char> >::compare(unsigned long, unsigned long, std::__ndk1::basic_string<char, std::__ndk1::char_traits<char>, std::__ndk1::allocator<char> > const&, unsigned long, unsigned long) const
FUNC 95d68 54 0 std::__ndk1::basic_string<char, std::__ndk1::char_traits<char>, std::__ndk1::allocator<char> >::operator=(std::__ndk1::basic_string<char, std::__ndk1::char_traits<char>, std::__ndk1::allocator<char> > const&)
FUNC 95dbc e4 0 std::__ndk1::basic_string<char, std::__ndk1::char_traits<char>, std::__ndk1::allocator<char> >::append(char const*)
FUNC 95ea0 50 0 std::__ndk1::basic_string<char, std::__ndk1::char_traits<char>, std::__ndk1::allocator<char> >::replace(unsigned long, unsigned long, std::__ndk1::basic_string<char, std::__ndk1::char_traits<char>, std::__ndk1::allocator<char> > const&, unsigned long, unsigned long)
FUNC 95ef0 1b0 0 std::__ndk1::basic_string<char, std::__ndk1::char_traits<char>, std::__ndk1::allocator<char> >::insert(std::__ndk1::__wrap_iter<char const*>, char)
FUNC 960a0 4c 0 std::__ndk1::basic_string<char, std::__ndk1::char_traits<char>, std::__ndk1::allocator<char> >::resize(unsigned long, char)
FUNC 960ec 50 0 std::__ndk1::basic_string<char, std::__ndk1::char_traits<char>, std::__ndk1::allocator<char> >::insert(unsigned long, std::__ndk1::basic_string<char, std::__ndk1::char_traits<char>, std::__ndk1::allocator<char> > const&, unsigned long, unsigned long)
FUNC 9613c 1d8 0 std::__ndk1::basic_string<wchar_t, std::__ndk1::char_traits<wchar_t>, std::__ndk1::allocator<wchar_t> >::replace(unsigned long, unsigned long, wchar_t const*, unsigned long)
FUNC 96314 18 0 std::__ndk1::basic_string<wchar_t, std::__ndk1::char_traits<wchar_t>, std::__ndk1::allocator<wchar_t> >::__throw_out_of_range[abi:ne190000]() const
FUNC 9632c 180 0 std::__ndk1::basic_string<wchar_t, std::__ndk1::char_traits<wchar_t>, std::__ndk1::allocator<wchar_t> >::__grow_by_and_replace(unsigned long, unsigned long, unsigned long, unsigned long, unsigned long, unsigned long, wchar_t const*)
FUNC 964ac c4 0 std::__ndk1::basic_string<wchar_t, std::__ndk1::char_traits<wchar_t>, std::__ndk1::allocator<wchar_t> >::rfind(wchar_t const*, unsigned long, unsigned long) const
FUNC 96570 b8 0 std::__ndk1::basic_string<wchar_t, std::__ndk1::char_traits<wchar_t>, std::__ndk1::allocator<wchar_t> >::__init(wchar_t const*, unsigned long, unsigned long)
FUNC 96628 18 0 std::__ndk1::basic_string<wchar_t, std::__ndk1::char_traits<wchar_t>, std::__ndk1::allocator<wchar_t> >::__throw_length_error[abi:ne190000]() const
FUNC 96640 2c 0 std::__ndk1::basic_string<wchar_t, std::__ndk1::char_traits<wchar_t>, std::__ndk1::allocator<wchar_t> >::basic_string(std::__ndk1::basic_string<wchar_t, std::__ndk1::char_traits<wchar_t>, std::__ndk1::allocator<wchar_t> > const&)
FUNC 9666c a0 0 std::__ndk1::basic_string<wchar_t, std::__ndk1::char_traits<wchar_t>, std::__ndk1::allocator<wchar_t> >::__init_copy_ctor_external(wchar_t const*, unsigned long)
FUNC 9670c 54 0 std::__ndk1::basic_string<wchar_t, std::__ndk1::char_traits<wchar_t>, std::__ndk1::allocator<wchar_t> >::replace(unsigned long, unsigned long, wchar_t const*)
FUNC 96760 2c 0 std::__ndk1::basic_string<wchar_t, std::__ndk1::char_traits<wchar_t>, std::__ndk1::allocator<wchar_t> >::basic_string(std::__ndk1::basic_string<wchar_t, std::__ndk1::char_traits<wchar_t>, std::__ndk1::allocator<wchar_t> > const&, std::__ndk1::allocator<wchar_t> const&)
FUNC 9678c 90 0 std::__ndk1::basic_string<wchar_t, std::__ndk1::char_traits<wchar_t>, std::__ndk1::allocator<wchar_t> >::find_last_not_of(wchar_t const*, unsigned long, unsigned long) const
FUNC 9681c 18 0 std::__ndk1::basic_string<wchar_t, std::__ndk1::char_traits<wchar_t>, std::__ndk1::allocator<wchar_t> >::~basic_string()
FUNC 96834 9c 0 std::__ndk1::basic_string<wchar_t, std::__ndk1::char_traits<wchar_t>, std::__ndk1::allocator<wchar_t> >::find_first_not_of(wchar_t const*, unsigned long, unsigned long) const
FUNC 968d0 158 0 std::__ndk1::basic_string<wchar_t, std::__ndk1::char_traits<wchar_t>, std::__ndk1::allocator<wchar_t> >::insert(unsigned long, unsigned long, wchar_t)
FUNC 96a28 34 0 std::__ndk1::basic_string<wchar_t, std::__ndk1::char_traits<wchar_t>, std::__ndk1::allocator<wchar_t> >::operator=(wchar_t)
FUNC 96a5c b4 0 std::__ndk1::basic_string<wchar_t, std::__ndk1::char_traits<wchar_t>, std::__ndk1::allocator<wchar_t> >::__init(wchar_t const*, unsigned long)
FUNC 96b10 48 0 std::__ndk1::basic_string<wchar_t, std::__ndk1::char_traits<wchar_t>, std::__ndk1::allocator<wchar_t> >::at(unsigned long) const
FUNC 96b58 124 0 std::__ndk1::basic_string<wchar_t, std::__ndk1::char_traits<wchar_t>, std::__ndk1::allocator<wchar_t> >::insert(unsigned long, wchar_t const*, unsigned long)
FUNC 96c7c 88 0 std::__ndk1::basic_string<wchar_t, std::__ndk1::char_traits<wchar_t>, std::__ndk1::allocator<wchar_t> >::find_first_of(wchar_t const*, unsigned long, unsigned long) const
FUNC 96d04 188 0 std::__ndk1::basic_string<wchar_t, std::__ndk1::char_traits<wchar_t>, std::__ndk1::allocator<wchar_t> >::replace(unsigned long, unsigned long, unsigned long, wchar_t)
FUNC 96e8c 8 0 std::__ndk1::basic_string<wchar_t, std::__ndk1::char_traits<wchar_t>, std::__ndk1::allocator<wchar_t> >::assign(wchar_t const*, unsigned long)
FUNC 96e94 c8 0 std::__ndk1::basic_string<wchar_t, std::__ndk1::char_traits<wchar_t>, std::__ndk1::allocator<wchar_t> >::__assign_external(wchar_t const*, unsigned long)
FUNC 96f5c 9c 0 std::__ndk1::basic_string<wchar_t, std::__ndk1::char_traits<wchar_t>, std::__ndk1::allocator<wchar_t> >::reserve(unsigned long)
FUNC 96ff8 144 0 std::__ndk1::basic_string<wchar_t, std::__ndk1::char_traits<wchar_t>, std::__ndk1::allocator<wchar_t> >::__shrink_or_extend[abi:ne190000](unsigned long)
FUNC 9713c d8 0 std::__ndk1::basic_string<wchar_t, std::__ndk1::char_traits<wchar_t>, std::__ndk1::allocator<wchar_t> >::append(wchar_t const*, unsigned long)
FUNC 97214 54 0 std::__ndk1::basic_string<wchar_t, std::__ndk1::char_traits<wchar_t>, std::__ndk1::allocator<wchar_t> >::assign(std::__ndk1::basic_string<wchar_t, std::__ndk1::char_traits<wchar_t>, std::__ndk1::allocator<wchar_t> > const&, unsigned long, unsigned long)
FUNC 97268 74 0 std::__ndk1::basic_string<wchar_t, std::__ndk1::char_traits<wchar_t>, std::__ndk1::allocator<wchar_t> >::copy(wchar_t*, unsigned long, unsigned long) const
FUNC 972dc f4 0 std::__ndk1::basic_string<wchar_t, std::__ndk1::char_traits<wchar_t>, std::__ndk1::allocator<wchar_t> >::basic_string(std::__ndk1::basic_string<wchar_t, std::__ndk1::char_traits<wchar_t>, std::__ndk1::allocator<wchar_t> > const&, unsigned long, unsigned long, std::__ndk1::allocator<wchar_t> const&)
FUNC 973d0 74 0 std::__ndk1::basic_string<wchar_t, std::__ndk1::char_traits<wchar_t>, std::__ndk1::allocator<wchar_t> >::find(wchar_t, unsigned long) const
FUNC 97444 f0 0 std::__ndk1::basic_string<wchar_t, std::__ndk1::char_traits<wchar_t>, std::__ndk1::allocator<wchar_t> >::__init(unsigned long, wchar_t)
FUNC 97534 4c 0 std::__ndk1::basic_string<wchar_t, std::__ndk1::char_traits<wchar_t>, std::__ndk1::allocator<wchar_t> >::insert(unsigned long, wchar_t const*)
FUNC 97580 9c 0 std::__ndk1::basic_string<wchar_t, std::__ndk1::char_traits<wchar_t>, std::__ndk1::allocator<wchar_t> >::find_last_of(wchar_t const*, unsigned long, unsigned long) const
FUNC 9761c 140 0 std::__ndk1::basic_string<wchar_t, std::__ndk1::char_traits<wchar_t>, std::__ndk1::allocator<wchar_t> >::__grow_by(unsigned long, unsigned long, unsigned long, unsigned long, unsigned long, unsigned long)
FUNC 9775c a8 0 std::__ndk1::basic_string<wchar_t, std::__ndk1::char_traits<wchar_t>, std::__ndk1::allocator<wchar_t> >::push_back(wchar_t)
FUNC 97804 128 0 std::__ndk1::basic_string<wchar_t, std::__ndk1::char_traits<wchar_t>, std::__ndk1::allocator<wchar_t> >::append(unsigned long, wchar_t)
FUNC 9792c 58 0 std::__ndk1::basic_string<wchar_t, std::__ndk1::char_traits<wchar_t>, std::__ndk1::allocator<wchar_t> >::rfind(wchar_t, unsigned long) const
FUNC 97984 118 0 std::__ndk1::basic_string<wchar_t, std::__ndk1::char_traits<wchar_t>, std::__ndk1::allocator<wchar_t> >::assign(unsigned long, wchar_t)
FUNC 97a9c 78 0 std::__ndk1::basic_string<wchar_t, std::__ndk1::char_traits<wchar_t>, std::__ndk1::allocator<wchar_t> >::erase(unsigned long, unsigned long)
FUNC 97b14 9c 0 std::__ndk1::basic_string<wchar_t, std::__ndk1::char_traits<wchar_t>, std::__ndk1::allocator<wchar_t> >::__erase_external_with_move(unsigned long, unsigned long)
FUNC 97bb0 10c 0 std::__ndk1::basic_string<wchar_t, std::__ndk1::char_traits<wchar_t>, std::__ndk1::allocator<wchar_t> >::append(std::__ndk1::basic_string<wchar_t, std::__ndk1::char_traits<wchar_t>, std::__ndk1::allocator<wchar_t> > const&, unsigned long, unsigned long)
FUNC 97cbc 98 0 std::__ndk1::basic_string<wchar_t, std::__ndk1::char_traits<wchar_t>, std::__ndk1::allocator<wchar_t> >::compare(wchar_t const*) const
FUNC 97d54 8c 0 std::__ndk1::basic_string<wchar_t, std::__ndk1::char_traits<wchar_t>, std::__ndk1::allocator<wchar_t> >::compare(unsigned long, unsigned long, wchar_t const*, unsigned long) const
FUNC 97de0 b8 0 std::__ndk1::basic_string<wchar_t, std::__ndk1::char_traits<wchar_t>, std::__ndk1::allocator<wchar_t> >::compare(unsigned long, unsigned long, wchar_t const*) const
FUNC 97e98 48 0 std::__ndk1::basic_string<wchar_t, std::__ndk1::char_traits<wchar_t>, std::__ndk1::allocator<wchar_t> >::at(unsigned long)
FUNC 97ee0 8 0 std::__ndk1::basic_string<wchar_t, std::__ndk1::char_traits<wchar_t>, std::__ndk1::allocator<wchar_t> >::assign(wchar_t const*)
FUNC 97ee8 3c 0 std::__ndk1::basic_string<wchar_t, std::__ndk1::char_traits<wchar_t>, std::__ndk1::allocator<wchar_t> >::__assign_external(wchar_t const*)
FUNC 97f24 e0 0 std::__ndk1::basic_string<wchar_t, std::__ndk1::char_traits<wchar_t>, std::__ndk1::allocator<wchar_t> >::find(wchar_t const*, unsigned long, unsigned long) const
FUNC 98004 b8 0 std::__ndk1::basic_string<wchar_t, std::__ndk1::char_traits<wchar_t>, std::__ndk1::allocator<wchar_t> >::compare(unsigned long, unsigned long, std::__ndk1::basic_string<wchar_t, std::__ndk1::char_traits<wchar_t>, std::__ndk1::allocator<wchar_t> > const&, unsigned long, unsigned long) const
FUNC 980bc 58 0 std::__ndk1::basic_string<wchar_t, std::__ndk1::char_traits<wchar_t>, std::__ndk1::allocator<wchar_t> >::operator=(std::__ndk1::basic_string<wchar_t, std::__ndk1::char_traits<wchar_t>, std::__ndk1::allocator<wchar_t> > const&)
FUNC 98114 d4 0 std::__ndk1::basic_string<wchar_t, std::__ndk1::char_traits<wchar_t>, std::__ndk1::allocator<wchar_t> >::__assign_no_alias<true>(wchar_t const*, unsigned long)
FUNC 981e8 90 0 std::__ndk1::basic_string<wchar_t, std::__ndk1::char_traits<wchar_t>, std::__ndk1::allocator<wchar_t> >::__assign_no_alias<false>(wchar_t const*, unsigned long)
FUNC 98278 e8 0 std::__ndk1::basic_string<wchar_t, std::__ndk1::char_traits<wchar_t>, std::__ndk1::allocator<wchar_t> >::append(wchar_t const*)
FUNC 98360 50 0 std::__ndk1::basic_string<wchar_t, std::__ndk1::char_traits<wchar_t>, std::__ndk1::allocator<wchar_t> >::replace(unsigned long, unsigned long, std::__ndk1::basic_string<wchar_t, std::__ndk1::char_traits<wchar_t>, std::__ndk1::allocator<wchar_t> > const&, unsigned long, unsigned long)
FUNC 983b0 104 0 std::__ndk1::basic_string<wchar_t, std::__ndk1::char_traits<wchar_t>, std::__ndk1::allocator<wchar_t> >::insert(std::__ndk1::__wrap_iter<wchar_t const*>, wchar_t)
FUNC 984b4 160 0 std::__ndk1::basic_string<wchar_t, std::__ndk1::char_traits<wchar_t>, std::__ndk1::allocator<wchar_t> >::resize(unsigned long, wchar_t)
FUNC 98614 50 0 std::__ndk1::basic_string<wchar_t, std::__ndk1::char_traits<wchar_t>, std::__ndk1::allocator<wchar_t> >::insert(unsigned long, std::__ndk1::basic_string<wchar_t, std::__ndk1::char_traits<wchar_t>, std::__ndk1::allocator<wchar_t> > const&, unsigned long, unsigned long)
FUNC 98664 108 0 std::__ndk1::operator+<char, std::__ndk1::char_traits<char>, std::__ndk1::allocator<char> >(char const*, std::__ndk1::basic_string<char, std::__ndk1::char_traits<char>, std::__ndk1::allocator<char> > const&)
FUNC 9876c 18 0 std::__ndk1::__basic_string_common<true>::__throw_length_error() const
FUNC 98784 18 0 std::__ndk1::__basic_string_common<true>::__throw_out_of_range() const
FUNC 9879c 15c 0 std::__ndk1::stoi(std::__ndk1::basic_string<char, std::__ndk1::char_traits<char>, std::__ndk1::allocator<char> > const&, unsigned long*, int)
FUNC 988f8 118 0 std::__ndk1::stol(std::__ndk1::basic_string<char, std::__ndk1::char_traits<char>, std::__ndk1::allocator<char> > const&, unsigned long*, int)
FUNC 98a10 16c 0 std::__ndk1::stoul(std::__ndk1::basic_string<char, std::__ndk1::char_traits<char>, std::__ndk1::allocator<char> > const&, unsigned long*, int)
FUNC 98b7c 16c 0 std::__ndk1::stoll(std::__ndk1::basic_string<char, std::__ndk1::char_traits<char>, std::__ndk1::allocator<char> > const&, unsigned long*, int)
FUNC 98ce8 170 0 std::__ndk1::stoull(std::__ndk1::basic_string<char, std::__ndk1::char_traits<char>, std::__ndk1::allocator<char> > const&, unsigned long*, int)
FUNC 98e58 148 0 std::__ndk1::stof(std::__ndk1::basic_string<char, std::__ndk1::char_traits<char>, std::__ndk1::allocator<char> > const&, unsigned long*)
FUNC 98fa0 148 0 std::__ndk1::stod(std::__ndk1::basic_string<char, std::__ndk1::char_traits<char>, std::__ndk1::allocator<char> > const&, unsigned long*)
FUNC 990e8 164 0 std::__ndk1::stold(std::__ndk1::basic_string<char, std::__ndk1::char_traits<char>, std::__ndk1::allocator<char> > const&, unsigned long*)
FUNC 9924c 164 0 std::__ndk1::stoi(std::__ndk1::basic_string<wchar_t, std::__ndk1::char_traits<wchar_t>, std::__ndk1::allocator<wchar_t> > const&, unsigned long*, int)
FUNC 993b0 120 0 std::__ndk1::stol(std::__ndk1::basic_string<wchar_t, std::__ndk1::char_traits<wchar_t>, std::__ndk1::allocator<wchar_t> > const&, unsigned long*, int)
FUNC 994d0 17c 0 std::__ndk1::stoul(std::__ndk1::basic_string<wchar_t, std::__ndk1::char_traits<wchar_t>, std::__ndk1::allocator<wchar_t> > const&, unsigned long*, int)
FUNC 9964c 17c 0 std::__ndk1::stoll(std::__ndk1::basic_string<wchar_t, std::__ndk1::char_traits<wchar_t>, std::__ndk1::allocator<wchar_t> > const&, unsigned long*, int)
FUNC 997c8 180 0 std::__ndk1::stoull(std::__ndk1::basic_string<wchar_t, std::__ndk1::char_traits<wchar_t>, std::__ndk1::allocator<wchar_t> > const&, unsigned long*, int)
FUNC 99948 158 0 std::__ndk1::stof(std::__ndk1::basic_string<wchar_t, std::__ndk1::char_traits<wchar_t>, std::__ndk1::allocator<wchar_t> > const&, unsigned long*)
FUNC 99aa0 158 0 std::__ndk1::stod(std::__ndk1::basic_string<wchar_t, std::__ndk1::char_traits<wchar_t>, std::__ndk1::allocator<wchar_t> > const&, unsigned long*)
FUNC 99bf8 16c 0 std::__ndk1::stold(std::__ndk1::basic_string<wchar_t, std::__ndk1::char_traits<wchar_t>, std::__ndk1::allocator<wchar_t> > const&, unsigned long*)
FUNC 99d64 128 0 std::__ndk1::to_string(int)
FUNC 99e8c 21c 0 std::__ndk1::to_string(long)
FUNC 9a0a8 21c 0 std::__ndk1::to_string(long long)
FUNC 9a2c4 c4 0 std::__ndk1::to_string(unsigned int)
FUNC 9a388 1c8 0 std::__ndk1::to_string(unsigned long)
FUNC 9a550 1c8 0 std::__ndk1::to_string(unsigned long long)
FUNC 9a718 1d8 0 std::__ndk1::to_wstring(int)
FUNC 9a8f0 2cc 0 std::__ndk1::to_wstring(long)
FUNC 9abbc 2cc 0 std::__ndk1::to_wstring(long long)
FUNC 9ae88 174 0 std::__ndk1::to_wstring(unsigned int)
FUNC 9affc 278 0 std::__ndk1::to_wstring(unsigned long)
FUNC 9b274 278 0 std::__ndk1::to_wstring(unsigned long long)
FUNC 9b4ec 19c 0 std::__ndk1::to_string(float)
FUNC 9b688 198 0 std::__ndk1::to_string(double)
FUNC 9b820 190 0 std::__ndk1::to_string(long double)
FUNC 9b9b0 148 0 std::__ndk1::to_wstring(float)
FUNC 9baf8 144 0 std::__ndk1::to_wstring(double)
FUNC 9bc3c 13c 0 std::__ndk1::to_wstring(long double)
FUNC 9bd78 50 0 std::__ndk1::(anonymous namespace)::throw_from_string_invalid_arg(std::__ndk1::basic_string<char, std::__ndk1::char_traits<char>, std::__ndk1::allocator<char> > const&)
FUNC 9bdc8 54 0 std::__ndk1::__throw_invalid_argument[abi:ne190000](char const*)
FUNC 9be1c 10c 0 std::__ndk1::operator+[abi:ne190000]<char, std::__ndk1::char_traits<char>, std::__ndk1::allocator<char> >(std::__ndk1::allocator<char> const&, std::__ndk1::basic_string const*)
FUNC 9bf28 38 0 std::invalid_argument::invalid_argument[abi:ne190000](char const*)
FUNC 9bf60 3b8 0 std::__ndk1::__itoa::__base_10_u32[abi:ne190000](char*, unsigned int)
FUNC 9c318 124 0 std::__ndk1::__do_message::message(int) const
FUNC 9c43c 10 0 std::__ndk1::__generic_error_category::name() const
FUNC 9c44c 68 0 std::__ndk1::__generic_error_category::message(int) const
FUNC 9c4b4 50 0 std::__ndk1::generic_category()
FUNC 9c504 10 0 std::__ndk1::__system_error_category::name() const
FUNC 9c514 64 0 std::__ndk1::__system_error_category::message(int) const
FUNC 9c578 24 0 std::__ndk1::__system_error_category::default_error_condition(int) const
FUNC 9c59c 50 0 std::__ndk1::system_category()
FUNC 9c5ec 1c 0 std::__ndk1::error_condition::message() const
FUNC 9c608 1c 0 std::__ndk1::error_code::message() const
FUNC 9c624 f8 0 std::__ndk1::system_error::system_error(std::__ndk1::error_code, std::__ndk1::basic_string<char, std::__ndk1::char_traits<char>, std::__ndk1::allocator<char> > const&)
FUNC 9c71c d4 0 std::__ndk1::(anonymous namespace)::make_error_str(std::__ndk1::error_code const&, std::__ndk1::basic_string<char, std::__ndk1::char_traits<char>, std::__ndk1::allocator<char> >)
FUNC 9c7f0 164 0 std::__ndk1::system_error::system_error(std::__ndk1::error_code, char const*)
FUNC 9c954 b0 0 std::__ndk1::system_error::system_error(std::__ndk1::error_code)
FUNC 9ca04 10c 0 std::__ndk1::system_error::system_error(int, std::__ndk1::error_category const&, std::__ndk1::basic_string<char, std::__ndk1::char_traits<char>, std::__ndk1::allocator<char> > const&)
FUNC 9cb10 178 0 std::__ndk1::system_error::system_error(int, std::__ndk1::error_category const&, char const*)
FUNC 9cc88 b4 0 std::__ndk1::system_error::system_error(int, std::__ndk1::error_category const&)
FUNC 9cd3c 8 0 std::__ndk1::system_error::~system_error()
FUNC 9cd44 2c 0 std::__ndk1::system_error::~system_error()
FUNC 9cd70 20 0 std::__ndk1::__throw_system_error(int, char const*)
FUNC 9cd90 68 0 std::__ndk1::__throw_system_error[abi:ne190000](std::__ndk1::error_code, char const*)
FUNC 9cdf8 2c 0 std::__ndk1::__generic_error_category::~__generic_error_category()
FUNC 9ce24 2c 0 std::__ndk1::__system_error_category::~__system_error_category()
FUNC 9ce50 18 0 std::__ndk1::error_category::error_category()
FUNC 9ce68 8 0 std::__ndk1::error_category::~error_category()
FUNC 9ce70 8 0 std::__ndk1::error_category::~error_category()
FUNC 9ce78 14 0 std::__ndk1::error_category::default_error_condition(int) const
FUNC 9ce8c 44 0 std::__ndk1::error_category::equivalent(int, std::__ndk1::error_condition const&) const
FUNC 9ced0 1c 0 std::__ndk1::error_category::equivalent(std::__ndk1::error_code const&, int) const
FUNC 9ceec 10 0 std::bad_variant_access::what() const
FUNC 9cefc 2c 0 std::bad_variant_access::~bad_variant_access()
FUNC 9cf28 20 0 std::__ndk1::condition_variable::~condition_variable()
FUNC 9cf48 20 0 std::__ndk1::mutex::~mutex()
FUNC 9cf68 2c 0 std::__ndk1::mutex::lock()
FUNC 9cf94 28 0 std::__ndk1::mutex::try_lock()
FUNC 9cfbc 20 0 std::__ndk1::mutex::unlock()
FUNC 9cfdc a4 0 std::__ndk1::recursive_mutex::recursive_mutex()
FUNC 9d080 20 0 std::__ndk1::recursive_mutex::~recursive_mutex()
FUNC 9d0a0 2c 0 std::__ndk1::recursive_mutex::lock()
FUNC 9d0cc 20 0 std::__ndk1::recursive_mutex::unlock()
FUNC 9d0ec 28 0 std::__ndk1::recursive_mutex::try_lock()
FUNC 9d114 1c 0 std::__ndk1::timed_mutex::timed_mutex()
FUNC 9d130 54 0 std::__ndk1::timed_mutex::~timed_mutex()
FUNC 9d184 90 0 std::__ndk1::timed_mutex::lock()
FUNC 9d214 60 0 std::__ndk1::timed_mutex::try_lock()
FUNC 9d274 54 0 std::__ndk1::timed_mutex::unlock()
FUNC 9d2c8 1c 0 std::__ndk1::recursive_timed_mutex::recursive_timed_mutex()
FUNC 9d2e4 54 0 std::__ndk1::recursive_timed_mutex::~recursive_timed_mutex()
FUNC 9d338 e0 0 std::__ndk1::recursive_timed_mutex::lock()
FUNC 9d418 88 0 std::__ndk1::recursive_timed_mutex::try_lock()
FUNC 9d4a0 7c 0 std::__ndk1::recursive_timed_mutex::unlock()
FUNC 9d51c 20 0 std::__ndk1::condition_variable::notify_one()
FUNC 9d53c 20 0 std::__ndk1::condition_variable::notify_all()
FUNC 9d55c 4c 0 std::__ndk1::condition_variable::wait(std::__ndk1::unique_lock<std::__ndk1::mutex>&)
FUNC 9d5a8 a0 0 std::__ndk1::condition_variable::__do_timed_wait(std::__ndk1::unique_lock<std::__ndk1::mutex>&, std::__ndk1::chrono::time_point<std::__ndk1::chrono::system_clock, std::__ndk1::chrono::duration<long long, std::__ndk1::ratio<(long)1, (long)1000000000> > >)
FUNC 9d648 90 0 std::__ndk1::notify_all_at_thread_exit(std::__ndk1::condition_variable&, std::__ndk1::unique_lock<std::__ndk1::mutex>)
FUNC 9d6d8 20 0 std::__ndk1::thread::~thread()
FUNC 9d6f8 4c 0 std::__ndk1::thread::join()
FUNC 9d744 48 0 std::__ndk1::thread::detach()
FUNC 9d78c 2c 0 std::__ndk1::thread::hardware_concurrency()
FUNC 9d7b8 80 0 std::__ndk1::this_thread::sleep_for(std::__ndk1::chrono::duration<long long, std::__ndk1::ratio<(long)1, (long)1000000000> > const&)
FUNC 9d838 84 0 std::__ndk1::__thread_local_data()
FUNC 9d8bc 34 0 std::__ndk1::__thread_specific_ptr<std::__ndk1::__thread_struct>::__thread_specific_ptr()
FUNC 9d8f0 cc 0 std::__ndk1::__thread_struct_imp::~__thread_struct_imp()
FUNC 9d9bc fc 0 std::__ndk1::__thread_struct_imp::notify_all_at_thread_exit(std::__ndk1::condition_variable*, std::__ndk1::mutex*)
FUNC 9dab8 f0 0 std::__ndk1::__thread_struct_imp::__make_ready_at_thread_exit(std::__ndk1::__assoc_sub_state*)
FUNC 9dba8 3c 0 std::__ndk1::__thread_struct::__thread_struct()
FUNC 9dbe4 44 0 std::__ndk1::__thread_struct::~__thread_struct()
FUNC 9dc28 c 0 std::__ndk1::__thread_struct::notify_all_at_thread_exit(std::__ndk1::condition_variable*, std::__ndk1::mutex*)
FUNC 9dc34 c 0 std::__ndk1::__thread_struct::__make_ready_at_thread_exit(std::__ndk1::__assoc_sub_state*)
FUNC 9dc40 18 0 std::__ndk1::vector<std::__ndk1::pair<std::__ndk1::condition_variable*, std::__ndk1::mutex*>, std::__ndk1::__hidden_allocator<std::__ndk1::pair<std::__ndk1::condition_variable*, std::__ndk1::mutex*> > >::__throw_length_error[abi:ne190000]() const
FUNC 9dc58 18 0 std::__ndk1::vector<std::__ndk1::__assoc_sub_state*, std::__ndk1::__hidden_allocator<std::__ndk1::__assoc_sub_state*> >::__throw_length_error[abi:ne190000]() const
FUNC 9dc70 38 0 std::__ndk1::__thread_specific_ptr<std::__ndk1::__thread_struct>::__at_thread_exit(void*)
FUNC 9dca8 10 0 std::__ndk1::__future_error_category::name() const
FUNC 9dcb8 18c 0 std::__ndk1::__future_error_category::message(int) const
FUNC 9de44 50 0 std::__ndk1::future_category()
FUNC 9de94 8c 0 std::__ndk1::future_error::future_error(std::__ndk1::error_code)
FUNC 9df20 8 0 std::__ndk1::future_error::~future_error()
FUNC 9df28 2c 0 std::__ndk1::future_error::~future_error()
FUNC 9df54 10 0 std::__ndk1::__assoc_sub_state::__on_zero_shared()
FUNC 9df64 8c 0 std::__ndk1::__assoc_sub_state::set_value()
FUNC 9dff0 90 0 std::__ndk1::__throw_future_error[abi:ne190000](std::__ndk1::future_errc)
FUNC 9e080 94 0 std::__ndk1::__assoc_sub_state::set_value_at_thread_exit()
FUNC 9e114 a4 0 std::__ndk1::__assoc_sub_state::set_exception(std::exception_ptr)
FUNC 9e1b8 a4 0 std::__ndk1::__assoc_sub_state::set_exception_at_thread_exit(std::exception_ptr)
FUNC 9e25c 44 0 std::__ndk1::__assoc_sub_state::__make_ready()
FUNC 9e2a0 e8 0 std::__ndk1::__assoc_sub_state::copy()
FUNC 9e388 90 0 std::__ndk1::__assoc_sub_state::__sub_wait(std::__ndk1::unique_lock<std::__ndk1::mutex>&)
FUNC 9e418 a4 0 std::__ndk1::__assoc_sub_state::wait()
FUNC 9e4bc 14 0 std::__ndk1::__assoc_sub_state::__execute()
FUNC 9e4d0 6c 0 std::__ndk1::future<void>::future(std::__ndk1::__assoc_sub_state*)
FUNC 9e53c 54 0 std::__ndk1::future<void>::~future()
FUNC 9e590 8c 0 std::__ndk1::future<void>::get()
FUNC 9e61c 54 0 std::__ndk1::promise<void>::promise()
FUNC 9e670 194 0 std::__ndk1::promise<void>::~promise()
FUNC 9e804 28 0 std::__ndk1::promise<void>::get_future()
FUNC 9e82c 24 0 std::__ndk1::promise<void>::set_value()
FUNC 9e850 60 0 std::__ndk1::promise<void>::set_exception(std::exception_ptr)
FUNC 9e8b0 24 0 std::__ndk1::promise<void>::set_value_at_thread_exit()
FUNC 9e8d4 60 0 std::__ndk1::promise<void>::set_exception_at_thread_exit(std::exception_ptr)
FUNC 9e934 54 0 std::__ndk1::shared_future<void>::~shared_future()
FUNC 9e988 78 0 std::__ndk1::shared_future<void>::operator=(std::__ndk1::shared_future<void> const&)
FUNC 9ea00 54 0 std::__ndk1::__assoc_sub_state::~__assoc_sub_state()
FUNC 9ea54 5c 0 std::__ndk1::__assoc_sub_state::~__assoc_sub_state()
FUNC 9eab0 2c 0 std::__ndk1::__future_error_category::~__future_error_category()
FUNC 9eadc 10 0 _ZZSt18make_exception_ptrB8ne190000INSt6__ndk112future_errorEESt13exception_ptrT_ENUlPvE_8__invokeES4_
FUNC 9eaec 24 0 std::uncaught_exception()
FUNC 9eb10 8 0 std::uncaught_exceptions()
FUNC 9eb18 c 0 std::exception_ptr::~exception_ptr()
FUNC 9eb24 18 0 std::exception_ptr::exception_ptr(std::exception_ptr const&)
FUNC 9eb3c 50 0 std::exception_ptr::operator=(std::exception_ptr const&)
FUNC 9eb8c c 0 std::exception_ptr::__from_native_exception_pointer(void*)
FUNC 9eb98 3c 0 std::nested_exception::nested_exception()
FUNC 9ebd4 2c 0 std::current_exception()
FUNC 9ec00 18 0 std::nested_exception::~nested_exception()
FUNC 9ec18 2c 0 std::nested_exception::~nested_exception()
FUNC 9ec44 58 0 std::nested_exception::rethrow_nested() const
FUNC 9ec9c 18 0 std::rethrow_exception(std::exception_ptr)
FUNC 9ecb4 a4 0 std::__ndk1::random_device::random_device(std::__ndk1::basic_string<char, std::__ndk1::char_traits<char>, std::__ndk1::allocator<char> > const&)
FUNC 9ed58 24 0 std::__ndk1::random_device::~random_device()
FUNC 9ed7c 94 0 std::__ndk1::random_device::operator()()
FUNC 9ee10 58 0 std::__ndk1::random_device::entropy() const
FUNC 9ee68 10 0 std::__ndk1::__iostream_category::name() const
FUNC 9ee78 74 0 std::__ndk1::__iostream_category::message(int) const
FUNC 9eeec 50 0 std::__ndk1::iostream_category()
FUNC 9ef3c 40 0 std::__ndk1::ios_base::failure::failure(std::__ndk1::basic_string<char, std::__ndk1::char_traits<char>, std::__ndk1::allocator<char> > const&, std::__ndk1::error_code const&)
FUNC 9ef7c 40 0 std::__ndk1::ios_base::failure::failure(char const*, std::__ndk1::error_code const&)
FUNC 9efbc 8 0 std::__ndk1::ios_base::failure::~failure()
FUNC 9efc4 2c 0 std::__ndk1::ios_base::failure::~failure()
FUNC 9eff0 64 0 std::__ndk1::ios_base::__call_callbacks(std::__ndk1::ios_base::event)
FUNC 9f054 90 0 std::__ndk1::ios_base::imbue(std::__ndk1::locale const&)
FUNC 9f0e4 10 0 std::__ndk1::ios_base::getloc() const
FUNC 9f0f4 28 0 std::__ndk1::ios_base::xalloc()
FUNC 9f11c 114 0 std::__ndk1::ios_base::iword(int)
FUNC 9f230 114 0 std::__ndk1::ios_base::pword(int)
FUNC 9f344 e0 0 std::__ndk1::ios_base::register_callback(void (*)(std::__ndk1::ios_base::event, std::__ndk1::ios_base&, int), int)
FUNC 9f424 b4 0 std::__ndk1::ios_base::~ios_base()
FUNC 9f4d8 2c 0 std::__ndk1::ios_base::~ios_base()
FUNC 9f504 40 0 std::__ndk1::ios_base::clear(unsigned int)
FUNC 9f544 a0 0 std::__ndk1::__throw_failure[abi:ne190000](char const*)
FUNC 9f5e4 4c 0 std::__ndk1::ios_base::init(void*)
FUNC 9f630 2c0 0 std::__ndk1::ios_base::copyfmt(std::__ndk1::ios_base const&)
FUNC 9f8f0 9c 0 std::__ndk1::ios_base::move(std::__ndk1::ios_base&)
FUNC 9f98c 11c 0 std::__ndk1::ios_base::swap(std::__ndk1::ios_base&)
FUNC 9faa8 2c 0 std::__ndk1::ios_base::__set_badbit_and_consider_rethrow()
FUNC 9fad4 2c 0 std::__ndk1::ios_base::__set_failbit_and_consider_rethrow()
FUNC 9fb00 1c 0 std::__ndk1::ios_base::sync_with_stdio(bool)
FUNC 9fb1c 2c 0 std::__ndk1::__iostream_category::~__iostream_category()
FUNC 9fb48 38 0 std::__throw_bad_alloc()
FUNC 9fb80 8 0 std::__ndk1::basic_ios<char, std::__ndk1::char_traits<char> >::~basic_ios()
FUNC 9fb88 2c 0 std::__ndk1::basic_ios<char, std::__ndk1::char_traits<char> >::~basic_ios()
FUNC 9fbb4 7c 0 std::__ndk1::basic_ios<char, std::__ndk1::char_traits<char> >::copyfmt(std::__ndk1::basic_ios<char, std::__ndk1::char_traits<char> > const&)
FUNC 9fc30 18 0 std::__ndk1::basic_streambuf<char, std::__ndk1::char_traits<char> >::~basic_streambuf()
FUNC 9fc48 2c 0 std::__ndk1::basic_streambuf<char, std::__ndk1::char_traits<char> >::~basic_streambuf()
FUNC 9fc74 54 0 std::__ndk1::basic_streambuf<char, std::__ndk1::char_traits<char> >::pubimbue(std::__ndk1::locale const&)
FUNC 9fcc8 10 0 std::__ndk1::basic_streambuf<char, std::__ndk1::char_traits<char> >::getloc() const
FUNC 9fcd8 10 0 std::__ndk1::basic_streambuf<char, std::__ndk1::char_traits<char> >::pubsetbuf(char*, long)
FUNC 9fce8 10 0 std::__ndk1::basic_streambuf<char, std::__ndk1::char_traits<char> >::pubseekoff(long long, std::__ndk1::ios_base::seekdir, unsigned int)
FUNC 9fcf8 10 0 std::__ndk1::basic_streambuf<char, std::__ndk1::char_traits<char> >::pubseekpos(std::__ndk1::fpos<mbstate_t>, unsigned int)
FUNC 9fd08 10 0 std::__ndk1::basic_streambuf<char, std::__ndk1::char_traits<char> >::pubsync()
FUNC 9fd18 24 0 std::__ndk1::basic_streambuf<char, std::__ndk1::char_traits<char> >::in_avail()
FUNC 9fd3c 84 0 std::__ndk1::basic_streambuf<char, std::__ndk1::char_traits<char> >::snextc()
FUNC 9fdc0 2c 0 std::__ndk1::basic_streambuf<char, std::__ndk1::char_traits<char> >::sbumpc()
FUNC 9fdec 24 0 std::__ndk1::basic_streambuf<char, std::__ndk1::char_traits<char> >::sgetc()
FUNC 9fe10 10 0 std::__ndk1::basic_streambuf<char, std::__ndk1::char_traits<char> >::sgetn(char*, long)
FUNC 9fe20 38 0 std::__ndk1::basic_streambuf<char, std::__ndk1::char_traits<char> >::sputbackc(char)
FUNC 9fe58 30 0 std::__ndk1::basic_streambuf<char, std::__ndk1::char_traits<char> >::sungetc()
FUNC 9fe88 3c 0 std::__ndk1::basic_streambuf<char, std::__ndk1::char_traits<char> >::sputc(char)
FUNC 9fec4 10 0 std::__ndk1::basic_streambuf<char, std::__ndk1::char_traits<char> >::sputn(char const*, long)
FUNC 9fed4 44 0 std::__ndk1::basic_streambuf<char, std::__ndk1::char_traits<char> >::basic_streambuf()
FUNC 9ff18 58 0 std::__ndk1::basic_streambuf<char, std::__ndk1::char_traits<char> >::basic_streambuf(std::__ndk1::basic_streambuf<char, std::__ndk1::char_traits<char> > const&)
FUNC 9ff70 50 0 std::__ndk1::basic_streambuf<char, std::__ndk1::char_traits<char> >::operator=(std::__ndk1::basic_streambuf<char, std::__ndk1::char_traits<char> > const&)
FUNC 9ffc0 bc 0 std::__ndk1::basic_streambuf<char, std::__ndk1::char_traits<char> >::swap(std::__ndk1::basic_streambuf<char, std::__ndk1::char_traits<char> >&)
FUNC a007c 14 0 std::__ndk1::basic_streambuf<char, std::__ndk1::char_traits<char> >::gbump(int)
FUNC a0090 10 0 std::__ndk1::basic_streambuf<char, std::__ndk1::char_traits<char> >::setg(char*, char*, char*)
FUNC a00a0 14 0 std::__ndk1::basic_streambuf<char, std::__ndk1::char_traits<char> >::pbump(int)
FUNC a00b4 10 0 std::__ndk1::basic_streambuf<char, std::__ndk1::char_traits<char> >::setp(char*, char*)
FUNC a00c4 8 0 std::__ndk1::basic_streambuf<char, std::__ndk1::char_traits<char> >::imbue(std::__ndk1::locale const&)
FUNC a00cc 8 0 std::__ndk1::basic_streambuf<char, std::__ndk1::char_traits<char> >::setbuf(char*, long)
FUNC a00d4 10 0 std::__ndk1::basic_streambuf<char, std::__ndk1::char_traits<char> >::seekoff(long long, std::__ndk1::ios_base::seekdir, unsigned int)
FUNC a00e4 10 0 std::__ndk1::basic_streambuf<char, std::__ndk1::char_traits<char> >::seekpos(std::__ndk1::fpos<mbstate_t>, unsigned int)
FUNC a00f4 c 0 std::__ndk1::basic_streambuf<char, std::__ndk1::char_traits<char> >::sync()
FUNC a0100 c 0 std::__ndk1::basic_streambuf<char, std::__ndk1::char_traits<char> >::showmanyc()
FUNC a010c d0 0 std::__ndk1::basic_streambuf<char, std::__ndk1::char_traits<char> >::xsgetn(char*, long)
FUNC a01dc c 0 std::__ndk1::basic_streambuf<char, std::__ndk1::char_traits<char> >::underflow()
FUNC a01e8 48 0 std::__ndk1::basic_streambuf<char, std::__ndk1::char_traits<char> >::uflow()
FUNC a0230 c 0 std::__ndk1::basic_streambuf<char, std::__ndk1::char_traits<char> >::pbackfail(int)
FUNC a023c d0 0 std::__ndk1::basic_streambuf<char, std::__ndk1::char_traits<char> >::xsputn(char const*, long)
FUNC a030c c 0 std::__ndk1::basic_streambuf<char, std::__ndk1::char_traits<char> >::overflow(int)
FUNC a0318 5c 0 std::__ndk1::basic_istream<char, std::__ndk1::char_traits<char> >::basic_istream(std::__ndk1::basic_streambuf<char, std::__ndk1::char_traits<char> >*)
FUNC a0374 6c 0 std::__ndk1::basic_istream<char, std::__ndk1::char_traits<char> >::basic_istream(std::__ndk1::basic_streambuf<char, std::__ndk1::char_traits<char> >*)
FUNC a03e0 8 0 std::__ndk1::basic_istream<char, std::__ndk1::char_traits<char> >::~basic_istream()
FUNC a03e8 c 0 std::__ndk1::basic_istream<char, std::__ndk1::char_traits<char> >::~basic_istream()
FUNC a03f4 18 0 {virtual override thunk({virtual offset(0, -24)}, std::__ndk1::basic_istream<char, std::__ndk1::char_traits<char> >::~basic_istream())}
FUNC a040c 30 0 std::__ndk1::basic_istream<char, std::__ndk1::char_traits<char> >::~basic_istream()
FUNC a043c 38 0 {virtual override thunk({virtual offset(0, -24)}, std::__ndk1::basic_istream<char, std::__ndk1::char_traits<char> >::~basic_istream())}
FUNC a0474 6c 0 std::__ndk1::basic_istream<char, std::__ndk1::char_traits<char> >::swap(std::__ndk1::basic_istream<char, std::__ndk1::char_traits<char> >&)
FUNC a04e0 1d8 0 std::__ndk1::basic_istream<char, std::__ndk1::char_traits<char> >::sentry::sentry(std::__ndk1::basic_istream<char, std::__ndk1::char_traits<char> >&, bool)
FUNC a06b8 e4 0 std::__ndk1::basic_ostream<char, std::__ndk1::char_traits<char> >::flush()
FUNC a079c c 0 std::__ndk1::basic_istream<char, std::__ndk1::char_traits<char> >::operator>>(std::__ndk1::basic_istream<char, std::__ndk1::char_traits<char> >& (*)(std::__ndk1::basic_istream<char, std::__ndk1::char_traits<char> >&))
FUNC a07a8 38 0 std::__ndk1::basic_istream<char, std::__ndk1::char_traits<char> >::operator>>(std::__ndk1::basic_ios<char, std::__ndk1::char_traits<char> >& (*)(std::__ndk1::basic_ios<char, std::__ndk1::char_traits<char> >&))
FUNC a07e0 38 0 std::__ndk1::basic_istream<char, std::__ndk1::char_traits<char> >::operator>>(std::__ndk1::ios_base& (*)(std::__ndk1::ios_base&))
FUNC a0818 1b4 0 std::__ndk1::basic_istream<char, std::__ndk1::char_traits<char> >::operator>>(std::__ndk1::basic_streambuf<char, std::__ndk1::char_traits<char> >*)
FUNC a09cc 8 0 std::__ndk1::basic_istream<char, std::__ndk1::char_traits<char> >::operator>>(bool&)
FUNC a09d4 130 0 std::__ndk1::__input_arithmetic[abi:ne190000]<bool, char, std::__ndk1::char_traits<char> >(std::__ndk1::basic_istream<char, std::__ndk1::char_traits<char> >, bool&)
FUNC a0b04 8 0 std::__ndk1::basic_istream<char, std::__ndk1::char_traits<char> >::operator>>(short&)
FUNC a0b0c 170 0 std::__ndk1::__input_arithmetic_with_numeric_limits[abi:ne190000]<short, char, std::__ndk1::char_traits<char> >(std::__ndk1::basic_istream<char, std::__ndk1::char_traits<char> >, short&)
FUNC a0c7c 8 0 std::__ndk1::basic_istream<char, std::__ndk1::char_traits<char> >::operator>>(unsigned short&)
FUNC a0c84 130 0 std::__ndk1::__input_arithmetic[abi:ne190000]<unsigned short, char, std::__ndk1::char_traits<char> >(std::__ndk1::basic_istream<char, std::__ndk1::char_traits<char> >, unsigned short&)
FUNC a0db4 8 0 std::__ndk1::basic_istream<char, std::__ndk1::char_traits<char> >::operator>>(int&)
FUNC a0dbc 174 0 std::__ndk1::__input_arithmetic_with_numeric_limits[abi:ne190000]<int, char, std::__ndk1::char_traits<char> >(std::__ndk1::basic_istream<char, std::__ndk1::char_traits<char> >, int&)
FUNC a0f30 8 0 std::__ndk1::basic_istream<char, std::__ndk1::char_traits<char> >::operator>>(unsigned int&)
FUNC a0f38 130 0 std::__ndk1::__input_arithmetic[abi:ne190000]<unsigned int, char, std::__ndk1::char_traits<char> >(std::__ndk1::basic_istream<char, std::__ndk1::char_traits<char> >, unsigned int&)
FUNC a1068 8 0 std::__ndk1::basic_istream<char, std::__ndk1::char_traits<char> >::operator>>(long&)
FUNC a1070 130 0 std::__ndk1::__input_arithmetic[abi:ne190000]<long, char, std::__ndk1::char_traits<char> >(std::__ndk1::basic_istream<char, std::__ndk1::char_traits<char> >, long&)
FUNC a11a0 8 0 std::__ndk1::basic_istream<char, std::__ndk1::char_traits<char> >::operator>>(unsigned long&)
FUNC a11a8 130 0 std::__ndk1::__input_arithmetic[abi:ne190000]<unsigned long, char, std::__ndk1::char_traits<char> >(std::__ndk1::basic_istream<char, std::__ndk1::char_traits<char> >, unsigned long&)
FUNC a12d8 8 0 std::__ndk1::basic_istream<char, std::__ndk1::char_traits<char> >::operator>>(long long&)
FUNC a12e0 130 0 std::__ndk1::__input_arithmetic[abi:ne190000]<long long, char, std::__ndk1::char_traits<char> >(std::__ndk1::basic_istream<char, std::__ndk1::char_traits<char> >, long long&)
FUNC a1410 8 0 std::__ndk1::basic_istream<char, std::__ndk1::char_traits<char> >::operator>>(unsigned long long&)
FUNC a1418 130 0 std::__ndk1::__input_arithmetic[abi:ne190000]<unsigned long long, char, std::__ndk1::char_traits<char> >(std::__ndk1::basic_istream<char, std::__ndk1::char_traits<char> >, unsigned long long&)
FUNC a1548 8 0 std::__ndk1::basic_istream<char, std::__ndk1::char_traits<char> >::operator>>(float&)
FUNC a1550 130 0 std::__ndk1::__input_arithmetic[abi:ne190000]<float, char, std::__ndk1::char_traits<char> >(std::__ndk1::basic_istream<char, std::__ndk1::char_traits<char> >, float&)
FUNC a1680 8 0 std::__ndk1::basic_istream<char, std::__ndk1::char_traits<char> >::operator>>(double&)
FUNC a1688 130 0 std::__ndk1::__input_arithmetic[abi:ne190000]<double, char, std::__ndk1::char_traits<char> >(std::__ndk1::basic_istream<char, std::__ndk1::char_traits<char> >, double&)
FUNC a17b8 8 0 std::__ndk1::basic_istream<char, std::__ndk1::char_traits<char> >::operator>>(long double&)
FUNC a17c0 130 0 std::__ndk1::__input_arithmetic[abi:ne190000]<long double, char, std::__ndk1::char_traits<char> >(std::__ndk1::basic_istream<char, std::__ndk1::char_traits<char> >, long double&)
FUNC a18f0 8 0 std::__ndk1::basic_istream<char, std::__ndk1::char_traits<char> >::operator>>(void*&)
FUNC a18f8 130 0 std::__ndk1::__input_arithmetic[abi:ne190000]<void*, char, std::__ndk1::char_traits<char> >(std::__ndk1::basic_istream<char, std::__ndk1::char_traits<char> >, void*&)
FUNC a1a28 118 0 std::__ndk1::basic_istream<char, std::__ndk1::char_traits<char> >::get()
FUNC a1b40 3c 0 std::__ndk1::basic_istream<char, std::__ndk1::char_traits<char> >::get(char&)
FUNC a1b7c a4 0 std::__ndk1::basic_istream<char, std::__ndk1::char_traits<char> >::get(char*, long)
FUNC a1c20 1d4 0 std::__ndk1::basic_istream<char, std::__ndk1::char_traits<char> >::get(char*, long, char)
FUNC a1df4 94 0 std::__ndk1::basic_istream<char, std::__ndk1::char_traits<char> >::get(std::__ndk1::basic_streambuf<char, std::__ndk1::char_traits<char> >&)
FUNC a1e88 170 0 std::__ndk1::basic_istream<char, std::__ndk1::char_traits<char> >::get(std::__ndk1::basic_streambuf<char, std::__ndk1::char_traits<char> >&, char)
FUNC a1ff8 a4 0 std::__ndk1::basic_istream<char, std::__ndk1::char_traits<char> >::getline(char*, long)
FUNC a209c 244 0 std::__ndk1::basic_istream<char, std::__ndk1::char_traits<char> >::getline(char*, long, char)
FUNC a22e0 1bc 0 std::__ndk1::basic_istream<char, std::__ndk1::char_traits<char> >::ignore(long, int)
FUNC a249c 100 0 std::__ndk1::basic_istream<char, std::__ndk1::char_traits<char> >::peek()
FUNC a259c f8 0 std::__ndk1::basic_istream<char, std::__ndk1::char_traits<char> >::read(char*, long)
FUNC a2694 150 0 std::__ndk1::basic_istream<char, std::__ndk1::char_traits<char> >::readsome(char*, long)
FUNC a27e4 134 0 std::__ndk1::basic_istream<char, std::__ndk1::char_traits<char> >::putback(char)
FUNC a2918 128 0 std::__ndk1::basic_istream<char, std::__ndk1::char_traits<char> >::unget()
FUNC a2a40 f0 0 std::__ndk1::basic_istream<char, std::__ndk1::char_traits<char> >::sync()
FUNC a2b30 fc 0 std::__ndk1::basic_istream<char, std::__ndk1::char_traits<char> >::tellg()
FUNC a2c2c 110 0 std::__ndk1::basic_istream<char, std::__ndk1::char_traits<char> >::seekg(std::__ndk1::fpos<mbstate_t>)
FUNC a2d3c 110 0 std::__ndk1::basic_istream<char, std::__ndk1::char_traits<char> >::seekg(long long, std::__ndk1::ios_base::seekdir)
FUNC a2e4c 58 0 std::__ndk1::basic_ostream<char, std::__ndk1::char_traits<char> >::basic_ostream(std::__ndk1::basic_streambuf<char, std::__ndk1::char_traits<char> >*)
FUNC a2ea4 6c 0 std::__ndk1::basic_ostream<char, std::__ndk1::char_traits<char> >::basic_ostream(std::__ndk1::basic_streambuf<char, std::__ndk1::char_traits<char> >*)
FUNC a2f10 8 0 std::__ndk1::basic_ostream<char, std::__ndk1::char_traits<char> >::~basic_ostream()
FUNC a2f18 c 0 std::__ndk1::basic_ostream<char, std::__ndk1::char_traits<char> >::~basic_ostream()
FUNC a2f24 18 0 {virtual override thunk({virtual offset(0, -24)}, std::__ndk1::basic_ostream<char, std::__ndk1::char_traits<char> >::~basic_ostream())}
FUNC a2f3c 30 0 std::__ndk1::basic_ostream<char, std::__ndk1::char_traits<char> >::~basic_ostream()
FUNC a2f6c 38 0 {virtual override thunk({virtual offset(0, -24)}, std::__ndk1::basic_ostream<char, std::__ndk1::char_traits<char> >::~basic_ostream())}
FUNC a2fa4 64 0 std::__ndk1::basic_ostream<char, std::__ndk1::char_traits<char> >::swap(std::__ndk1::basic_ostream<char, std::__ndk1::char_traits<char> >&)
FUNC a3008 64 0 std::__ndk1::basic_ostream<char, std::__ndk1::char_traits<char> >::sentry::sentry(std::__ndk1::basic_ostream<char, std::__ndk1::char_traits<char> >&)
FUNC a306c a8 0 std::__ndk1::basic_ostream<char, std::__ndk1::char_traits<char> >::sentry::~sentry()
FUNC a3114 c 0 std::__ndk1::basic_ostream<char, std::__ndk1::char_traits<char> >::operator<<(std::__ndk1::basic_ostream<char, std::__ndk1::char_traits<char> >& (*)(std::__ndk1::basic_ostream<char, std::__ndk1::char_traits<char> >&))
FUNC a3120 38 0 std::__ndk1::basic_ostream<char, std::__ndk1::char_traits<char> >::operator<<(std::__ndk1::basic_ios<char, std::__ndk1::char_traits<char> >& (*)(std::__ndk1::basic_ios<char, std::__ndk1::char_traits<char> >&))
FUNC a3158 38 0 std::__ndk1::basic_ostream<char, std::__ndk1::char_traits<char> >::operator<<(std::__ndk1::ios_base& (*)(std::__ndk1::ios_base&))
FUNC a3190 190 0 std::__ndk1::basic_ostream<char, std::__ndk1::char_traits<char> >::operator<<(bool)
FUNC a3320 1b8 0 std::__ndk1::basic_ostream<char, std::__ndk1::char_traits<char> >::operator<<(short)
FUNC a34d8 190 0 std::__ndk1::basic_ostream<char, std::__ndk1::char_traits<char> >::operator<<(unsigned short)
FUNC a3668 1b8 0 std::__ndk1::basic_ostream<char, std::__ndk1::char_traits<char> >::operator<<(int)
FUNC a3820 190 0 std::__ndk1::basic_ostream<char, std::__ndk1::char_traits<char> >::operator<<(unsigned int)
FUNC a39b0 190 0 std::__ndk1::basic_ostream<char, std::__ndk1::char_traits<char> >::operator<<(long)
FUNC a3b40 190 0 std::__ndk1::basic_ostream<char, std::__ndk1::char_traits<char> >::operator<<(unsigned long)
FUNC a3cd0 190 0 std::__ndk1::basic_ostream<char, std::__ndk1::char_traits<char> >::operator<<(long long)
FUNC a3e60 190 0 std::__ndk1::basic_ostream<char, std::__ndk1::char_traits<char> >::operator<<(unsigned long long)
FUNC a3ff0 198 0 std::__ndk1::basic_ostream<char, std::__ndk1::char_traits<char> >::operator<<(float)
FUNC a4188 198 0 std::__ndk1::basic_ostream<char, std::__ndk1::char_traits<char> >::operator<<(double)
FUNC a4320 190 0 std::__ndk1::basic_ostream<char, std::__ndk1::char_traits<char> >::operator<<(long double)
FUNC a44b0 190 0 std::__ndk1::basic_ostream<char, std::__ndk1::char_traits<char> >::operator<<(void const*)
FUNC a4640 1c8 0 std::__ndk1::basic_ostream<char, std::__ndk1::char_traits<char> >::operator<<(std::__ndk1::basic_streambuf<char, std::__ndk1::char_traits<char> >*)
FUNC a4808 f8 0 std::__ndk1::basic_ostream<char, std::__ndk1::char_traits<char> >::put(char)
FUNC a4900 ec 0 std::__ndk1::basic_ostream<char, std::__ndk1::char_traits<char> >::write(char const*, long)
FUNC a49ec 60 0 std::__ndk1::basic_ostream<char, std::__ndk1::char_traits<char> >::tellp()
FUNC a4a4c c4 0 std::__ndk1::basic_ostream<char, std::__ndk1::char_traits<char> >::seekp(std::__ndk1::fpos<mbstate_t>)
FUNC a4b10 c4 0 std::__ndk1::basic_ostream<char, std::__ndk1::char_traits<char> >::seekp(long long, std::__ndk1::ios_base::seekdir)
FUNC a4bd4 a0 0 std::__ndk1::basic_iostream<char, std::__ndk1::char_traits<char> >::basic_iostream(std::__ndk1::basic_streambuf<char, std::__ndk1::char_traits<char> >*)
FUNC a4c74 88 0 std::__ndk1::basic_iostream<char, std::__ndk1::char_traits<char> >::basic_iostream(std::__ndk1::basic_streambuf<char, std::__ndk1::char_traits<char> >*)
FUNC a4cfc 8 0 std::__ndk1::basic_iostream<char, std::__ndk1::char_traits<char> >::~basic_iostream()
FUNC a4d04 c 0 std::__ndk1::basic_iostream<char, std::__ndk1::char_traits<char> >::~basic_iostream()
FUNC a4d10 c 0 {virtual override thunk({offset(-16)}, std::__ndk1::basic_iostream<char, std::__ndk1::char_traits<char> >::~basic_iostream())}
FUNC a4d1c 18 0 {virtual override thunk({virtual offset(0, -24)}, std::__ndk1::basic_iostream<char, std::__ndk1::char_traits<char> >::~basic_iostream())}
FUNC a4d34 30 0 std::__ndk1::basic_iostream<char, std::__ndk1::char_traits<char> >::~basic_iostream()
FUNC a4d64 30 0 {virtual override thunk({offset(-16)}, std::__ndk1::basic_iostream<char, std::__ndk1::char_traits<char> >::~basic_iostream())}
FUNC a4d94 38 0 {virtual override thunk({virtual offset(0, -24)}, std::__ndk1::basic_iostream<char, std::__ndk1::char_traits<char> >::~basic_iostream())}
FUNC a4dcc 6c 0 std::__ndk1::basic_iostream<char, std::__ndk1::char_traits<char> >::swap(std::__ndk1::basic_iostream<char, std::__ndk1::char_traits<char> >&)
FUNC a4e38 8 0 std::__ndk1::basic_ios<wchar_t, std::__ndk1::char_traits<wchar_t> >::~basic_ios()
FUNC a4e40 2c 0 std::__ndk1::basic_ios<wchar_t, std::__ndk1::char_traits<wchar_t> >::~basic_ios()
FUNC a4e6c 7c 0 std::__ndk1::basic_ios<wchar_t, std::__ndk1::char_traits<wchar_t> >::copyfmt(std::__ndk1::basic_ios<wchar_t, std::__ndk1::char_traits<wchar_t> > const&)
FUNC a4ee8 18 0 std::__ndk1::basic_streambuf<wchar_t, std::__ndk1::char_traits<wchar_t> >::~basic_streambuf()
FUNC a4f00 2c 0 std::__ndk1::basic_streambuf<wchar_t, std::__ndk1::char_traits<wchar_t> >::~basic_streambuf()
FUNC a4f2c 54 0 std::__ndk1::basic_streambuf<wchar_t, std::__ndk1::char_traits<wchar_t> >::pubimbue(std::__ndk1::locale const&)
FUNC a4f80 10 0 std::__ndk1::basic_streambuf<wchar_t, std::__ndk1::char_traits<wchar_t> >::getloc() const
FUNC a4f90 10 0 std::__ndk1::basic_streambuf<wchar_t, std::__ndk1::char_traits<wchar_t> >::pubsetbuf(wchar_t*, long)
FUNC a4fa0 10 0 std::__ndk1::basic_streambuf<wchar_t, std::__ndk1::char_traits<wchar_t> >::pubseekoff(long long, std::__ndk1::ios_base::seekdir, unsigned int)
FUNC a4fb0 10 0 std::__ndk1::basic_streambuf<wchar_t, std::__ndk1::char_traits<wchar_t> >::pubseekpos(std::__ndk1::fpos<mbstate_t>, unsigned int)
FUNC a4fc0 10 0 std::__ndk1::basic_streambuf<wchar_t, std::__ndk1::char_traits<wchar_t> >::pubsync()
FUNC a4fd0 28 0 std::__ndk1::basic_streambuf<wchar_t, std::__ndk1::char_traits<wchar_t> >::in_avail()
FUNC a4ff8 8c 0 std::__ndk1::basic_streambuf<wchar_t, std::__ndk1::char_traits<wchar_t> >::snextc()
FUNC a5084 30 0 std::__ndk1::basic_streambuf<wchar_t, std::__ndk1::char_traits<wchar_t> >::sbumpc()
FUNC a50b4 24 0 std::__ndk1::basic_streambuf<wchar_t, std::__ndk1::char_traits<wchar_t> >::sgetc()
FUNC a50d8 10 0 std::__ndk1::basic_streambuf<wchar_t, std::__ndk1::char_traits<wchar_t> >::sgetn(wchar_t*, long)
FUNC a50e8 38 0 std::__ndk1::basic_streambuf<wchar_t, std::__ndk1::char_traits<wchar_t> >::sputbackc(wchar_t)
FUNC a5120 34 0 std::__ndk1::basic_streambuf<wchar_t, std::__ndk1::char_traits<wchar_t> >::sungetc()
FUNC a5154 34 0 std::__ndk1::basic_streambuf<wchar_t, std::__ndk1::char_traits<wchar_t> >::sputc(wchar_t)
FUNC a5188 10 0 std::__ndk1::basic_streambuf<wchar_t, std::__ndk1::char_traits<wchar_t> >::sputn(wchar_t const*, long)
FUNC a5198 44 0 std::__ndk1::basic_streambuf<wchar_t, std::__ndk1::char_traits<wchar_t> >::basic_streambuf()
FUNC a51dc 58 0 std::__ndk1::basic_streambuf<wchar_t, std::__ndk1::char_traits<wchar_t> >::basic_streambuf(std::__ndk1::basic_streambuf<wchar_t, std::__ndk1::char_traits<wchar_t> > const&)
FUNC a5234 50 0 std::__ndk1::basic_streambuf<wchar_t, std::__ndk1::char_traits<wchar_t> >::operator=(std::__ndk1::basic_streambuf<wchar_t, std::__ndk1::char_traits<wchar_t> > const&)
FUNC a5284 bc 0 std::__ndk1::basic_streambuf<wchar_t, std::__ndk1::char_traits<wchar_t> >::swap(std::__ndk1::basic_streambuf<wchar_t, std::__ndk1::char_traits<wchar_t> >&)
FUNC a5340 14 0 std::__ndk1::basic_streambuf<wchar_t, std::__ndk1::char_traits<wchar_t> >::gbump(int)
FUNC a5354 10 0 std::__ndk1::basic_streambuf<wchar_t, std::__ndk1::char_traits<wchar_t> >::setg(wchar_t*, wchar_t*, wchar_t*)
FUNC a5364 14 0 std::__ndk1::basic_streambuf<wchar_t, std::__ndk1::char_traits<wchar_t> >::pbump(int)
FUNC a5378 10 0 std::__ndk1::basic_streambuf<wchar_t, std::__ndk1::char_traits<wchar_t> >::setp(wchar_t*, wchar_t*)
FUNC a5388 8 0 std::__ndk1::basic_streambuf<wchar_t, std::__ndk1::char_traits<wchar_t> >::imbue(std::__ndk1::locale const&)
FUNC a5390 8 0 std::__ndk1::basic_streambuf<wchar_t, std::__ndk1::char_traits<wchar_t> >::setbuf(wchar_t*, long)
FUNC a5398 10 0 std::__ndk1::basic_streambuf<wchar_t, std::__ndk1::char_traits<wchar_t> >::seekoff(long long, std::__ndk1::ios_base::seekdir, unsigned int)
FUNC a53a8 10 0 std::__ndk1::basic_streambuf<wchar_t, std::__ndk1::char_traits<wchar_t> >::seekpos(std::__ndk1::fpos<mbstate_t>, unsigned int)
FUNC a53b8 c 0 std::__ndk1::basic_streambuf<wchar_t, std::__ndk1::char_traits<wchar_t> >::sync()
FUNC a53c4 c 0 std::__ndk1::basic_streambuf<wchar_t, std::__ndk1::char_traits<wchar_t> >::showmanyc()
FUNC a53d0 d4 0 std::__ndk1::basic_streambuf<wchar_t, std::__ndk1::char_traits<wchar_t> >::xsgetn(wchar_t*, long)
FUNC a54a4 c 0 std::__ndk1::basic_streambuf<wchar_t, std::__ndk1::char_traits<wchar_t> >::underflow()
FUNC a54b0 44 0 std::__ndk1::basic_streambuf<wchar_t, std::__ndk1::char_traits<wchar_t> >::uflow()
FUNC a54f4 c 0 std::__ndk1::basic_streambuf<wchar_t, std::__ndk1::char_traits<wchar_t> >::pbackfail(unsigned int)
FUNC a5500 d8 0 std::__ndk1::basic_streambuf<wchar_t, std::__ndk1::char_traits<wchar_t> >::xsputn(wchar_t const*, long)
FUNC a55d8 c 0 std::__ndk1::basic_streambuf<wchar_t, std::__ndk1::char_traits<wchar_t> >::overflow(unsigned int)
FUNC a55e4 5c 0 std::__ndk1::basic_istream<wchar_t, std::__ndk1::char_traits<wchar_t> >::basic_istream(std::__ndk1::basic_streambuf<wchar_t, std::__ndk1::char_traits<wchar_t> >*)
FUNC a5640 6c 0 std::__ndk1::basic_istream<wchar_t, std::__ndk1::char_traits<wchar_t> >::basic_istream(std::__ndk1::basic_streambuf<wchar_t, std::__ndk1::char_traits<wchar_t> >*)
FUNC a56ac 8 0 std::__ndk1::basic_istream<wchar_t, std::__ndk1::char_traits<wchar_t> >::~basic_istream()
FUNC a56b4 c 0 std::__ndk1::basic_istream<wchar_t, std::__ndk1::char_traits<wchar_t> >::~basic_istream()
FUNC a56c0 18 0 {virtual override thunk({virtual offset(0, -24)}, std::__ndk1::basic_istream<wchar_t, std::__ndk1::char_traits<wchar_t> >::~basic_istream())}
FUNC a56d8 30 0 std::__ndk1::basic_istream<wchar_t, std::__ndk1::char_traits<wchar_t> >::~basic_istream()
FUNC a5708 38 0 {virtual override thunk({virtual offset(0, -24)}, std::__ndk1::basic_istream<wchar_t, std::__ndk1::char_traits<wchar_t> >::~basic_istream())}
FUNC a5740 6c 0 std::__ndk1::basic_istream<wchar_t, std::__ndk1::char_traits<wchar_t> >::swap(std::__ndk1::basic_istream<wchar_t, std::__ndk1::char_traits<wchar_t> >&)
FUNC a57ac 1f0 0 std::__ndk1::basic_istream<wchar_t, std::__ndk1::char_traits<wchar_t> >::sentry::sentry(std::__ndk1::basic_istream<wchar_t, std::__ndk1::char_traits<wchar_t> >&, bool)
FUNC a599c e4 0 std::__ndk1::basic_ostream<wchar_t, std::__ndk1::char_traits<wchar_t> >::flush()
FUNC a5a80 c 0 std::__ndk1::basic_istream<wchar_t, std::__ndk1::char_traits<wchar_t> >::operator>>(std::__ndk1::basic_istream<wchar_t, std::__ndk1::char_traits<wchar_t> >& (*)(std::__ndk1::basic_istream<wchar_t, std::__ndk1::char_traits<wchar_t> >&))
FUNC a5a8c 38 0 std::__ndk1::basic_istream<wchar_t, std::__ndk1::char_traits<wchar_t> >::operator>>(std::__ndk1::basic_ios<wchar_t, std::__ndk1::char_traits<wchar_t> >& (*)(std::__ndk1::basic_ios<wchar_t, std::__ndk1::char_traits<wchar_t> >&))
FUNC a5ac4 38 0 std::__ndk1::basic_istream<wchar_t, std::__ndk1::char_traits<wchar_t> >::operator>>(std::__ndk1::ios_base& (*)(std::__ndk1::ios_base&))
FUNC a5afc 1b0 0 std::__ndk1::basic_istream<wchar_t, std::__ndk1::char_traits<wchar_t> >::operator>>(std::__ndk1::basic_streambuf<wchar_t, std::__ndk1::char_traits<wchar_t> >*)
FUNC a5cac 8 0 std::__ndk1::basic_istream<wchar_t, std::__ndk1::char_traits<wchar_t> >::operator>>(bool&)
FUNC a5cb4 130 0 std::__ndk1::__input_arithmetic[abi:ne190000]<bool, wchar_t, std::__ndk1::char_traits<wchar_t> >(std::__ndk1::basic_istream<wchar_t, std::__ndk1::char_traits<wchar_t> >, bool&)
FUNC a5de4 8 0 std::__ndk1::basic_istream<wchar_t, std::__ndk1::char_traits<wchar_t> >::operator>>(short&)
FUNC a5dec 170 0 std::__ndk1::__input_arithmetic_with_numeric_limits[abi:ne190000]<short, wchar_t, std::__ndk1::char_traits<wchar_t> >(std::__ndk1::basic_istream<wchar_t, std::__ndk1::char_traits<wchar_t> >, short&)
FUNC a5f5c 8 0 std::__ndk1::basic_istream<wchar_t, std::__ndk1::char_traits<wchar_t> >::operator>>(unsigned short&)
FUNC a5f64 130 0 std::__ndk1::__input_arithmetic[abi:ne190000]<unsigned short, wchar_t, std::__ndk1::char_traits<wchar_t> >(std::__ndk1::basic_istream<wchar_t, std::__ndk1::char_traits<wchar_t> >, unsigned short&)
FUNC a6094 8 0 std::__ndk1::basic_istream<wchar_t, std::__ndk1::char_traits<wchar_t> >::operator>>(int&)
FUNC a609c 174 0 std::__ndk1::__input_arithmetic_with_numeric_limits[abi:ne190000]<int, wchar_t, std::__ndk1::char_traits<wchar_t> >(std::__ndk1::basic_istream<wchar_t, std::__ndk1::char_traits<wchar_t> >, int&)
FUNC a6210 8 0 std::__ndk1::basic_istream<wchar_t, std::__ndk1::char_traits<wchar_t> >::operator>>(unsigned int&)
FUNC a6218 130 0 std::__ndk1::__input_arithmetic[abi:ne190000]<unsigned int, wchar_t, std::__ndk1::char_traits<wchar_t> >(std::__ndk1::basic_istream<wchar_t, std::__ndk1::char_traits<wchar_t> >, unsigned int&)
FUNC a6348 8 0 std::__ndk1::basic_istream<wchar_t, std::__ndk1::char_traits<wchar_t> >::operator>>(long&)
FUNC a6350 130 0 std::__ndk1::__input_arithmetic[abi:ne190000]<long, wchar_t, std::__ndk1::char_traits<wchar_t> >(std::__ndk1::basic_istream<wchar_t, std::__ndk1::char_traits<wchar_t> >, long&)
FUNC a6480 8 0 std::__ndk1::basic_istream<wchar_t, std::__ndk1::char_traits<wchar_t> >::operator>>(unsigned long&)
FUNC a6488 130 0 std::__ndk1::__input_arithmetic[abi:ne190000]<unsigned long, wchar_t, std::__ndk1::char_traits<wchar_t> >(std::__ndk1::basic_istream<wchar_t, std::__ndk1::char_traits<wchar_t> >, unsigned long&)
FUNC a65b8 8 0 std::__ndk1::basic_istream<wchar_t, std::__ndk1::char_traits<wchar_t> >::operator>>(long long&)
FUNC a65c0 130 0 std::__ndk1::__input_arithmetic[abi:ne190000]<long long, wchar_t, std::__ndk1::char_traits<wchar_t> >(std::__ndk1::basic_istream<wchar_t, std::__ndk1::char_traits<wchar_t> >, long long&)
FUNC a66f0 8 0 std::__ndk1::basic_istream<wchar_t, std::__ndk1::char_traits<wchar_t> >::operator>>(unsigned long long&)
FUNC a66f8 130 0 std::__ndk1::__input_arithmetic[abi:ne190000]<unsigned long long, wchar_t, std::__ndk1::char_traits<wchar_t> >(std::__ndk1::basic_istream<wchar_t, std::__ndk1::char_traits<wchar_t> >, unsigned long long&)
FUNC a6828 8 0 std::__ndk1::basic_istream<wchar_t, std::__ndk1::char_traits<wchar_t> >::operator>>(float&)
FUNC a6830 130 0 std::__ndk1::__input_arithmetic[abi:ne190000]<float, wchar_t, std::__ndk1::char_traits<wchar_t> >(std::__ndk1::basic_istream<wchar_t, std::__ndk1::char_traits<wchar_t> >, float&)
FUNC a6960 8 0 std::__ndk1::basic_istream<wchar_t, std::__ndk1::char_traits<wchar_t> >::operator>>(double&)
FUNC a6968 130 0 std::__ndk1::__input_arithmetic[abi:ne190000]<double, wchar_t, std::__ndk1::char_traits<wchar_t> >(std::__ndk1::basic_istream<wchar_t, std::__ndk1::char_traits<wchar_t> >, double&)
FUNC a6a98 8 0 std::__ndk1::basic_istream<wchar_t, std::__ndk1::char_traits<wchar_t> >::operator>>(long double&)
FUNC a6aa0 130 0 std::__ndk1::__input_arithmetic[abi:ne190000]<long double, wchar_t, std::__ndk1::char_traits<wchar_t> >(std::__ndk1::basic_istream<wchar_t, std::__ndk1::char_traits<wchar_t> >, long double&)
FUNC a6bd0 8 0 std::__ndk1::basic_istream<wchar_t, std::__ndk1::char_traits<wchar_t> >::operator>>(void*&)
FUNC a6bd8 130 0 std::__ndk1::__input_arithmetic[abi:ne190000]<void*, wchar_t, std::__ndk1::char_traits<wchar_t> >(std::__ndk1::basic_istream<wchar_t, std::__ndk1::char_traits<wchar_t> >, void*&)
FUNC a6d08 118 0 std::__ndk1::basic_istream<wchar_t, std::__ndk1::char_traits<wchar_t> >::get()
FUNC a6e20 3c 0 std::__ndk1::basic_istream<wchar_t, std::__ndk1::char_traits<wchar_t> >::get(wchar_t&)
FUNC a6e5c a4 0 std::__ndk1::basic_istream<wchar_t, std::__ndk1::char_traits<wchar_t> >::get(wchar_t*, long)
FUNC a6f00 1d0 0 std::__ndk1::basic_istream<wchar_t, std::__ndk1::char_traits<wchar_t> >::get(wchar_t*, long, wchar_t)
FUNC a70d0 94 0 std::__ndk1::basic_istream<wchar_t, std::__ndk1::char_traits<wchar_t> >::get(std::__ndk1::basic_streambuf<wchar_t, std::__ndk1::char_traits<wchar_t> >&)
FUNC a7164 164 0 std::__ndk1::basic_istream<wchar_t, std::__ndk1::char_traits<wchar_t> >::get(std::__ndk1::basic_streambuf<wchar_t, std::__ndk1::char_traits<wchar_t> >&, wchar_t)
FUNC a72c8 a4 0 std::__ndk1::basic_istream<wchar_t, std::__ndk1::char_traits<wchar_t> >::getline(wchar_t*, long)
FUNC a736c 23c 0 std::__ndk1::basic_istream<wchar_t, std::__ndk1::char_traits<wchar_t> >::getline(wchar_t*, long, wchar_t)
FUNC a75a8 1b4 0 std::__ndk1::basic_istream<wchar_t, std::__ndk1::char_traits<wchar_t> >::ignore(long, unsigned int)
FUNC a775c 100 0 std::__ndk1::basic_istream<wchar_t, std::__ndk1::char_traits<wchar_t> >::peek()
FUNC a785c f8 0 std::__ndk1::basic_istream<wchar_t, std::__ndk1::char_traits<wchar_t> >::read(wchar_t*, long)
FUNC a7954 154 0 std::__ndk1::basic_istream<wchar_t, std::__ndk1::char_traits<wchar_t> >::readsome(wchar_t*, long)
FUNC a7aa8 140 0 std::__ndk1::basic_istream<wchar_t, std::__ndk1::char_traits<wchar_t> >::putback(wchar_t)
FUNC a7be8 134 0 std::__ndk1::basic_istream<wchar_t, std::__ndk1::char_traits<wchar_t> >::unget()
FUNC a7d1c f0 0 std::__ndk1::basic_istream<wchar_t, std::__ndk1::char_traits<wchar_t> >::sync()
FUNC a7e0c fc 0 std::__ndk1::basic_istream<wchar_t, std::__ndk1::char_traits<wchar_t> >::tellg()
FUNC a7f08 110 0 std::__ndk1::basic_istream<wchar_t, std::__ndk1::char_traits<wchar_t> >::seekg(std::__ndk1::fpos<mbstate_t>)
FUNC a8018 110 0 std::__ndk1::basic_istream<wchar_t, std::__ndk1::char_traits<wchar_t> >::seekg(long long, std::__ndk1::ios_base::seekdir)
FUNC a8128 58 0 std::__ndk1::basic_ostream<wchar_t, std::__ndk1::char_traits<wchar_t> >::basic_ostream(std::__ndk1::basic_streambuf<wchar_t, std::__ndk1::char_traits<wchar_t> >*)
FUNC a8180 6c 0 std::__ndk1::basic_ostream<wchar_t, std::__ndk1::char_traits<wchar_t> >::basic_ostream(std::__ndk1::basic_streambuf<wchar_t, std::__ndk1::char_traits<wchar_t> >*)
FUNC a81ec 8 0 std::__ndk1::basic_ostream<wchar_t, std::__ndk1::char_traits<wchar_t> >::~basic_ostream()
FUNC a81f4 c 0 std::__ndk1::basic_ostream<wchar_t, std::__ndk1::char_traits<wchar_t> >::~basic_ostream()
FUNC a8200 18 0 {virtual override thunk({virtual offset(0, -24)}, std::__ndk1::basic_ostream<wchar_t, std::__ndk1::char_traits<wchar_t> >::~basic_ostream())}
FUNC a8218 30 0 std::__ndk1::basic_ostream<wchar_t, std::__ndk1::char_traits<wchar_t> >::~basic_ostream()
FUNC a8248 38 0 {virtual override thunk({virtual offset(0, -24)}, std::__ndk1::basic_ostream<wchar_t, std::__ndk1::char_traits<wchar_t> >::~basic_ostream())}
FUNC a8280 64 0 std::__ndk1::basic_ostream<wchar_t, std::__ndk1::char_traits<wchar_t> >::swap(std::__ndk1::basic_ostream<wchar_t, std::__ndk1::char_traits<wchar_t> >&)
FUNC a82e4 64 0 std::__ndk1::basic_ostream<wchar_t, std::__ndk1::char_traits<wchar_t> >::sentry::sentry(std::__ndk1::basic_ostream<wchar_t, std::__ndk1::char_traits<wchar_t> >&)
FUNC a8348 a8 0 std::__ndk1::basic_ostream<wchar_t, std::__ndk1::char_traits<wchar_t> >::sentry::~sentry()
FUNC a83f0 c 0 std::__ndk1::basic_ostream<wchar_t, std::__ndk1::char_traits<wchar_t> >::operator<<(std::__ndk1::basic_ostream<wchar_t, std::__ndk1::char_traits<wchar_t> >& (*)(std::__ndk1::basic_ostream<wchar_t, std::__ndk1::char_traits<wchar_t> >&))
FUNC a83fc 38 0 std::__ndk1::basic_ostream<wchar_t, std::__ndk1::char_traits<wchar_t> >::operator<<(std::__ndk1::basic_ios<wchar_t, std::__ndk1::char_traits<wchar_t> >& (*)(std::__ndk1::basic_ios<wchar_t, std::__ndk1::char_traits<wchar_t> >&))
FUNC a8434 38 0 std::__ndk1::basic_ostream<wchar_t, std::__ndk1::char_traits<wchar_t> >::operator<<(std::__ndk1::ios_base& (*)(std::__ndk1::ios_base&))
FUNC a846c 190 0 std::__ndk1::basic_ostream<wchar_t, std::__ndk1::char_traits<wchar_t> >::operator<<(bool)
FUNC a85fc 1b8 0 std::__ndk1::basic_ostream<wchar_t, std::__ndk1::char_traits<wchar_t> >::operator<<(short)
FUNC a87b4 190 0 std::__ndk1::basic_ostream<wchar_t, std::__ndk1::char_traits<wchar_t> >::operator<<(unsigned short)
FUNC a8944 1b8 0 std::__ndk1::basic_ostream<wchar_t, std::__ndk1::char_traits<wchar_t> >::operator<<(int)
FUNC a8afc 190 0 std::__ndk1::basic_ostream<wchar_t, std::__ndk1::char_traits<wchar_t> >::operator<<(unsigned int)
FUNC a8c8c 190 0 std::__ndk1::basic_ostream<wchar_t, std::__ndk1::char_traits<wchar_t> >::operator<<(long)
FUNC a8e1c 190 0 std::__ndk1::basic_ostream<wchar_t, std::__ndk1::char_traits<wchar_t> >::operator<<(unsigned long)
FUNC a8fac 190 0 std::__ndk1::basic_ostream<wchar_t, std::__ndk1::char_traits<wchar_t> >::operator<<(long long)
FUNC a913c 190 0 std::__ndk1::basic_ostream<wchar_t, std::__ndk1::char_traits<wchar_t> >::operator<<(unsigned long long)
FUNC a92cc 198 0 std::__ndk1::basic_ostream<wchar_t, std::__ndk1::char_traits<wchar_t> >::operator<<(float)
FUNC a9464 198 0 std::__ndk1::basic_ostream<wchar_t, std::__ndk1::char_traits<wchar_t> >::operator<<(double)
FUNC a95fc 190 0 std::__ndk1::basic_ostream<wchar_t, std::__ndk1::char_traits<wchar_t> >::operator<<(long double)
FUNC a978c 190 0 std::__ndk1::basic_ostream<wchar_t, std::__ndk1::char_traits<wchar_t> >::operator<<(void const*)
FUNC a991c 1cc 0 std::__ndk1::basic_ostream<wchar_t, std::__ndk1::char_traits<wchar_t> >::operator<<(std::__ndk1::basic_streambuf<wchar_t, std::__ndk1::char_traits<wchar_t> >*)
FUNC a9ae8 100 0 std::__ndk1::basic_ostream<wchar_t, std::__ndk1::char_traits<wchar_t> >::put(wchar_t)
FUNC a9be8 ec 0 std::__ndk1::basic_ostream<wchar_t, std::__ndk1::char_traits<wchar_t> >::write(wchar_t const*, long)
FUNC a9cd4 60 0 std::__ndk1::basic_ostream<wchar_t, std::__ndk1::char_traits<wchar_t> >::tellp()
FUNC a9d34 c4 0 std::__ndk1::basic_ostream<wchar_t, std::__ndk1::char_traits<wchar_t> >::seekp(std::__ndk1::fpos<mbstate_t>)
FUNC a9df8 c4 0 std::__ndk1::basic_ostream<wchar_t, std::__ndk1::char_traits<wchar_t> >::seekp(long long, std::__ndk1::ios_base::seekdir)
FUNC a9ebc ac 0 std::__ndk1::basic_stringbuf<char, std::__ndk1::char_traits<char>, std::__ndk1::allocator<char> >::basic_stringbuf(std::__ndk1::basic_stringbuf<char, std::__ndk1::char_traits<char>, std::__ndk1::allocator<char> >&&)
FUNC a9f68 1d4 0 std::__ndk1::basic_stringbuf<char, std::__ndk1::char_traits<char>, std::__ndk1::allocator<char> >::__move_init[abi:ne190000](std::__ndk1::basic_stringbuf<char, std::__ndk1::char_traits<char>, std::__ndk1::allocator<char> >&&)
FUNC aa13c 1fc 0 std::__ndk1::basic_stringbuf<char, std::__ndk1::char_traits<char>, std::__ndk1::allocator<char> >::operator=(std::__ndk1::basic_stringbuf<char, std::__ndk1::char_traits<char>, std::__ndk1::allocator<char> >&&)
FUNC aa338 2d8 0 std::__ndk1::basic_stringbuf<char, std::__ndk1::char_traits<char>, std::__ndk1::allocator<char> >::swap(std::__ndk1::basic_stringbuf<char, std::__ndk1::char_traits<char>, std::__ndk1::allocator<char> >&)
FUNC aa610 234 0 std::__ndk1::basic_stringbuf<char, std::__ndk1::char_traits<char>, std::__ndk1::allocator<char> >::str() const
FUNC aa844 8c 0 std::__ndk1::basic_stringbuf<char, std::__ndk1::char_traits<char>, std::__ndk1::allocator<char> >::str(std::__ndk1::basic_string<char, std::__ndk1::char_traits<char>, std::__ndk1::allocator<char> > const&)
FUNC aa8d0 54 0 std::__ndk1::basic_stringbuf<char, std::__ndk1::char_traits<char>, std::__ndk1::allocator<char> >::underflow()
FUNC aa924 74 0 std::__ndk1::basic_stringbuf<char, std::__ndk1::char_traits<char>, std::__ndk1::allocator<char> >::pbackfail(int)
FUNC aa998 1b8 0 std::__ndk1::basic_stringbuf<char, std::__ndk1::char_traits<char>, std::__ndk1::allocator<char> >::overflow(int)
FUNC aab50 f8 0 std::__ndk1::basic_stringbuf<char, std::__ndk1::char_traits<char>, std::__ndk1::allocator<char> >::seekoff(long long, std::__ndk1::ios_base::seekdir, unsigned int)
FUNC aac48 8c 0 std::__ndk1::basic_stringstream<char, std::__ndk1::char_traits<char>, std::__ndk1::allocator<char> >::operator=(std::__ndk1::basic_stringstream<char, std::__ndk1::char_traits<char>, std::__ndk1::allocator<char> >&&)
FUNC aacd4 90 0 std::__ndk1::basic_ostringstream<char, std::__ndk1::char_traits<char>, std::__ndk1::allocator<char> >::operator=(std::__ndk1::basic_ostringstream<char, std::__ndk1::char_traits<char>, std::__ndk1::allocator<char> >&&)
FUNC aad64 8c 0 std::__ndk1::basic_istringstream<char, std::__ndk1::char_traits<char>, std::__ndk1::allocator<char> >::operator=(std::__ndk1::basic_istringstream<char, std::__ndk1::char_traits<char>, std::__ndk1::allocator<char> >&&)
FUNC aadf0 b0 0 std::__ndk1::basic_ifstream<char, std::__ndk1::char_traits<char> >::open(char const*, unsigned int)
FUNC aaea0 a4 0 std::__ndk1::basic_filebuf<char, std::__ndk1::char_traits<char> >::open(char const*, unsigned int)
FUNC aaf44 bc 0 std::__ndk1::basic_ifstream<char, std::__ndk1::char_traits<char> >::open(std::__ndk1::basic_string<char, std::__ndk1::char_traits<char>, std::__ndk1::allocator<char> > const&, unsigned int)
FUNC ab000 b0 0 std::__ndk1::basic_ofstream<char, std::__ndk1::char_traits<char> >::open(char const*, unsigned int)
FUNC ab0b0 bc 0 std::__ndk1::basic_ofstream<char, std::__ndk1::char_traits<char> >::open(std::__ndk1::basic_string<char, std::__ndk1::char_traits<char>, std::__ndk1::allocator<char> > const&, unsigned int)
FUNC ab16c 124 0 std::__ndk1::basic_filebuf<char, std::__ndk1::char_traits<char> >::basic_filebuf()
FUNC ab290 194 0 std::__ndk1::basic_filebuf<char, std::__ndk1::char_traits<char> >::basic_filebuf(std::__ndk1::basic_filebuf<char, std::__ndk1::char_traits<char> >&&)
FUNC ab424 d4 0 std::__ndk1::basic_filebuf<char, std::__ndk1::char_traits<char> >::~basic_filebuf()
FUNC ab4f8 8c 0 std::__ndk1::basic_filebuf<char, std::__ndk1::char_traits<char> >::close()
FUNC ab584 2c 0 std::__ndk1::basic_filebuf<char, std::__ndk1::char_traits<char> >::~basic_filebuf()
FUNC ab5b0 2fc 0 std::__ndk1::basic_filebuf<char, std::__ndk1::char_traits<char> >::swap(std::__ndk1::basic_filebuf<char, std::__ndk1::char_traits<char> >&)
FUNC ab8ac 134 0 std::__ndk1::basic_filebuf<char, std::__ndk1::char_traits<char> >::__make_mdstring(unsigned int)
FUNC ab9e0 24c 0 std::__ndk1::basic_filebuf<char, std::__ndk1::char_traits<char> >::underflow()
FUNC abc2c 58 0 std::__ndk1::basic_filebuf<char, std::__ndk1::char_traits<char> >::__read_mode()
FUNC abc84 38 0 std::__ndk1::__throw_bad_cast[abi:ne190000]()
FUNC abcbc 64 0 std::__ndk1::basic_filebuf<char, std::__ndk1::char_traits<char> >::pbackfail(int)
FUNC abd20 1ec 0 std::__ndk1::basic_filebuf<char, std::__ndk1::char_traits<char> >::overflow(int)
FUNC abf0c 6c 0 std::__ndk1::basic_filebuf<char, std::__ndk1::char_traits<char> >::__write_mode()
FUNC abf78 108 0 std::__ndk1::basic_filebuf<char, std::__ndk1::char_traits<char> >::setbuf(char*, long)
FUNC ac080 cc 0 std::__ndk1::basic_filebuf<char, std::__ndk1::char_traits<char> >::seekoff(long long, std::__ndk1::ios_base::seekdir, unsigned int)
FUNC ac14c 78 0 std::__ndk1::basic_filebuf<char, std::__ndk1::char_traits<char> >::seekpos(std::__ndk1::fpos<mbstate_t>, unsigned int)
FUNC ac1c4 1c4 0 std::__ndk1::basic_filebuf<char, std::__ndk1::char_traits<char> >::sync()
FUNC ac388 f8 0 std::__ndk1::basic_filebuf<char, std::__ndk1::char_traits<char> >::imbue(std::__ndk1::locale const&)
FUNC ac480 44 0 std::__ndk1::basic_ifstream<char, std::__ndk1::char_traits<char> >::~basic_ifstream()
FUNC ac4c4 50 0 std::__ndk1::basic_ifstream<char, std::__ndk1::char_traits<char> >::~basic_ifstream()
FUNC ac514 50 0 {virtual override thunk({virtual offset(0, -24)}, std::__ndk1::basic_ifstream<char, std::__ndk1::char_traits<char> >::~basic_ifstream())}
FUNC ac564 5c 0 {virtual override thunk({virtual offset(0, -24)}, std::__ndk1::basic_ifstream<char, std::__ndk1::char_traits<char> >::~basic_ifstream())}
FUNC ac5c0 44 0 std::__ndk1::basic_ofstream<char, std::__ndk1::char_traits<char> >::~basic_ofstream()
FUNC ac604 50 0 std::__ndk1::basic_ofstream<char, std::__ndk1::char_traits<char> >::~basic_ofstream()
FUNC ac654 50 0 {virtual override thunk({virtual offset(0, -24)}, std::__ndk1::basic_ofstream<char, std::__ndk1::char_traits<char> >::~basic_ofstream())}
FUNC ac6a4 5c 0 {virtual override thunk({virtual offset(0, -24)}, std::__ndk1::basic_ofstream<char, std::__ndk1::char_traits<char> >::~basic_ofstream())}
FUNC ac700 60 0 std::__ndk1::basic_stringbuf<char, std::__ndk1::char_traits<char>, std::__ndk1::allocator<char> >::~basic_stringbuf()
FUNC ac760 60 0 std::__ndk1::basic_stringbuf<char, std::__ndk1::char_traits<char>, std::__ndk1::allocator<char> >::~basic_stringbuf()
FUNC ac7c0 18 0 std::__ndk1::basic_stringbuf<char, std::__ndk1::char_traits<char>, std::__ndk1::allocator<char> >::seekpos(std::__ndk1::fpos<mbstate_t>, unsigned int)
FUNC ac7d8 88 0 std::__ndk1::basic_stringstream<char, std::__ndk1::char_traits<char>, std::__ndk1::allocator<char> >::~basic_stringstream()
FUNC ac860 80 0 {virtual override thunk({offset(-16)}, std::__ndk1::basic_stringstream<char, std::__ndk1::char_traits<char>, std::__ndk1::allocator<char> >::~basic_stringstream())}
FUNC ac8e0 94 0 {virtual override thunk({offset(-16)}, std::__ndk1::basic_stringstream<char, std::__ndk1::char_traits<char>, std::__ndk1::allocator<char> >::~basic_stringstream())}
FUNC ac974 88 0 {virtual override thunk({virtual offset(0, -24)}, std::__ndk1::basic_stringstream<char, std::__ndk1::char_traits<char>, std::__ndk1::allocator<char> >::~basic_stringstream())}
FUNC ac9fc 90 0 {virtual override thunk({virtual offset(0, -24)}, std::__ndk1::basic_stringstream<char, std::__ndk1::char_traits<char>, std::__ndk1::allocator<char> >::~basic_stringstream())}
FUNC aca8c 78 0 std::__ndk1::basic_ostringstream<char, std::__ndk1::char_traits<char>, std::__ndk1::allocator<char> >::~basic_ostringstream()
FUNC acb04 80 0 std::__ndk1::basic_ostringstream<char, std::__ndk1::char_traits<char>, std::__ndk1::allocator<char> >::~basic_ostringstream()
FUNC acb84 80 0 {virtual override thunk({virtual offset(0, -24)}, std::__ndk1::basic_ostringstream<char, std::__ndk1::char_traits<char>, std::__ndk1::allocator<char> >::~basic_ostringstream())}
FUNC acc04 88 0 {virtual override thunk({virtual offset(0, -24)}, std::__ndk1::basic_ostringstream<char, std::__ndk1::char_traits<char>, std::__ndk1::allocator<char> >::~basic_ostringstream())}
FUNC acc8c 7c 0 std::__ndk1::basic_istringstream<char, std::__ndk1::char_traits<char>, std::__ndk1::allocator<char> >::~basic_istringstream()
FUNC acd08 84 0 std::__ndk1::basic_istringstream<char, std::__ndk1::char_traits<char>, std::__ndk1::allocator<char> >::~basic_istringstream()
FUNC acd8c 84 0 {virtual override thunk({virtual offset(0, -24)}, std::__ndk1::basic_istringstream<char, std::__ndk1::char_traits<char>, std::__ndk1::allocator<char> >::~basic_istringstream())}
FUNC ace10 8c 0 {virtual override thunk({virtual offset(0, -24)}, std::__ndk1::basic_istringstream<char, std::__ndk1::char_traits<char>, std::__ndk1::allocator<char> >::~basic_istringstream())}
FUNC ace9c 8 0 std::__ndk1::collate<char>::~collate()
FUNC acea4 2c 0 std::__ndk1::collate<char>::~collate()
FUNC aced0 64 0 std::__ndk1::collate<char>::do_compare(char const*, char const*, char const*, char const*) const
FUNC acf34 bc 0 std::__ndk1::collate<char>::do_transform(char const*, char const*) const
FUNC acff0 38 0 std::__ndk1::collate<char>::do_hash(char const*, char const*) const
FUNC ad028 8 0 std::__ndk1::collate<wchar_t>::~collate()
FUNC ad030 2c 0 std::__ndk1::collate<wchar_t>::~collate()
FUNC ad05c 58 0 std::__ndk1::collate<wchar_t>::do_compare(wchar_t const*, wchar_t const*, wchar_t const*, wchar_t const*) const
FUNC ad0b4 d4 0 std::__ndk1::collate<wchar_t>::do_transform(wchar_t const*, wchar_t const*) const
FUNC ad188 38 0 std::__ndk1::collate<wchar_t>::do_hash(wchar_t const*, wchar_t const*) const
FUNC ad1c0 28c 0 std::__ndk1::num_get<char, std::__ndk1::istreambuf_iterator<char, std::__ndk1::char_traits<char> > >::do_get(std::__ndk1::istreambuf_iterator<char, std::__ndk1::char_traits<char> >, std::__ndk1::istreambuf_iterator<char, std::__ndk1::char_traits<char> >, std::__ndk1::ios_base&, unsigned int&, bool&) const
FUNC ad44c 46c 0 std::__ndk1::__scan_keyword[abi:ne190000]<std::__ndk1::istreambuf_iterator<char, std::__ndk1::char_traits<char> >, std::__ndk1::basic_string<char, std::__ndk1::char_traits, std::__ndk1::allocator<char> > const*, std::__ndk1::ctype<char> >(std::__ndk1::istreambuf_iterator<char, std::__ndk1::char_traits<char> >&, std::__ndk1::basic_string<char, std::__ndk1::char_traits, std::__ndk1::allocator<char> > const*, std::__ndk1::ctype<char>, std::__ndk1::ctype<char>, std::__ndk1::ctype<char> const&, unsigned int&, bool)
FUNC ad8b8 8 0 std::__ndk1::num_get<char, std::__ndk1::istreambuf_iterator<char, std::__ndk1::char_traits<char> > >::do_get(std::__ndk1::istreambuf_iterator<char, std::__ndk1::char_traits<char> >, std::__ndk1::istreambuf_iterator<char, std::__ndk1::char_traits<char> >, std::__ndk1::ios_base&, unsigned int&, long&) const
FUNC ad8c0 434 0 std::__ndk1::num_get<char, std::__ndk1::istreambuf_iterator<char, std::__ndk1::char_traits<char> > >::__do_get_signed<long>(std::__ndk1::istreambuf_iterator<char, std::__ndk1::char_traits<char> >, std::__ndk1::istreambuf_iterator<char, std::__ndk1::char_traits<char> >, std::__ndk1::ios_base&, unsigned int&, long&) const
FUNC adcf4 8 0 std::__ndk1::num_get<char, std::__ndk1::istreambuf_iterator<char, std::__ndk1::char_traits<char> > >::do_get(std::__ndk1::istreambuf_iterator<char, std::__ndk1::char_traits<char> >, std::__ndk1::istreambuf_iterator<char, std::__ndk1::char_traits<char> >, std::__ndk1::ios_base&, unsigned int&, long long&) const
FUNC adcfc 434 0 std::__ndk1::num_get<char, std::__ndk1::istreambuf_iterator<char, std::__ndk1::char_traits<char> > >::__do_get_signed<long long>(std::__ndk1::istreambuf_iterator<char, std::__ndk1::char_traits<char> >, std::__ndk1::istreambuf_iterator<char, std::__ndk1::char_traits<char> >, std::__ndk1::ios_base&, unsigned int&, long long&) const
FUNC ae130 8 0 std::__ndk1::num_get<char, std::__ndk1::istreambuf_iterator<char, std::__ndk1::char_traits<char> > >::do_get(std::__ndk1::istreambuf_iterator<char, std::__ndk1::char_traits<char> >, std::__ndk1::istreambuf_iterator<char, std::__ndk1::char_traits<char> >, std::__ndk1::ios_base&, unsigned int&, unsigned short&) const
FUNC ae138 434 0 std::__ndk1::num_get<char, std::__ndk1::istreambuf_iterator<char, std::__ndk1::char_traits<char> > >::__do_get_unsigned<unsigned short>(std::__ndk1::istreambuf_iterator<char, std::__ndk1::char_traits<char> >, std::__ndk1::istreambuf_iterator<char, std::__ndk1::char_traits<char> >, std::__ndk1::ios_base&, unsigned int&, unsigned short&) const
FUNC ae56c 8 0 std::__ndk1::num_get<char, std::__ndk1::istreambuf_iterator<char, std::__ndk1::char_traits<char> > >::do_get(std::__ndk1::istreambuf_iterator<char, std::__ndk1::char_traits<char> >, std::__ndk1::istreambuf_iterator<char, std::__ndk1::char_traits<char> >, std::__ndk1::ios_base&, unsigned int&, unsigned int&) const
FUNC ae574 434 0 std::__ndk1::num_get<char, std::__ndk1::istreambuf_iterator<char, std::__ndk1::char_traits<char> > >::__do_get_unsigned<unsigned int>(std::__ndk1::istreambuf_iterator<char, std::__ndk1::char_traits<char> >, std::__ndk1::istreambuf_iterator<char, std::__ndk1::char_traits<char> >, std::__ndk1::ios_base&, unsigned int&, unsigned int&) const
FUNC ae9a8 8 0 std::__ndk1::num_get<char, std::__ndk1::istreambuf_iterator<char, std::__ndk1::char_traits<char> > >::do_get(std::__ndk1::istreambuf_iterator<char, std::__ndk1::char_traits<char> >, std::__ndk1::istreambuf_iterator<char, std::__ndk1::char_traits<char> >, std::__ndk1::ios_base&, unsigned int&, unsigned long&) const
FUNC ae9b0 434 0 std::__ndk1::num_get<char, std::__ndk1::istreambuf_iterator<char, std::__ndk1::char_traits<char> > >::__do_get_unsigned<unsigned long>(std::__ndk1::istreambuf_iterator<char, std::__ndk1::char_traits<char> >, std::__ndk1::istreambuf_iterator<char, std::__ndk1::char_traits<char> >, std::__ndk1::ios_base&, unsigned int&, unsigned long&) const
FUNC aede4 8 0 std::__ndk1::num_get<char, std::__ndk1::istreambuf_iterator<char, std::__ndk1::char_traits<char> > >::do_get(std::__ndk1::istreambuf_iterator<char, std::__ndk1::char_traits<char> >, std::__ndk1::istreambuf_iterator<char, std::__ndk1::char_traits<char> >, std::__ndk1::ios_base&, unsigned int&, unsigned long long&) const
FUNC aedec 434 0 std::__ndk1::num_get<char, std::__ndk1::istreambuf_iterator<char, std::__ndk1::char_traits<char> > >::__do_get_unsigned<unsigned long long>(std::__ndk1::istreambuf_iterator<char, std::__ndk1::char_traits<char> >, std::__ndk1::istreambuf_iterator<char, std::__ndk1::char_traits<char> >, std::__ndk1::ios_base&, unsigned int&, unsigned long long&) const
FUNC af220 8 0 std::__ndk1::num_get<char, std::__ndk1::istreambuf_iterator<char, std::__ndk1::char_traits<char> > >::do_get(std::__ndk1::istreambuf_iterator<char, std::__ndk1::char_traits<char> >, std::__ndk1::istreambuf_iterator<char, std::__ndk1::char_traits<char> >, std::__ndk1::ios_base&, unsigned int&, float&) const
FUNC af228 410 0 std::__ndk1::num_get<char, std::__ndk1::istreambuf_iterator<char, std::__ndk1::char_traits<char> > >::__do_get_floating_point<float>(std::__ndk1::istreambuf_iterator<char, std::__ndk1::char_traits<char> >, std::__ndk1::istreambuf_iterator<char, std::__ndk1::char_traits<char> >, std::__ndk1::ios_base&, unsigned int&, float&) const
FUNC af638 8 0 std::__ndk1::num_get<char, std::__ndk1::istreambuf_iterator<char, std::__ndk1::char_traits<char> > >::do_get(std::__ndk1::istreambuf_iterator<char, std::__ndk1::char_traits<char> >, std::__ndk1::istreambuf_iterator<char, std::__ndk1::char_traits<char> >, std::__ndk1::ios_base&, unsigned int&, double&) const
FUNC af640 410 0 std::__ndk1::num_get<char, std::__ndk1::istreambuf_iterator<char, std::__ndk1::char_traits<char> > >::__do_get_floating_point<double>(std::__ndk1::istreambuf_iterator<char, std::__ndk1::char_traits<char> >, std::__ndk1::istreambuf_iterator<char, std::__ndk1::char_traits<char> >, std::__ndk1::ios_base&, unsigned int&, double&) const
FUNC afa50 8 0 std::__ndk1::num_get<char, std::__ndk1::istreambuf_iterator<char, std::__ndk1::char_traits<char> > >::do_get(std::__ndk1::istreambuf_iterator<char, std::__ndk1::char_traits<char> >, std::__ndk1::istreambuf_iterator<char, std::__ndk1::char_traits<char> >, std::__ndk1::ios_base&, unsigned int&, long double&) const
FUNC afa58 410 0 std::__ndk1::num_get<char, std::__ndk1::istreambuf_iterator<char, std::__ndk1::char_traits<char> > >::__do_get_floating_point<long double>(std::__ndk1::istreambuf_iterator<char, std::__ndk1::char_traits<char> >, std::__ndk1::istreambuf_iterator<char, std::__ndk1::char_traits<char> >, std::__ndk1::ios_base&, unsigned int&, long double&) const
FUNC afe68 534 0 std::__ndk1::num_get<char, std::__ndk1::istreambuf_iterator<char, std::__ndk1::char_traits<char> > >::do_get(std::__ndk1::istreambuf_iterator<char, std::__ndk1::char_traits<char> >, std::__ndk1::istreambuf_iterator<char, std::__ndk1::char_traits<char> >, std::__ndk1::ios_base&, unsigned int&, void*&) const
FUNC b039c 1c0 0 std::__ndk1::__num_get<char>::__stage2_int_loop(char, int, char*, char*&, unsigned int&, char, std::__ndk1::basic_string<char, std::__ndk1::char_traits<char>, std::__ndk1::allocator<char> > const&, unsigned int*, unsigned int*&, char*)
FUNC b055c b4 0 std::__ndk1::__libcpp_sscanf_l(char const*, __locale_t*, char const*, ...)
FUNC b0610 88 0 std::__ndk1::__cloc()
FUNC b0698 28c 0 std::__ndk1::num_get<wchar_t, std::__ndk1::istreambuf_iterator<wchar_t, std::__ndk1::char_traits<wchar_t> > >::do_get(std::__ndk1::istreambuf_iterator<wchar_t, std::__ndk1::char_traits<wchar_t> >, std::__ndk1::istreambuf_iterator<wchar_t, std::__ndk1::char_traits<wchar_t> >, std::__ndk1::ios_base&, unsigned int&, bool&) const
FUNC b0924 474 0 std::__ndk1::__scan_keyword[abi:ne190000]<std::__ndk1::istreambuf_iterator<wchar_t, std::__ndk1::char_traits<wchar_t> >, std::__ndk1::basic_string<wchar_t, std::__ndk1::char_traits, std::__ndk1::allocator<wchar_t> > const*, std::__ndk1::ctype<wchar_t> >(std::__ndk1::istreambuf_iterator<wchar_t, std::__ndk1::char_traits<wchar_t> >&, std::__ndk1::basic_string<wchar_t, std::__ndk1::char_traits, std::__ndk1::allocator<wchar_t> > const*, std::__ndk1::ctype<wchar_t>, std::__ndk1::ctype<wchar_t>, std::__ndk1::ctype<wchar_t> const&, unsigned int&, bool)
FUNC b0d98 8 0 std::__ndk1::num_get<wchar_t, std::__ndk1::istreambuf_iterator<wchar_t, std::__ndk1::char_traits<wchar_t> > >::do_get(std::__ndk1::istreambuf_iterator<wchar_t, std::__ndk1::char_traits<wchar_t> >, std::__ndk1::istreambuf_iterator<wchar_t, std::__ndk1::char_traits<wchar_t> >, std::__ndk1::ios_base&, unsigned int&, long&) const
FUNC b0da0 428 0 std::__ndk1::num_get<wchar_t, std::__ndk1::istreambuf_iterator<wchar_t, std::__ndk1::char_traits<wchar_t> > >::__do_get_signed<long>(std::__ndk1::istreambuf_iterator<wchar_t, std::__ndk1::char_traits<wchar_t> >, std::__ndk1::istreambuf_iterator<wchar_t, std::__ndk1::char_traits<wchar_t> >, std::__ndk1::ios_base&, unsigned int&, long&) const
FUNC b11c8 8 0 std::__ndk1::num_get<wchar_t, std::__ndk1::istreambuf_iterator<wchar_t, std::__ndk1::char_traits<wchar_t> > >::do_get(std::__ndk1::istreambuf_iterator<wchar_t, std::__ndk1::char_traits<wchar_t> >, std::__ndk1::istreambuf_iterator<wchar_t, std::__ndk1::char_traits<wchar_t> >, std::__ndk1::ios_base&, unsigned int&, long long&) const
FUNC b11d0 428 0 std::__ndk1::num_get<wchar_t, std::__ndk1::istreambuf_iterator<wchar_t, std::__ndk1::char_traits<wchar_t> > >::__do_get_signed<long long>(std::__ndk1::istreambuf_iterator<wchar_t, std::__ndk1::char_traits<wchar_t> >, std::__ndk1::istreambuf_iterator<wchar_t, std::__ndk1::char_traits<wchar_t> >, std::__ndk1::ios_base&, unsigned int&, long long&) const
FUNC b15f8 8 0 std::__ndk1::num_get<wchar_t, std::__ndk1::istreambuf_iterator<wchar_t, std::__ndk1::char_traits<wchar_t> > >::do_get(std::__ndk1::istreambuf_iterator<wchar_t, std::__ndk1::char_traits<wchar_t> >, std::__ndk1::istreambuf_iterator<wchar_t, std::__ndk1::char_traits<wchar_t> >, std::__ndk1::ios_base&, unsigned int&, unsigned short&) const
FUNC b1600 428 0 std::__ndk1::num_get<wchar_t, std::__ndk1::istreambuf_iterator<wchar_t, std::__ndk1::char_traits<wchar_t> > >::__do_get_unsigned<unsigned short>(std::__ndk1::istreambuf_iterator<wchar_t, std::__ndk1::char_traits<wchar_t> >, std::__ndk1::istreambuf_iterator<wchar_t, std::__ndk1::char_traits<wchar_t> >, std::__ndk1::ios_base&, unsigned int&, unsigned short&) const
FUNC b1a28 8 0 std::__ndk1::num_get<wchar_t, std::__ndk1::istreambuf_iterator<wchar_t, std::__ndk1::char_traits<wchar_t> > >::do_get(std::__ndk1::istreambuf_iterator<wchar_t, std::__ndk1::char_traits<wchar_t> >, std::__ndk1::istreambuf_iterator<wchar_t, std::__ndk1::char_traits<wchar_t> >, std::__ndk1::ios_base&, unsigned int&, unsigned int&) const
FUNC b1a30 428 0 std::__ndk1::num_get<wchar_t, std::__ndk1::istreambuf_iterator<wchar_t, std::__ndk1::char_traits<wchar_t> > >::__do_get_unsigned<unsigned int>(std::__ndk1::istreambuf_iterator<wchar_t, std::__ndk1::char_traits<wchar_t> >, std::__ndk1::istreambuf_iterator<wchar_t, std::__ndk1::char_traits<wchar_t> >, std::__ndk1::ios_base&, unsigned int&, unsigned int&) const
FUNC b1e58 8 0 std::__ndk1::num_get<wchar_t, std::__ndk1::istreambuf_iterator<wchar_t, std::__ndk1::char_traits<wchar_t> > >::do_get(std::__ndk1::istreambuf_iterator<wchar_t, std::__ndk1::char_traits<wchar_t> >, std::__ndk1::istreambuf_iterator<wchar_t, std::__ndk1::char_traits<wchar_t> >, std::__ndk1::ios_base&, unsigned int&, unsigned long&) const
FUNC b1e60 428 0 std::__ndk1::num_get<wchar_t, std::__ndk1::istreambuf_iterator<wchar_t, std::__ndk1::char_traits<wchar_t> > >::__do_get_unsigned<unsigned long>(std::__ndk1::istreambuf_iterator<wchar_t, std::__ndk1::char_traits<wchar_t> >, std::__ndk1::istreambuf_iterator<wchar_t, std::__ndk1::char_traits<wchar_t> >, std::__ndk1::ios_base&, unsigned int&, unsigned long&) const
FUNC b2288 8 0 std::__ndk1::num_get<wchar_t, std::__ndk1::istreambuf_iterator<wchar_t, std::__ndk1::char_traits<wchar_t> > >::do_get(std::__ndk1::istreambuf_iterator<wchar_t, std::__ndk1::char_traits<wchar_t> >, std::__ndk1::istreambuf_iterator<wchar_t, std::__ndk1::char_traits<wchar_t> >, std::__ndk1::ios_base&, unsigned int&, unsigned long long&) const
FUNC b2290 428 0 std::__ndk1::num_get<wchar_t, std::__ndk1::istreambuf_iterator<wchar_t, std::__ndk1::char_traits<wchar_t> > >::__do_get_unsigned<unsigned long long>(std::__ndk1::istreambuf_iterator<wchar_t, std::__ndk1::char_traits<wchar_t> >, std::__ndk1::istreambuf_iterator<wchar_t, std::__ndk1::char_traits<wchar_t> >, std::__ndk1::ios_base&, unsigned int&, unsigned long long&) const
FUNC b26b8 8 0 std::__ndk1::num_get<wchar_t, std::__ndk1::istreambuf_iterator<wchar_t, std::__ndk1::char_traits<wchar_t> > >::do_get(std::__ndk1::istreambuf_iterator<wchar_t, std::__ndk1::char_traits<wchar_t> >, std::__ndk1::istreambuf_iterator<wchar_t, std::__ndk1::char_traits<wchar_t> >, std::__ndk1::ios_base&, unsigned int&, float&) const
FUNC b26c0 404 0 std::__ndk1::num_get<wchar_t, std::__ndk1::istreambuf_iterator<wchar_t, std::__ndk1::char_traits<wchar_t> > >::__do_get_floating_point<float>(std::__ndk1::istreambuf_iterator<wchar_t, std::__ndk1::char_traits<wchar_t> >, std::__ndk1::istreambuf_iterator<wchar_t, std::__ndk1::char_traits<wchar_t> >, std::__ndk1::ios_base&, unsigned int&, float&) const
FUNC b2ac4 8 0 std::__ndk1::num_get<wchar_t, std::__ndk1::istreambuf_iterator<wchar_t, std::__ndk1::char_traits<wchar_t> > >::do_get(std::__ndk1::istreambuf_iterator<wchar_t, std::__ndk1::char_traits<wchar_t> >, std::__ndk1::istreambuf_iterator<wchar_t, std::__ndk1::char_traits<wchar_t> >, std::__ndk1::ios_base&, unsigned int&, double&) const
FUNC b2acc 404 0 std::__ndk1::num_get<wchar_t, std::__ndk1::istreambuf_iterator<wchar_t, std::__ndk1::char_traits<wchar_t> > >::__do_get_floating_point<double>(std::__ndk1::istreambuf_iterator<wchar_t, std::__ndk1::char_traits<wchar_t> >, std::__ndk1::istreambuf_iterator<wchar_t, std::__ndk1::char_traits<wchar_t> >, std::__ndk1::ios_base&, unsigned int&, double&) const
FUNC b2ed0 8 0 std::__ndk1::num_get<wchar_t, std::__ndk1::istreambuf_iterator<wchar_t, std::__ndk1::char_traits<wchar_t> > >::do_get(std::__ndk1::istreambuf_iterator<wchar_t, std::__ndk1::char_traits<wchar_t> >, std::__ndk1::istreambuf_iterator<wchar_t, std::__ndk1::char_traits<wchar_t> >, std::__ndk1::ios_base&, unsigned int&, long double&) const
FUNC b2ed8 404 0 std::__ndk1::num_get<wchar_t, std::__ndk1::istreambuf_iterator<wchar_t, std::__ndk1::char_traits<wchar_t> > >::__do_get_floating_point<long double>(std::__ndk1::istreambuf_iterator<wchar_t, std::__ndk1::char_traits<wchar_t> >, std::__ndk1::istreambuf_iterator<wchar_t, std::__ndk1::char_traits<wchar_t> >, std::__ndk1::ios_base&, unsigned int&, long double&) const
FUNC b32dc 528 0 std::__ndk1::num_get<wchar_t, std::__ndk1::istreambuf_iterator<wchar_t, std::__ndk1::char_traits<wchar_t> > >::do_get(std::__ndk1::istreambuf_iterator<wchar_t, std::__ndk1::char_traits<wchar_t> >, std::__ndk1::istreambuf_iterator<wchar_t, std::__ndk1::char_traits<wchar_t> >, std::__ndk1::ios_base&, unsigned int&, void*&) const
FUNC b3804 1bc 0 std::__ndk1::__num_get<wchar_t>::__stage2_int_loop(wchar_t, int, char*, char*&, unsigned int&, wchar_t, std::__ndk1::basic_string<char, std::__ndk1::char_traits<char>, std::__ndk1::allocator<char> > const&, unsigned int*, unsigned int*&, wchar_t*)
FUNC b39c0 198 0 std::__ndk1::__num_get<char>::__stage2_float_prep(std::__ndk1::ios_base&, char*, char&, char&)
FUNC b3b58 27c 0 std::__ndk1::__num_get<char>::__stage2_float_loop(char, bool&, char&, char*, char*&, char, char, std::__ndk1::basic_string<char, std::__ndk1::char_traits<char>, std::__ndk1::allocator<char> > const&, unsigned int*, unsigned int*&, unsigned int&, char*)
FUNC b3dd4 180 0 std::__ndk1::__num_get<char>::__stage2_int_prep(std::__ndk1::ios_base&, char*, char&)
FUNC b3f54 198 0 std::__ndk1::__num_get<wchar_t>::__stage2_float_prep(std::__ndk1::ios_base&, wchar_t*, wchar_t&, wchar_t&)
FUNC b40ec 268 0 std::__ndk1::__num_get<wchar_t>::__stage2_float_loop(wchar_t, bool&, char&, char*, char*&, wchar_t, wchar_t, std::__ndk1::basic_string<char, std::__ndk1::char_traits<char>, std::__ndk1::allocator<char> > const&, unsigned int*, unsigned int*&, unsigned int&, wchar_t*)
FUNC b4354 180 0 std::__ndk1::__num_get<wchar_t>::__stage2_int_prep(std::__ndk1::ios_base&, wchar_t*, wchar_t&)
FUNC b44d4 1d0 0 std::__ndk1::num_put<char, std::__ndk1::ostreambuf_iterator<char, std::__ndk1::char_traits<char> > >::do_put(std::__ndk1::ostreambuf_iterator<char, std::__ndk1::char_traits<char> >, std::__ndk1::ios_base&, char, bool) const
FUNC b46a4 10 0 std::__ndk1::num_put<char, std::__ndk1::ostreambuf_iterator<char, std::__ndk1::char_traits<char> > >::do_put(std::__ndk1::ostreambuf_iterator<char, std::__ndk1::char_traits<char> >, std::__ndk1::ios_base&, char, long) const
FUNC b46b4 23c 0 std::__ndk1::num_put<char, std::__ndk1::ostreambuf_iterator<char, std::__ndk1::char_traits<char> > >::__do_put_integral[abi:ne190000]<long>(std::__ndk1::ostreambuf_iterator<char, std::__ndk1::char_traits<char> >, std::__ndk1::ios_base&, char, long, char const*) const
FUNC b48f0 10 0 std::__ndk1::num_put<char, std::__ndk1::ostreambuf_iterator<char, std::__ndk1::char_traits<char> > >::do_put(std::__ndk1::ostreambuf_iterator<char, std::__ndk1::char_traits<char> >, std::__ndk1::ios_base&, char, long long) const
FUNC b4900 23c 0 std::__ndk1::num_put<char, std::__ndk1::ostreambuf_iterator<char, std::__ndk1::char_traits<char> > >::__do_put_integral[abi:ne190000]<long long>(std::__ndk1::ostreambuf_iterator<char, std::__ndk1::char_traits<char> >, std::__ndk1::ios_base&, char, long long, char const*) const
FUNC b4b3c 10 0 std::__ndk1::num_put<char, std::__ndk1::ostreambuf_iterator<char, std::__ndk1::char_traits<char> > >::do_put(std::__ndk1::ostreambuf_iterator<char, std::__ndk1::char_traits<char> >, std::__ndk1::ios_base&, char, unsigned long) const
FUNC b4b4c 220 0 std::__ndk1::num_put<char, std::__ndk1::ostreambuf_iterator<char, std::__ndk1::char_traits<char> > >::__do_put_integral[abi:ne190000]<unsigned long>(std::__ndk1::ostreambuf_iterator<char, std::__ndk1::char_traits<char> >, std::__ndk1::ios_base&, char, unsigned long, char const*) const
FUNC b4d6c 10 0 std::__ndk1::num_put<char, std::__ndk1::ostreambuf_iterator<char, std::__ndk1::char_traits<char> > >::do_put(std::__ndk1::ostreambuf_iterator<char, std::__ndk1::char_traits<char> >, std::__ndk1::ios_base&, char, unsigned long long) const
FUNC b4d7c 220 0 std::__ndk1::num_put<char, std::__ndk1::ostreambuf_iterator<char, std::__ndk1::char_traits<char> > >::__do_put_integral[abi:ne190000]<unsigned long long>(std::__ndk1::ostreambuf_iterator<char, std::__ndk1::char_traits<char> >, std::__ndk1::ios_base&, char, unsigned long long, char const*) const
FUNC b4f9c 10 0 std::__ndk1::num_put<char, std::__ndk1::ostreambuf_iterator<char, std::__ndk1::char_traits<char> > >::do_put(std::__ndk1::ostreambuf_iterator<char, std::__ndk1::char_traits<char> >, std::__ndk1::ios_base&, char, double) const
FUNC b4fac 480 0 std::__ndk1::num_put<char, std::__ndk1::ostreambuf_iterator<char, std::__ndk1::char_traits<char> > >::__do_put_floating_point[abi:ne190000]<double>(std::__ndk1::ostreambuf_iterator<char, std::__ndk1::char_traits<char> >, std::__ndk1::ios_base&, char, double, char const*) const
FUNC b542c 10 0 std::__ndk1::num_put<char, std::__ndk1::ostreambuf_iterator<char, std::__ndk1::char_traits<char> > >::do_put(std::__ndk1::ostreambuf_iterator<char, std::__ndk1::char_traits<char> >, std::__ndk1::ios_base&, char, long double) const
FUNC b543c 478 0 std::__ndk1::num_put<char, std::__ndk1::ostreambuf_iterator<char, std::__ndk1::char_traits<char> > >::__do_put_floating_point[abi:ne190000]<long double>(std::__ndk1::ostreambuf_iterator<char, std::__ndk1::char_traits<char> >, std::__ndk1::ios_base&, char, long double, char const*) const
FUNC b58b4 224 0 std::__ndk1::num_put<char, std::__ndk1::ostreambuf_iterator<char, std::__ndk1::char_traits<char> > >::do_put(std::__ndk1::ostreambuf_iterator<char, std::__ndk1::char_traits<char> >, std::__ndk1::ios_base&, char, void const*) const
FUNC b5ad8 c0 0 std::__ndk1::__libcpp_snprintf_l(char*, unsigned long, __locale_t*, char const*, ...)
FUNC b5b98 70 0 std::__ndk1::__num_put_base::__identify_padding(char*, char*, std::__ndk1::ios_base const&)
FUNC b5c08 1d0 0 std::__ndk1::num_put<wchar_t, std::__ndk1::ostreambuf_iterator<wchar_t, std::__ndk1::char_traits<wchar_t> > >::do_put(std::__ndk1::ostreambuf_iterator<wchar_t, std::__ndk1::char_traits<wchar_t> >, std::__ndk1::ios_base&, wchar_t, bool) const
FUNC b5dd8 10 0 std::__ndk1::num_put<wchar_t, std::__ndk1::ostreambuf_iterator<wchar_t, std::__ndk1::char_traits<wchar_t> > >::do_put(std::__ndk1::ostreambuf_iterator<wchar_t, std::__ndk1::char_traits<wchar_t> >, std::__ndk1::ios_base&, wchar_t, long) const
FUNC b5de8 23c 0 std::__ndk1::num_put<wchar_t, std::__ndk1::ostreambuf_iterator<wchar_t, std::__ndk1::char_traits<wchar_t> > >::__do_put_integral[abi:ne190000]<long>(std::__ndk1::ostreambuf_iterator<wchar_t, std::__ndk1::char_traits<wchar_t> >, std::__ndk1::ios_base&, wchar_t, long, char const*) const
FUNC b6024 10 0 std::__ndk1::num_put<wchar_t, std::__ndk1::ostreambuf_iterator<wchar_t, std::__ndk1::char_traits<wchar_t> > >::do_put(std::__ndk1::ostreambuf_iterator<wchar_t, std::__ndk1::char_traits<wchar_t> >, std::__ndk1::ios_base&, wchar_t, long long) const
FUNC b6034 23c 0 std::__ndk1::num_put<wchar_t, std::__ndk1::ostreambuf_iterator<wchar_t, std::__ndk1::char_traits<wchar_t> > >::__do_put_integral[abi:ne190000]<long long>(std::__ndk1::ostreambuf_iterator<wchar_t, std::__ndk1::char_traits<wchar_t> >, std::__ndk1::ios_base&, wchar_t, long long, char const*) const
FUNC b6270 10 0 std::__ndk1::num_put<wchar_t, std::__ndk1::ostreambuf_iterator<wchar_t, std::__ndk1::char_traits<wchar_t> > >::do_put(std::__ndk1::ostreambuf_iterator<wchar_t, std::__ndk1::char_traits<wchar_t> >, std::__ndk1::ios_base&, wchar_t, unsigned long) const
FUNC b6280 220 0 std::__ndk1::num_put<wchar_t, std::__ndk1::ostreambuf_iterator<wchar_t, std::__ndk1::char_traits<wchar_t> > >::__do_put_integral[abi:ne190000]<unsigned long>(std::__ndk1::ostreambuf_iterator<wchar_t, std::__ndk1::char_traits<wchar_t> >, std::__ndk1::ios_base&, wchar_t, unsigned long, char const*) const
FUNC b64a0 10 0 std::__ndk1::num_put<wchar_t, std::__ndk1::ostreambuf_iterator<wchar_t, std::__ndk1::char_traits<wchar_t> > >::do_put(std::__ndk1::ostreambuf_iterator<wchar_t, std::__ndk1::char_traits<wchar_t> >, std::__ndk1::ios_base&, wchar_t, unsigned long long) const
FUNC b64b0 220 0 std::__ndk1::num_put<wchar_t, std::__ndk1::ostreambuf_iterator<wchar_t, std::__ndk1::char_traits<wchar_t> > >::__do_put_integral[abi:ne190000]<unsigned long long>(std::__ndk1::ostreambuf_iterator<wchar_t, std::__ndk1::char_traits<wchar_t> >, std::__ndk1::ios_base&, wchar_t, unsigned long long, char const*) const
FUNC b66d0 10 0 std::__ndk1::num_put<wchar_t, std::__ndk1::ostreambuf_iterator<wchar_t, std::__ndk1::char_traits<wchar_t> > >::do_put(std::__ndk1::ostreambuf_iterator<wchar_t, std::__ndk1::char_traits<wchar_t> >, std::__ndk1::ios_base&, wchar_t, double) const
FUNC b66e0 480 0 std::__ndk1::num_put<wchar_t, std::__ndk1::ostreambuf_iterator<wchar_t, std::__ndk1::char_traits<wchar_t> > >::__do_put_floating_point[abi:ne190000]<double>(std::__ndk1::ostreambuf_iterator<wchar_t, std::__ndk1::char_traits<wchar_t> >, std::__ndk1::ios_base&, wchar_t, double, char const*) const
FUNC b6b60 10 0 std::__ndk1::num_put<wchar_t, std::__ndk1::ostreambuf_iterator<wchar_t, std::__ndk1::char_traits<wchar_t> > >::do_put(std::__ndk1::ostreambuf_iterator<wchar_t, std::__ndk1::char_traits<wchar_t> >, std::__ndk1::ios_base&, wchar_t, long double) const
FUNC b6b70 478 0 std::__ndk1::num_put<wchar_t, std::__ndk1::ostreambuf_iterator<wchar_t, std::__ndk1::char_traits<wchar_t> > >::__do_put_floating_point[abi:ne190000]<long double>(std::__ndk1::ostreambuf_iterator<wchar_t, std::__ndk1::char_traits<wchar_t> >, std::__ndk1::ios_base&, wchar_t, long double, char const*) const
FUNC b6fe8 230 0 std::__ndk1::num_put<wchar_t, std::__ndk1::ostreambuf_iterator<wchar_t, std::__ndk1::char_traits<wchar_t> > >::do_put(std::__ndk1::ostreambuf_iterator<wchar_t, std::__ndk1::char_traits<wchar_t> >, std::__ndk1::ios_base&, wchar_t, void const*) const
FUNC b7218 200 0 std::__ndk1::__pad_and_output[abi:ne190000]<wchar_t, std::__ndk1::char_traits<wchar_t> >(std::__ndk1::char_traits<wchar_t>, std::__ndk1::ostreambuf_iterator const*, std::__ndk1::ostreambuf_iterator const, std::__ndk1::ostreambuf_iterator const, std::__ndk1::ios_base&, std::__ndk1::ostreambuf_iterator)
FUNC b7418 3f4 0 std::__ndk1::__num_put<char>::__widen_and_group_int(char*, char*, char*, char*, char*&, char*&, std::__ndk1::locale const&)
FUNC b780c 5f8 0 std::__ndk1::__num_put<char>::__widen_and_group_float(char*, char*, char*, char*, char*&, char*&, std::__ndk1::locale const&)
FUNC b7e04 3fc 0 std::__ndk1::__num_put<wchar_t>::__widen_and_group_int(char*, char*, char*, wchar_t*, wchar_t*&, wchar_t*&, std::__ndk1::locale const&)
FUNC b8200 5f8 0 std::__ndk1::__num_put<wchar_t>::__widen_and_group_float(char*, char*, char*, wchar_t*, wchar_t*&, wchar_t*&, std::__ndk1::locale const&)
FUNC b87f8 4d8 0 std::__ndk1::time_get<char, std::__ndk1::istreambuf_iterator<char, std::__ndk1::char_traits<char> > >::get(std::__ndk1::istreambuf_iterator<char, std::__ndk1::char_traits<char> >, std::__ndk1::istreambuf_iterator<char, std::__ndk1::char_traits<char> >, std::__ndk1::ios_base&, unsigned int&, tm*, char const*, char const*) const
FUNC b8cd0 c 0 std::__ndk1::time_get<char, std::__ndk1::istreambuf_iterator<char, std::__ndk1::char_traits<char> > >::do_date_order() const
FUNC b8cdc 44 0 std::__ndk1::time_get<char, std::__ndk1::istreambuf_iterator<char, std::__ndk1::char_traits<char> > >::do_get_time(std::__ndk1::istreambuf_iterator<char, std::__ndk1::char_traits<char> >, std::__ndk1::istreambuf_iterator<char, std::__ndk1::char_traits<char> >, std::__ndk1::ios_base&, unsigned int&, tm*) const
FUNC b8d20 8c 0 std::__ndk1::time_get<char, std::__ndk1::istreambuf_iterator<char, std::__ndk1::char_traits<char> > >::do_get_date(std::__ndk1::istreambuf_iterator<char, std::__ndk1::char_traits<char> >, std::__ndk1::istreambuf_iterator<char, std::__ndk1::char_traits<char> >, std::__ndk1::ios_base&, unsigned int&, tm*) const
FUNC b8dac 158 0 std::__ndk1::time_get<char, std::__ndk1::istreambuf_iterator<char, std::__ndk1::char_traits<char> > >::do_get_weekday(std::__ndk1::istreambuf_iterator<char, std::__ndk1::char_traits<char> >, std::__ndk1::istreambuf_iterator<char, std::__ndk1::char_traits<char> >, std::__ndk1::ios_base&, unsigned int&, tm*) const
FUNC b8f04 bc 0 std::__ndk1::time_get<char, std::__ndk1::istreambuf_iterator<char, std::__ndk1::char_traits<char> > >::__get_weekdayname(int&, std::__ndk1::istreambuf_iterator<char, std::__ndk1::char_traits<char> >&, std::__ndk1::istreambuf_iterator<char, std::__ndk1::char_traits<char> >, unsigned int&, std::__ndk1::ctype<char> const&) const
FUNC b8fc0 150 0 std::__ndk1::time_get<char, std::__ndk1::istreambuf_iterator<char, std::__ndk1::char_traits<char> > >::do_get_monthname(std::__ndk1::istreambuf_iterator<char, std::__ndk1::char_traits<char> >, std::__ndk1::istreambuf_iterator<char, std::__ndk1::char_traits<char> >, std::__ndk1::ios_base&, unsigned int&, tm*) const
FUNC b9110 b4 0 std::__ndk1::time_get<char, std::__ndk1::istreambuf_iterator<char, std::__ndk1::char_traits<char> > >::__get_monthname(int&, std::__ndk1::istreambuf_iterator<char, std::__ndk1::char_traits<char> >&, std::__ndk1::istreambuf_iterator<char, std::__ndk1::char_traits<char> >, unsigned int&, std::__ndk1::ctype<char> const&) const
FUNC b91c4 11c 0 std::__ndk1::time_get<char, std::__ndk1::istreambuf_iterator<char, std::__ndk1::char_traits<char> > >::do_get_year(std::__ndk1::istreambuf_iterator<char, std::__ndk1::char_traits<char> >, std::__ndk1::istreambuf_iterator<char, std::__ndk1::char_traits<char> >, std::__ndk1::ios_base&, unsigned int&, tm*) const
FUNC b92e0 68 0 std::__ndk1::time_get<char, std::__ndk1::istreambuf_iterator<char, std::__ndk1::char_traits<char> > >::__get_year(int&, std::__ndk1::istreambuf_iterator<char, std::__ndk1::char_traits<char> >&, std::__ndk1::istreambuf_iterator<char, std::__ndk1::char_traits<char> >, unsigned int&, std::__ndk1::ctype<char> const&) const
FUNC b9348 680 0 std::__ndk1::time_get<char, std::__ndk1::istreambuf_iterator<char, std::__ndk1::char_traits<char> > >::do_get(std::__ndk1::istreambuf_iterator<char, std::__ndk1::char_traits<char> >, std::__ndk1::istreambuf_iterator<char, std::__ndk1::char_traits<char> >, std::__ndk1::ios_base&, unsigned int&, tm*, char, char) const
FUNC b99c8 64 0 std::__ndk1::time_get<char, std::__ndk1::istreambuf_iterator<char, std::__ndk1::char_traits<char> > >::__get_day(int&, std::__ndk1::istreambuf_iterator<char, std::__ndk1::char_traits<char> >&, std::__ndk1::istreambuf_iterator<char, std::__ndk1::char_traits<char> >, unsigned int&, std::__ndk1::ctype<char> const&) const
FUNC b9a2c 60 0 std::__ndk1::time_get<char, std::__ndk1::istreambuf_iterator<char, std::__ndk1::char_traits<char> > >::__get_hour(int&, std::__ndk1::istreambuf_iterator<char, std::__ndk1::char_traits<char> >&, std::__ndk1::istreambuf_iterator<char, std::__ndk1::char_traits<char> >, unsigned int&, std::__ndk1::ctype<char> const&) const
FUNC b9a8c 64 0 std::__ndk1::time_get<char, std::__ndk1::istreambuf_iterator<char, std::__ndk1::char_traits<char> > >::__get_12_hour(int&, std::__ndk1::istreambuf_iterator<char, std::__ndk1::char_traits<char> >&, std::__ndk1::istreambuf_iterator<char, std::__ndk1::char_traits<char> >, unsigned int&, std::__ndk1::ctype<char> const&) const
FUNC b9af0 60 0 std::__ndk1::time_get<char, std::__ndk1::istreambuf_iterator<char, std::__ndk1::char_traits<char> > >::__get_day_year_num(int&, std::__ndk1::istreambuf_iterator<char, std::__ndk1::char_traits<char> >&, std::__ndk1::istreambuf_iterator<char, std::__ndk1::char_traits<char> >, unsigned int&, std::__ndk1::ctype<char> const&) const
FUNC b9b50 64 0 std::__ndk1::time_get<char, std::__ndk1::istreambuf_iterator<char, std::__ndk1::char_traits<char> > >::__get_month(int&, std::__ndk1::istreambuf_iterator<char, std::__ndk1::char_traits<char> >&, std::__ndk1::istreambuf_iterator<char, std::__ndk1::char_traits<char> >, unsigned int&, std::__ndk1::ctype<char> const&) const
FUNC b9bb4 60 0 std::__ndk1::time_get<char, std::__ndk1::istreambuf_iterator<char, std::__ndk1::char_traits<char> > >::__get_minute(int&, std::__ndk1::istreambuf_iterator<char, std::__ndk1::char_traits<char> >&, std::__ndk1::istreambuf_iterator<char, std::__ndk1::char_traits<char> >, unsigned int&, std::__ndk1::ctype<char> const&) const
FUNC b9c14 1e8 0 std::__ndk1::time_get<char, std::__ndk1::istreambuf_iterator<char, std::__ndk1::char_traits<char> > >::__get_white_space(std::__ndk1::istreambuf_iterator<char, std::__ndk1::char_traits<char> >&, std::__ndk1::istreambuf_iterator<char, std::__ndk1::char_traits<char> >, unsigned int&, std::__ndk1::ctype<char> const&) const
FUNC b9dfc e8 0 std::__ndk1::time_get<char, std::__ndk1::istreambuf_iterator<char, std::__ndk1::char_traits<char> > >::__get_am_pm(int&, std::__ndk1::istreambuf_iterator<char, std::__ndk1::char_traits<char> >&, std::__ndk1::istreambuf_iterator<char, std::__ndk1::char_traits<char> >, unsigned int&, std::__ndk1::ctype<char> const&) const
FUNC b9ee4 60 0 std::__ndk1::time_get<char, std::__ndk1::istreambuf_iterator<char, std::__ndk1::char_traits<char> > >::__get_second(int&, std::__ndk1::istreambuf_iterator<char, std::__ndk1::char_traits<char> >&, std::__ndk1::istreambuf_iterator<char, std::__ndk1::char_traits<char> >, unsigned int&, std::__ndk1::ctype<char> const&) const
FUNC b9f44 60 0 std::__ndk1::time_get<char, std::__ndk1::istreambuf_iterator<char, std::__ndk1::char_traits<char> > >::__get_weekday(int&, std::__ndk1::istreambuf_iterator<char, std::__ndk1::char_traits<char> >&, std::__ndk1::istreambuf_iterator<char, std::__ndk1::char_traits<char> >, unsigned int&, std::__ndk1::ctype<char> const&) const
FUNC b9fa4 50 0 std::__ndk1::time_get<char, std::__ndk1::istreambuf_iterator<char, std::__ndk1::char_traits<char> > >::__get_year4(int&, std::__ndk1::istreambuf_iterator<char, std::__ndk1::char_traits<char> >&, std::__ndk1::istreambuf_iterator<char, std::__ndk1::char_traits<char> >, unsigned int&, std::__ndk1::ctype<char> const&) const
FUNC b9ff4 1ec 0 std::__ndk1::time_get<char, std::__ndk1::istreambuf_iterator<char, std::__ndk1::char_traits<char> > >::__get_percent(std::__ndk1::istreambuf_iterator<char, std::__ndk1::char_traits<char> >&, std::__ndk1::istreambuf_iterator<char, std::__ndk1::char_traits<char> >, unsigned int&, std::__ndk1::ctype<char> const&) const
FUNC ba1e0 344 0 std::__ndk1::__get_up_to_n_digits[abi:ne190000]<char, std::__ndk1::istreambuf_iterator<char, std::__ndk1::char_traits<char> > >(std::__ndk1::istreambuf_iterator<char, std::__ndk1::char_traits<char> >&, std::__ndk1::istreambuf_iterator<char, std::__ndk1::char_traits<char> >, unsigned int&, std::__ndk1::ctype<char> const&, int)
FUNC ba524 4f4 0 std::__ndk1::time_get<wchar_t, std::__ndk1::istreambuf_iterator<wchar_t, std::__ndk1::char_traits<wchar_t> > >::get(std::__ndk1::istreambuf_iterator<wchar_t, std::__ndk1::char_traits<wchar_t> >, std::__ndk1::istreambuf_iterator<wchar_t, std::__ndk1::char_traits<wchar_t> >, std::__ndk1::ios_base&, unsigned int&, tm*, wchar_t const*, wchar_t const*) const
FUNC baa18 c 0 std::__ndk1::time_get<wchar_t, std::__ndk1::istreambuf_iterator<wchar_t, std::__ndk1::char_traits<wchar_t> > >::do_date_order() const
FUNC baa24 40 0 std::__ndk1::time_get<wchar_t, std::__ndk1::istreambuf_iterator<wchar_t, std::__ndk1::char_traits<wchar_t> > >::do_get_time(std::__ndk1::istreambuf_iterator<wchar_t, std::__ndk1::char_traits<wchar_t> >, std::__ndk1::istreambuf_iterator<wchar_t, std::__ndk1::char_traits<wchar_t> >, std::__ndk1::ios_base&, unsigned int&, tm*) const
FUNC baa64 90 0 std::__ndk1::time_get<wchar_t, std::__ndk1::istreambuf_iterator<wchar_t, std::__ndk1::char_traits<wchar_t> > >::do_get_date(std::__ndk1::istreambuf_iterator<wchar_t, std::__ndk1::char_traits<wchar_t> >, std::__ndk1::istreambuf_iterator<wchar_t, std::__ndk1::char_traits<wchar_t> >, std::__ndk1::ios_base&, unsigned int&, tm*) const
FUNC baaf4 158 0 std::__ndk1::time_get<wchar_t, std::__ndk1::istreambuf_iterator<wchar_t, std::__ndk1::char_traits<wchar_t> > >::do_get_weekday(std::__ndk1::istreambuf_iterator<wchar_t, std::__ndk1::char_traits<wchar_t> >, std::__ndk1::istreambuf_iterator<wchar_t, std::__ndk1::char_traits<wchar_t> >, std::__ndk1::ios_base&, unsigned int&, tm*) const
FUNC bac4c bc 0 std::__ndk1::time_get<wchar_t, std::__ndk1::istreambuf_iterator<wchar_t, std::__ndk1::char_traits<wchar_t> > >::__get_weekdayname(int&, std::__ndk1::istreambuf_iterator<wchar_t, std::__ndk1::char_traits<wchar_t> >&, std::__ndk1::istreambuf_iterator<wchar_t, std::__ndk1::char_traits<wchar_t> >, unsigned int&, std::__ndk1::ctype<wchar_t> const&) const
FUNC bad08 150 0 std::__ndk1::time_get<wchar_t, std::__ndk1::istreambuf_iterator<wchar_t, std::__ndk1::char_traits<wchar_t> > >::do_get_monthname(std::__ndk1::istreambuf_iterator<wchar_t, std::__ndk1::char_traits<wchar_t> >, std::__ndk1::istreambuf_iterator<wchar_t, std::__ndk1::char_traits<wchar_t> >, std::__ndk1::ios_base&, unsigned int&, tm*) const
FUNC bae58 b4 0 std::__ndk1::time_get<wchar_t, std::__ndk1::istreambuf_iterator<wchar_t, std::__ndk1::char_traits<wchar_t> > >::__get_monthname(int&, std::__ndk1::istreambuf_iterator<wchar_t, std::__ndk1::char_traits<wchar_t> >&, std::__ndk1::istreambuf_iterator<wchar_t, std::__ndk1::char_traits<wchar_t> >, unsigned int&, std::__ndk1::ctype<wchar_t> const&) const
FUNC baf0c 11c 0 std::__ndk1::time_get<wchar_t, std::__ndk1::istreambuf_iterator<wchar_t, std::__ndk1::char_traits<wchar_t> > >::do_get_year(std::__ndk1::istreambuf_iterator<wchar_t, std::__ndk1::char_traits<wchar_t> >, std::__ndk1::istreambuf_iterator<wchar_t, std::__ndk1::char_traits<wchar_t> >, std::__ndk1::ios_base&, unsigned int&, tm*) const
FUNC bb028 68 0 std::__ndk1::time_get<wchar_t, std::__ndk1::istreambuf_iterator<wchar_t, std::__ndk1::char_traits<wchar_t> > >::__get_year(int&, std::__ndk1::istreambuf_iterator<wchar_t, std::__ndk1::char_traits<wchar_t> >&, std::__ndk1::istreambuf_iterator<wchar_t, std::__ndk1::char_traits<wchar_t> >, unsigned int&, std::__ndk1::ctype<wchar_t> const&) const
FUNC bb090 670 0 std::__ndk1::time_get<wchar_t, std::__ndk1::istreambuf_iterator<wchar_t, std::__ndk1::char_traits<wchar_t> > >::do_get(std::__ndk1::istreambuf_iterator<wchar_t, std::__ndk1::char_traits<wchar_t> >, std::__ndk1::istreambuf_iterator<wchar_t, std::__ndk1::char_traits<wchar_t> >, std::__ndk1::ios_base&, unsigned int&, tm*, char, char) const
FUNC bb700 64 0 std::__ndk1::time_get<wchar_t, std::__ndk1::istreambuf_iterator<wchar_t, std::__ndk1::char_traits<wchar_t> > >::__get_day(int&, std::__ndk1::istreambuf_iterator<wchar_t, std::__ndk1::char_traits<wchar_t> >&, std::__ndk1::istreambuf_iterator<wchar_t, std::__ndk1::char_traits<wchar_t> >, unsigned int&, std::__ndk1::ctype<wchar_t> const&) const
FUNC bb764 60 0 std::__ndk1::time_get<wchar_t, std::__ndk1::istreambuf_iterator<wchar_t, std::__ndk1::char_traits<wchar_t> > >::__get_hour(int&, std::__ndk1::istreambuf_iterator<wchar_t, std::__ndk1::char_traits<wchar_t> >&, std::__ndk1::istreambuf_iterator<wchar_t, std::__ndk1::char_traits<wchar_t> >, unsigned int&, std::__ndk1::ctype<wchar_t> const&) const
FUNC bb7c4 64 0 std::__ndk1::time_get<wchar_t, std::__ndk1::istreambuf_iterator<wchar_t, std::__ndk1::char_traits<wchar_t> > >::__get_12_hour(int&, std::__ndk1::istreambuf_iterator<wchar_t, std::__ndk1::char_traits<wchar_t> >&, std::__ndk1::istreambuf_iterator<wchar_t, std::__ndk1::char_traits<wchar_t> >, unsigned int&, std::__ndk1::ctype<wchar_t> const&) const
FUNC bb828 60 0 std::__ndk1::time_get<wchar_t, std::__ndk1::istreambuf_iterator<wchar_t, std::__ndk1::char_traits<wchar_t> > >::__get_day_year_num(int&, std::__ndk1::istreambuf_iterator<wchar_t, std::__ndk1::char_traits<wchar_t> >&, std::__ndk1::istreambuf_iterator<wchar_t, std::__ndk1::char_traits<wchar_t> >, unsigned int&, std::__ndk1::ctype<wchar_t> const&) const
FUNC bb888 64 0 std::__ndk1::time_get<wchar_t, std::__ndk1::istreambuf_iterator<wchar_t, std::__ndk1::char_traits<wchar_t> > >::__get_month(int&, std::__ndk1::istreambuf_iterator<wchar_t, std::__ndk1::char_traits<wchar_t> >&, std::__ndk1::istreambuf_iterator<wchar_t, std::__ndk1::char_traits<wchar_t> >, unsigned int&, std::__ndk1::ctype<wchar_t> const&) const
FUNC bb8ec 60 0 std::__ndk1::time_get<wchar_t, std::__ndk1::istreambuf_iterator<wchar_t, std::__ndk1::char_traits<wchar_t> > >::__get_minute(int&, std::__ndk1::istreambuf_iterator<wchar_t, std::__ndk1::char_traits<wchar_t> >&, std::__ndk1::istreambuf_iterator<wchar_t, std::__ndk1::char_traits<wchar_t> >, unsigned int&, std::__ndk1::ctype<wchar_t> const&) const
FUNC bb94c 1f0 0 std::__ndk1::time_get<wchar_t, std::__ndk1::istreambuf_iterator<wchar_t, std::__ndk1::char_traits<wchar_t> > >::__get_white_space(std::__ndk1::istreambuf_iterator<wchar_t, std::__ndk1::char_traits<wchar_t> >&, std::__ndk1::istreambuf_iterator<wchar_t, std::__ndk1::char_traits<wchar_t> >, unsigned int&, std::__ndk1::ctype<wchar_t> const&) const
FUNC bbb3c e8 0 std::__ndk1::time_get<wchar_t, std::__ndk1::istreambuf_iterator<wchar_t, std::__ndk1::char_traits<wchar_t> > >::__get_am_pm(int&, std::__ndk1::istreambuf_iterator<wchar_t, std::__ndk1::char_traits<wchar_t> >&, std::__ndk1::istreambuf_iterator<wchar_t, std::__ndk1::char_traits<wchar_t> >, unsigned int&, std::__ndk1::ctype<wchar_t> const&) const
FUNC bbc24 60 0 std::__ndk1::time_get<wchar_t, std::__ndk1::istreambuf_iterator<wchar_t, std::__ndk1::char_traits<wchar_t> > >::__get_second(int&, std::__ndk1::istreambuf_iterator<wchar_t, std::__ndk1::char_traits<wchar_t> >&, std::__ndk1::istreambuf_iterator<wchar_t, std::__ndk1::char_traits<wchar_t> >, unsigned int&, std::__ndk1::ctype<wchar_t> const&) const
FUNC bbc84 60 0 std::__ndk1::time_get<wchar_t, std::__ndk1::istreambuf_iterator<wchar_t, std::__ndk1::char_traits<wchar_t> > >::__get_weekday(int&, std::__ndk1::istreambuf_iterator<wchar_t, std::__ndk1::char_traits<wchar_t> >&, std::__ndk1::istreambuf_iterator<wchar_t, std::__ndk1::char_traits<wchar_t> >, unsigned int&, std::__ndk1::ctype<wchar_t> const&) const
FUNC bbce4 50 0 std::__ndk1::time_get<wchar_t, std::__ndk1::istreambuf_iterator<wchar_t, std::__ndk1::char_traits<wchar_t> > >::__get_year4(int&, std::__ndk1::istreambuf_iterator<wchar_t, std::__ndk1::char_traits<wchar_t> >&, std::__ndk1::istreambuf_iterator<wchar_t, std::__ndk1::char_traits<wchar_t> >, unsigned int&, std::__ndk1::ctype<wchar_t> const&) const
FUNC bbd34 1f0 0 std::__ndk1::time_get<wchar_t, std::__ndk1::istreambuf_iterator<wchar_t, std::__ndk1::char_traits<wchar_t> > >::__get_percent(std::__ndk1::istreambuf_iterator<wchar_t, std::__ndk1::char_traits<wchar_t> >&, std::__ndk1::istreambuf_iterator<wchar_t, std::__ndk1::char_traits<wchar_t> >, unsigned int&, std::__ndk1::ctype<wchar_t> const&) const
FUNC bbf24 35c 0 std::__ndk1::__get_up_to_n_digits[abi:ne190000]<wchar_t, std::__ndk1::istreambuf_iterator<wchar_t, std::__ndk1::char_traits<wchar_t> > >(std::__ndk1::istreambuf_iterator<wchar_t, std::__ndk1::char_traits<wchar_t> >&, std::__ndk1::istreambuf_iterator<wchar_t, std::__ndk1::char_traits<wchar_t> >, unsigned int&, std::__ndk1::ctype<wchar_t> const&, int)
FUNC bc280 2a0 0 std::__ndk1::time_put<char, std::__ndk1::ostreambuf_iterator<char, std::__ndk1::char_traits<char> > >::put(std::__ndk1::ostreambuf_iterator<char, std::__ndk1::char_traits<char> >, std::__ndk1::ios_base&, char, tm const*, char const*, char const*) const
FUNC bc520 cc 0 std::__ndk1::time_put<char, std::__ndk1::ostreambuf_iterator<char, std::__ndk1::char_traits<char> > >::do_put(std::__ndk1::ostreambuf_iterator<char, std::__ndk1::char_traits<char> >, std::__ndk1::ios_base&, char, tm const*, char, char) const
FUNC bc5ec 74 0 std::__ndk1::__time_put::__do_put(char*, char*&, tm const*, char, char) const
FUNC bc660 2b0 0 std::__ndk1::time_put<wchar_t, std::__ndk1::ostreambuf_iterator<wchar_t, std::__ndk1::char_traits<wchar_t> > >::put(std::__ndk1::ostreambuf_iterator<wchar_t, std::__ndk1::char_traits<wchar_t> >, std::__ndk1::ios_base&, wchar_t, tm const*, wchar_t const*, wchar_t const*) const
FUNC bc910 bc 0 std::__ndk1::time_put<wchar_t, std::__ndk1::ostreambuf_iterator<wchar_t, std::__ndk1::char_traits<wchar_t> > >::do_put(std::__ndk1::ostreambuf_iterator<wchar_t, std::__ndk1::char_traits<wchar_t> >, std::__ndk1::ios_base&, wchar_t, tm const*, char, char) const
FUNC bc9cc f8 0 std::__ndk1::__time_put::__do_put(wchar_t*, wchar_t*&, tm const*, char, char) const
FUNC bcac4 c 0 std::__ndk1::moneypunct<char, false>::do_decimal_point() const
FUNC bcad0 c 0 std::__ndk1::moneypunct<char, false>::do_thousands_sep() const
FUNC bcadc 10 0 std::__ndk1::moneypunct<char, false>::do_grouping() const
FUNC bcaec 10 0 std::__ndk1::moneypunct<char, false>::do_curr_symbol() const
FUNC bcafc 10 0 std::__ndk1::moneypunct<char, false>::do_positive_sign() const
FUNC bcb0c 14 0 std::__ndk1::moneypunct<char, false>::do_negative_sign() const
FUNC bcb20 c 0 std::__ndk1::moneypunct<char, false>::do_frac_digits() const
FUNC bcb2c 10 0 std::__ndk1::moneypunct<char, false>::do_pos_format() const
FUNC bcb3c 10 0 std::__ndk1::moneypunct<char, false>::do_neg_format() const
FUNC bcb4c c 0 std::__ndk1::moneypunct<char, true>::do_decimal_point() const
FUNC bcb58 c 0 std::__ndk1::moneypunct<char, true>::do_thousands_sep() const
FUNC bcb64 10 0 std::__ndk1::moneypunct<char, true>::do_grouping() const
FUNC bcb74 10 0 std::__ndk1::moneypunct<char, true>::do_curr_symbol() const
FUNC bcb84 10 0 std::__ndk1::moneypunct<char, true>::do_positive_sign() const
FUNC bcb94 14 0 std::__ndk1::moneypunct<char, true>::do_negative_sign() const
FUNC bcba8 c 0 std::__ndk1::moneypunct<char, true>::do_frac_digits() const
FUNC bcbb4 10 0 std::__ndk1::moneypunct<char, true>::do_pos_format() const
FUNC bcbc4 10 0 std::__ndk1::moneypunct<char, true>::do_neg_format() const
FUNC bcbd4 c 0 std::__ndk1::moneypunct<wchar_t, false>::do_decimal_point() const
FUNC bcbe0 c 0 std::__ndk1::moneypunct<wchar_t, false>::do_thousands_sep() const
FUNC bcbec 10 0 std::__ndk1::moneypunct<wchar_t, false>::do_grouping() const
FUNC bcbfc 10 0 std::__ndk1::moneypunct<wchar_t, false>::do_curr_symbol() const
FUNC bcc0c 10 0 std::__ndk1::moneypunct<wchar_t, false>::do_positive_sign() const
FUNC bcc1c 1c 0 std::__ndk1::moneypunct<wchar_t, false>::do_negative_sign() const
FUNC bcc38 c 0 std::__ndk1::moneypunct<wchar_t, false>::do_frac_digits() const
FUNC bcc44 10 0 std::__ndk1::moneypunct<wchar_t, false>::do_pos_format() const
FUNC bcc54 10 0 std::__ndk1::moneypunct<wchar_t, false>::do_neg_format() const
FUNC bcc64 c 0 std::__ndk1::moneypunct<wchar_t, true>::do_decimal_point() const
FUNC bcc70 c 0 std::__ndk1::moneypunct<wchar_t, true>::do_thousands_sep() const
FUNC bcc7c 10 0 std::__ndk1::moneypunct<wchar_t, true>::do_grouping() const
FUNC bcc8c 10 0 std::__ndk1::moneypunct<wchar_t, true>::do_curr_symbol() const
FUNC bcc9c 10 0 std::__ndk1::moneypunct<wchar_t, true>::do_positive_sign() const
FUNC bccac 1c 0 std::__ndk1::moneypunct<wchar_t, true>::do_negative_sign() const
FUNC bccc8 c 0 std::__ndk1::moneypunct<wchar_t, true>::do_frac_digits() const
FUNC bccd4 10 0 std::__ndk1::moneypunct<wchar_t, true>::do_pos_format() const
FUNC bcce4 10 0 std::__ndk1::moneypunct<wchar_t, true>::do_neg_format() const
FUNC bccf4 c 0 std::__ndk1::moneypunct_byname<char, false>::do_decimal_point() const
FUNC bcd00 c 0 std::__ndk1::moneypunct_byname<char, false>::do_thousands_sep() const
FUNC bcd0c 30 0 std::__ndk1::moneypunct_byname<char, false>::do_grouping() const
FUNC bcd3c 30 0 std::__ndk1::moneypunct_byname<char, false>::do_curr_symbol() const
FUNC bcd6c 30 0 std::__ndk1::moneypunct_byname<char, false>::do_positive_sign() const
FUNC bcd9c 30 0 std::__ndk1::moneypunct_byname<char, false>::do_negative_sign() const
FUNC bcdcc c 0 std::__ndk1::moneypunct_byname<char, false>::do_frac_digits() const
FUNC bcdd8 c 0 std::__ndk1::moneypunct_byname<char, false>::do_pos_format() const
FUNC bcde4 c 0 std::__ndk1::moneypunct_byname<char, false>::do_neg_format() const
FUNC bcdf0 c 0 std::__ndk1::moneypunct_byname<char, true>::do_decimal_point() const
FUNC bcdfc c 0 std::__ndk1::moneypunct_byname<char, true>::do_thousands_sep() const
FUNC bce08 30 0 std::__ndk1::moneypunct_byname<char, true>::do_grouping() const
FUNC bce38 30 0 std::__ndk1::moneypunct_byname<char, true>::do_curr_symbol() const
FUNC bce68 30 0 std::__ndk1::moneypunct_byname<char, true>::do_positive_sign() const
FUNC bce98 30 0 std::__ndk1::moneypunct_byname<char, true>::do_negative_sign() const
FUNC bcec8 c 0 std::__ndk1::moneypunct_byname<char, true>::do_frac_digits() const
FUNC bced4 c 0 std::__ndk1::moneypunct_byname<char, true>::do_pos_format() const
FUNC bcee0 c 0 std::__ndk1::moneypunct_byname<char, true>::do_neg_format() const
FUNC bceec c 0 std::__ndk1::moneypunct_byname<wchar_t, false>::do_decimal_point() const
FUNC bcef8 c 0 std::__ndk1::moneypunct_byname<wchar_t, false>::do_thousands_sep() const
FUNC bcf04 30 0 std::__ndk1::moneypunct_byname<wchar_t, false>::do_grouping() const
FUNC bcf34 30 0 std::__ndk1::moneypunct_byname<wchar_t, false>::do_curr_symbol() const
FUNC bcf64 30 0 std::__ndk1::moneypunct_byname<wchar_t, false>::do_positive_sign() const
FUNC bcf94 30 0 std::__ndk1::moneypunct_byname<wchar_t, false>::do_negative_sign() const
FUNC bcfc4 c 0 std::__ndk1::moneypunct_byname<wchar_t, false>::do_frac_digits() const
FUNC bcfd0 c 0 std::__ndk1::moneypunct_byname<wchar_t, false>::do_pos_format() const
FUNC bcfdc c 0 std::__ndk1::moneypunct_byname<wchar_t, false>::do_neg_format() const
FUNC bcfe8 c 0 std::__ndk1::moneypunct_byname<wchar_t, true>::do_decimal_point() const
FUNC bcff4 c 0 std::__ndk1::moneypunct_byname<wchar_t, true>::do_thousands_sep() const
FUNC bd000 30 0 std::__ndk1::moneypunct_byname<wchar_t, true>::do_grouping() const
FUNC bd030 30 0 std::__ndk1::moneypunct_byname<wchar_t, true>::do_curr_symbol() const
FUNC bd060 30 0 std::__ndk1::moneypunct_byname<wchar_t, true>::do_positive_sign() const
FUNC bd090 30 0 std::__ndk1::moneypunct_byname<wchar_t, true>::do_negative_sign() const
FUNC bd0c0 c 0 std::__ndk1::moneypunct_byname<wchar_t, true>::do_frac_digits() const
FUNC bd0cc c 0 std::__ndk1::moneypunct_byname<wchar_t, true>::do_pos_format() const
FUNC bd0d8 c 0 std::__ndk1::moneypunct_byname<wchar_t, true>::do_neg_format() const
FUNC bd0e4 344 0 std::__ndk1::money_get<char, std::__ndk1::istreambuf_iterator<char, std::__ndk1::char_traits<char> > >::do_get(std::__ndk1::istreambuf_iterator<char, std::__ndk1::char_traits<char> >, std::__ndk1::istreambuf_iterator<char, std::__ndk1::char_traits<char> >, bool, std::__ndk1::ios_base&, unsigned int&, long double&) const
FUNC bd428 8 0 std::__ndk1::__do_nothing(void*)
FUNC bd430 1208 0 std::__ndk1::money_get<char, std::__ndk1::istreambuf_iterator<char, std::__ndk1::char_traits<char> > >::__do_get(std::__ndk1::istreambuf_iterator<char, std::__ndk1::char_traits<char> >&, std::__ndk1::istreambuf_iterator<char, std::__ndk1::char_traits<char> >, bool, std::__ndk1::locale const&, unsigned int, unsigned int&, bool&, std::__ndk1::ctype<char> const&, std::__ndk1::unique_ptr<char, void (*)(void*)>&, char*&, char*)
FUNC be638 2c0 0 std::__ndk1::money_get<char, std::__ndk1::istreambuf_iterator<char, std::__ndk1::char_traits<char> > >::do_get(std::__ndk1::istreambuf_iterator<char, std::__ndk1::char_traits<char> >, std::__ndk1::istreambuf_iterator<char, std::__ndk1::char_traits<char> >, bool, std::__ndk1::ios_base&, unsigned int&, std::__ndk1::basic_string<char, std::__ndk1::char_traits<char>, std::__ndk1::allocator<char> >&) const
FUNC be8f8 368 0 _ZNSt6__ndk112basic_stringIcNS_11char_traitsIcEENS_9allocatorIcEEE6appendB8ne190000IPcTnNS_9enable_ifIXsr31__has_forward_iterator_categoryIT_EE5valueEiE4typeELi0EEERS5_S9_S9_
FUNC bec60 228 0 std::__ndk1::__money_get<char>::__gather_info(bool, std::__ndk1::locale const&, std::__ndk1::money_base::pattern&, char&, char&, std::__ndk1::basic_string<char, std::__ndk1::char_traits<char>, std::__ndk1::allocator<char> >&, std::__ndk1::basic_string<char, std::__ndk1::char_traits<char>, std::__ndk1::allocator<char> >&, std::__ndk1::basic_string<char, std::__ndk1::char_traits<char>, std::__ndk1::allocator<char> >&, std::__ndk1::basic_string<char, std::__ndk1::char_traits<char>, std::__ndk1::allocator<char> >&, int&)
FUNC bee88 f8 0 std::__ndk1::__check_grouping(std::__ndk1::basic_string<char, std::__ndk1::char_traits<char>, std::__ndk1::allocator<char> > const&, unsigned int*, unsigned int*, unsigned int&)
FUNC bef80 348 0 std::__ndk1::money_get<wchar_t, std::__ndk1::istreambuf_iterator<wchar_t, std::__ndk1::char_traits<wchar_t> > >::do_get(std::__ndk1::istreambuf_iterator<wchar_t, std::__ndk1::char_traits<wchar_t> >, std::__ndk1::istreambuf_iterator<wchar_t, std::__ndk1::char_traits<wchar_t> >, bool, std::__ndk1::ios_base&, unsigned int&, long double&) const
FUNC bf2c8 132c 0 std::__ndk1::money_get<wchar_t, std::__ndk1::istreambuf_iterator<wchar_t, std::__ndk1::char_traits<wchar_t> > >::__do_get(std::__ndk1::istreambuf_iterator<wchar_t, std::__ndk1::char_traits<wchar_t> >&, std::__ndk1::istreambuf_iterator<wchar_t, std::__ndk1::char_traits<wchar_t> >, bool, std::__ndk1::locale const&, unsigned int, unsigned int&, bool&, std::__ndk1::ctype<wchar_t> const&, std::__ndk1::unique_ptr<wchar_t, void (*)(void*)>&, wchar_t*&, wchar_t*)
FUNC c05f4 32c 0 std::__ndk1::money_get<wchar_t, std::__ndk1::istreambuf_iterator<wchar_t, std::__ndk1::char_traits<wchar_t> > >::do_get(std::__ndk1::istreambuf_iterator<wchar_t, std::__ndk1::char_traits<wchar_t> >, std::__ndk1::istreambuf_iterator<wchar_t, std::__ndk1::char_traits<wchar_t> >, bool, std::__ndk1::ios_base&, unsigned int&, std::__ndk1::basic_string<wchar_t, std::__ndk1::char_traits<wchar_t>, std::__ndk1::allocator<wchar_t> >&) const
FUNC c0920 320 0 _ZNSt6__ndk112basic_stringIwNS_11char_traitsIwEENS_9allocatorIwEEE6appendB8ne190000IPwTnNS_9enable_ifIXsr31__has_forward_iterator_categoryIT_EE5valueEiE4typeELi0EEERS5_S9_S9_
FUNC c0c40 228 0 std::__ndk1::__money_get<wchar_t>::__gather_info(bool, std::__ndk1::locale const&, std::__ndk1::money_base::pattern&, wchar_t&, wchar_t&, std::__ndk1::basic_string<char, std::__ndk1::char_traits<char>, std::__ndk1::allocator<char> >&, std::__ndk1::basic_string<wchar_t, std::__ndk1::char_traits<wchar_t>, std::__ndk1::allocator<wchar_t> >&, std::__ndk1::basic_string<wchar_t, std::__ndk1::char_traits<wchar_t>, std::__ndk1::allocator<wchar_t> >&, std::__ndk1::basic_string<wchar_t, std::__ndk1::char_traits<wchar_t>, std::__ndk1::allocator<wchar_t> >&, int&)
FUNC c0e68 4ac 0 std::__ndk1::money_put<char, std::__ndk1::ostreambuf_iterator<char, std::__ndk1::char_traits<char> > >::do_put(std::__ndk1::ostreambuf_iterator<char, std::__ndk1::char_traits<char> >, bool, std::__ndk1::ios_base&, char, long double) const
FUNC c1314 cc 0 std::__ndk1::__libcpp_asprintf_l(char**, __locale_t*, char const*, ...)
FUNC c13e0 214 0 std::__ndk1::__money_put<char>::__gather_info(bool, bool, std::__ndk1::locale const&, std::__ndk1::money_base::pattern&, char&, char&, std::__ndk1::basic_string<char, std::__ndk1::char_traits<char>, std::__ndk1::allocator<char> >&, std::__ndk1::basic_string<char, std::__ndk1::char_traits<char>, std::__ndk1::allocator<char> >&, std::__ndk1::basic_string<char, std::__ndk1::char_traits<char>, std::__ndk1::allocator<char> >&, int&)
FUNC c15f4 46c 0 std::__ndk1::__money_put<char>::__format(char*, char*&, char*&, unsigned int, char const*, char const*, std::__ndk1::ctype<char> const&, bool, std::__ndk1::money_base::pattern const&, char, char, std::__ndk1::basic_string<char, std::__ndk1::char_traits<char>, std::__ndk1::allocator<char> > const&, std::__ndk1::basic_string<char, std::__ndk1::char_traits<char>, std::__ndk1::allocator<char> > const&, std::__ndk1::basic_string<char, std::__ndk1::char_traits<char>, std::__ndk1::allocator<char> > const&, int)
FUNC c1a60 384 0 std::__ndk1::money_put<char, std::__ndk1::ostreambuf_iterator<char, std::__ndk1::char_traits<char> > >::do_put(std::__ndk1::ostreambuf_iterator<char, std::__ndk1::char_traits<char> >, bool, std::__ndk1::ios_base&, char, std::__ndk1::basic_string<char, std::__ndk1::char_traits<char>, std::__ndk1::allocator<char> > const&) const
FUNC c1de4 4b8 0 std::__ndk1::money_put<wchar_t, std::__ndk1::ostreambuf_iterator<wchar_t, std::__ndk1::char_traits<wchar_t> > >::do_put(std::__ndk1::ostreambuf_iterator<wchar_t, std::__ndk1::char_traits<wchar_t> >, bool, std::__ndk1::ios_base&, wchar_t, long double) const
FUNC c229c 214 0 std::__ndk1::__money_put<wchar_t>::__gather_info(bool, bool, std::__ndk1::locale const&, std::__ndk1::money_base::pattern&, wchar_t&, wchar_t&, std::__ndk1::basic_string<char, std::__ndk1::char_traits<char>, std::__ndk1::allocator<char> >&, std::__ndk1::basic_string<wchar_t, std::__ndk1::char_traits<wchar_t>, std::__ndk1::allocator<wchar_t> >&, std::__ndk1::basic_string<wchar_t, std::__ndk1::char_traits<wchar_t>, std::__ndk1::allocator<wchar_t> >&, int&)
FUNC c24b0 498 0 std::__ndk1::__money_put<wchar_t>::__format(wchar_t*, wchar_t*&, wchar_t*&, unsigned int, wchar_t const*, wchar_t const*, std::__ndk1::ctype<wchar_t> const&, bool, std::__ndk1::money_base::pattern const&, wchar_t, wchar_t, std::__ndk1::basic_string<char, std::__ndk1::char_traits<char>, std::__ndk1::allocator<char> > const&, std::__ndk1::basic_string<wchar_t, std::__ndk1::char_traits<wchar_t>, std::__ndk1::allocator<wchar_t> > const&, std::__ndk1::basic_string<wchar_t, std::__ndk1::char_traits<wchar_t>, std::__ndk1::allocator<wchar_t> > const&, int)
FUNC c2948 394 0 std::__ndk1::money_put<wchar_t, std::__ndk1::ostreambuf_iterator<wchar_t, std::__ndk1::char_traits<wchar_t> > >::do_put(std::__ndk1::ostreambuf_iterator<wchar_t, std::__ndk1::char_traits<wchar_t> >, bool, std::__ndk1::ios_base&, wchar_t, std::__ndk1::basic_string<wchar_t, std::__ndk1::char_traits<wchar_t>, std::__ndk1::allocator<wchar_t> > const&) const
FUNC c2cdc c 0 std::__ndk1::messages<char>::do_open(std::__ndk1::basic_string<char, std::__ndk1::char_traits<char>, std::__ndk1::allocator<char> > const&, std::__ndk1::locale const&) const
FUNC c2ce8 2c 0 std::__ndk1::messages<char>::do_get(long, int, int, std::__ndk1::basic_string<char, std::__ndk1::char_traits<char>, std::__ndk1::allocator<char> > const&) const
FUNC c2d14 8 0 std::__ndk1::messages<char>::do_close(long) const
FUNC c2d1c c 0 std::__ndk1::messages<wchar_t>::do_open(std::__ndk1::basic_string<char, std::__ndk1::char_traits<char>, std::__ndk1::allocator<char> > const&, std::__ndk1::locale const&) const
FUNC c2d28 2c 0 std::__ndk1::messages<wchar_t>::do_get(long, int, int, std::__ndk1::basic_string<wchar_t, std::__ndk1::char_traits<wchar_t>, std::__ndk1::allocator<wchar_t> > const&) const
FUNC c2d54 8 0 std::__ndk1::messages<wchar_t>::do_close(long) const
FUNC c2d5c 8 0 std::__ndk1::codecvt_byname<char, char, mbstate_t>::~codecvt_byname()
FUNC c2d64 2c 0 std::__ndk1::codecvt_byname<char, char, mbstate_t>::~codecvt_byname()
FUNC c2d90 8 0 std::__ndk1::codecvt_byname<wchar_t, char, mbstate_t>::~codecvt_byname()
FUNC c2d98 2c 0 std::__ndk1::codecvt_byname<wchar_t, char, mbstate_t>::~codecvt_byname()
FUNC c2dc4 8 0 std::__ndk1::codecvt_byname<char16_t, char, mbstate_t>::~codecvt_byname()
FUNC c2dcc 2c 0 std::__ndk1::codecvt_byname<char16_t, char, mbstate_t>::~codecvt_byname()
FUNC c2df8 8 0 std::__ndk1::codecvt_byname<char32_t, char, mbstate_t>::~codecvt_byname()
FUNC c2e00 2c 0 std::__ndk1::codecvt_byname<char32_t, char, mbstate_t>::~codecvt_byname()
FUNC c2e2c 8 0 std::__ndk1::codecvt_byname<char16_t, char8_t, mbstate_t>::~codecvt_byname()
FUNC c2e34 2c 0 std::__ndk1::codecvt_byname<char16_t, char8_t, mbstate_t>::~codecvt_byname()
FUNC c2e60 8 0 std::__ndk1::codecvt_byname<char32_t, char8_t, mbstate_t>::~codecvt_byname()
FUNC c2e68 2c 0 std::__ndk1::codecvt_byname<char32_t, char8_t, mbstate_t>::~codecvt_byname()
FUNC c2e94 13c 0 std::__ndk1::build_name(std::__ndk1::basic_string<char, std::__ndk1::char_traits<char>, std::__ndk1::allocator<char> > const&, std::__ndk1::basic_string<char, std::__ndk1::char_traits<char>, std::__ndk1::allocator<char> > const&, int)
FUNC c2fd0 a8 0 std::__ndk1::basic_string<char, std::__ndk1::char_traits<char>, std::__ndk1::allocator<char> >::basic_string[abi:ne190000]<0>()
FUNC c3078 1df0 0 std::__ndk1::locale::__imp::__imp(unsigned long)
FUNC c4e68 6b8 0 std::__ndk1::locale::__imp::__imp(std::__ndk1::basic_string<char, std::__ndk1::char_traits<char>, std::__ndk1::allocator<char> > const&, unsigned long)
FUNC c5520 8c 0 std::__ndk1::locale::classic()
FUNC c55ac 12c 0 std::__ndk1::locale::__imp::install<std::__ndk1::collate_byname<char> >(std::__ndk1::collate_byname<char>*)
FUNC c56d8 12c 0 std::__ndk1::locale::__imp::install<std::__ndk1::collate_byname<wchar_t> >(std::__ndk1::collate_byname<wchar_t>*)
FUNC c5804 12c 0 std::__ndk1::locale::__imp::install<std::__ndk1::ctype_byname<char> >(std::__ndk1::ctype_byname<char>*)
FUNC c5930 12c 0 std::__ndk1::locale::__imp::install<std::__ndk1::ctype_byname<wchar_t> >(std::__ndk1::ctype_byname<wchar_t>*)
FUNC c5a5c 12c 0 std::__ndk1::locale::__imp::install<std::__ndk1::codecvt_byname<char, char, mbstate_t> >(std::__ndk1::codecvt_byname<char, char, mbstate_t>*)
FUNC c5b88 12c 0 std::__ndk1::locale::__imp::install<std::__ndk1::codecvt_byname<wchar_t, char, mbstate_t> >(std::__ndk1::codecvt_byname<wchar_t, char, mbstate_t>*)
FUNC c5cb4 12c 0 std::__ndk1::locale::__imp::install<std::__ndk1::codecvt_byname<char16_t, char, mbstate_t> >(std::__ndk1::codecvt_byname<char16_t, char, mbstate_t>*)
FUNC c5de0 12c 0 std::__ndk1::locale::__imp::install<std::__ndk1::codecvt_byname<char32_t, char, mbstate_t> >(std::__ndk1::codecvt_byname<char32_t, char, mbstate_t>*)
FUNC c5f0c 12c 0 std::__ndk1::locale::__imp::install<std::__ndk1::codecvt_byname<char16_t, char8_t, mbstate_t> >(std::__ndk1::codecvt_byname<char16_t, char8_t, mbstate_t>*)
FUNC c6038 12c 0 std::__ndk1::locale::__imp::install<std::__ndk1::codecvt_byname<char32_t, char8_t, mbstate_t> >(std::__ndk1::codecvt_byname<char32_t, char8_t, mbstate_t>*)
FUNC c6164 12c 0 std::__ndk1::locale::__imp::install<std::__ndk1::numpunct_byname<char> >(std::__ndk1::numpunct_byname<char>*)
FUNC c6290 12c 0 std::__ndk1::locale::__imp::install<std::__ndk1::numpunct_byname<wchar_t> >(std::__ndk1::numpunct_byname<wchar_t>*)
FUNC c63bc 12c 0 std::__ndk1::locale::__imp::install<std::__ndk1::moneypunct_byname<char, false> >(std::__ndk1::moneypunct_byname<char, false>*)
FUNC c64e8 e4 0 std::__ndk1::moneypunct_byname<char, false>::moneypunct_byname[abi:ne190000](std::__ndk1::basic_string<char, std::__ndk1::char_traits<char>, std::__ndk1::allocator<char> > const&, unsigned long)
FUNC c65cc 12c 0 std::__ndk1::locale::__imp::install<std::__ndk1::moneypunct_byname<char, true> >(std::__ndk1::moneypunct_byname<char, true>*)
FUNC c66f8 e4 0 std::__ndk1::moneypunct_byname<char, true>::moneypunct_byname[abi:ne190000](std::__ndk1::basic_string<char, std::__ndk1::char_traits<char>, std::__ndk1::allocator<char> > const&, unsigned long)
FUNC c67dc 12c 0 std::__ndk1::locale::__imp::install<std::__ndk1::moneypunct_byname<wchar_t, false> >(std::__ndk1::moneypunct_byname<wchar_t, false>*)
FUNC c6908 e4 0 std::__ndk1::moneypunct_byname<wchar_t, false>::moneypunct_byname[abi:ne190000](std::__ndk1::basic_string<char, std::__ndk1::char_traits<char>, std::__ndk1::allocator<char> > const&, unsigned long)
FUNC c69ec 12c 0 std::__ndk1::locale::__imp::install<std::__ndk1::moneypunct_byname<wchar_t, true> >(std::__ndk1::moneypunct_byname<wchar_t, true>*)
FUNC c6b18 e4 0 std::__ndk1::moneypunct_byname<wchar_t, true>::moneypunct_byname[abi:ne190000](std::__ndk1::basic_string<char, std::__ndk1::char_traits<char>, std::__ndk1::allocator<char> > const&, unsigned long)
FUNC c6bfc 12c 0 std::__ndk1::locale::__imp::install<std::__ndk1::time_get_byname<char, std::__ndk1::istreambuf_iterator<char, std::__ndk1::char_traits<char> > > >(std::__ndk1::time_get_byname<char, std::__ndk1::istreambuf_iterator<char, std::__ndk1::char_traits<char> > >*)
FUNC c6d28 12c 0 std::__ndk1::locale::__imp::install<std::__ndk1::time_get_byname<wchar_t, std::__ndk1::istreambuf_iterator<wchar_t, std::__ndk1::char_traits<wchar_t> > > >(std::__ndk1::time_get_byname<wchar_t, std::__ndk1::istreambuf_iterator<wchar_t, std::__ndk1::char_traits<wchar_t> > >*)
FUNC c6e54 12c 0 std::__ndk1::locale::__imp::install<std::__ndk1::time_put_byname<char, std::__ndk1::ostreambuf_iterator<char, std::__ndk1::char_traits<char> > > >(std::__ndk1::time_put_byname<char, std::__ndk1::ostreambuf_iterator<char, std::__ndk1::char_traits<char> > >*)
FUNC c6f80 12c 0 std::__ndk1::locale::__imp::install<std::__ndk1::time_put_byname<wchar_t, std::__ndk1::ostreambuf_iterator<wchar_t, std::__ndk1::char_traits<wchar_t> > > >(std::__ndk1::time_put_byname<wchar_t, std::__ndk1::ostreambuf_iterator<wchar_t, std::__ndk1::char_traits<wchar_t> > >*)
FUNC c70ac 12c 0 std::__ndk1::locale::__imp::install<std::__ndk1::messages_byname<char> >(std::__ndk1::messages_byname<char>*)
FUNC c71d8 12c 0 std::__ndk1::locale::__imp::install<std::__ndk1::messages_byname<wchar_t> >(std::__ndk1::messages_byname<wchar_t>*)
FUNC c7304 650 0 std::__ndk1::locale::__imp::__imp(std::__ndk1::locale::__imp const&, std::__ndk1::basic_string<char, std::__ndk1::char_traits<char>, std::__ndk1::allocator<char> > const&, int)
FUNC c7954 364 0 std::__ndk1::locale::__imp::__imp(std::__ndk1::locale::__imp const&, std::__ndk1::locale::__imp const&, int)
FUNC c7cb8 144 0 std::__ndk1::locale::__imp::install_from<std::__ndk1::collate<char> >(std::__ndk1::locale::__imp const&)
FUNC c7dfc 144 0 std::__ndk1::locale::__imp::install_from<std::__ndk1::collate<wchar_t> >(std::__ndk1::locale::__imp const&)
FUNC c7f40 144 0 std::__ndk1::locale::__imp::install_from<std::__ndk1::ctype<char> >(std::__ndk1::locale::__imp const&)
FUNC c8084 144 0 std::__ndk1::locale::__imp::install_from<std::__ndk1::ctype<wchar_t> >(std::__ndk1::locale::__imp const&)
FUNC c81c8 144 0 std::__ndk1::locale::__imp::install_from<std::__ndk1::codecvt<char, char, mbstate_t> >(std::__ndk1::locale::__imp const&)
FUNC c830c 144 0 std::__ndk1::locale::__imp::install_from<std::__ndk1::codecvt<char16_t, char, mbstate_t> >(std::__ndk1::locale::__imp const&)
FUNC c8450 144 0 std::__ndk1::locale::__imp::install_from<std::__ndk1::codecvt<char32_t, char, mbstate_t> >(std::__ndk1::locale::__imp const&)
FUNC c8594 144 0 std::__ndk1::locale::__imp::install_from<std::__ndk1::codecvt<char16_t, char8_t, mbstate_t> >(std::__ndk1::locale::__imp const&)
FUNC c86d8 144 0 std::__ndk1::locale::__imp::install_from<std::__ndk1::codecvt<char32_t, char8_t, mbstate_t> >(std::__ndk1::locale::__imp const&)
FUNC c881c 144 0 std::__ndk1::locale::__imp::install_from<std::__ndk1::codecvt<wchar_t, char, mbstate_t> >(std::__ndk1::locale::__imp const&)
FUNC c8960 144 0 std::__ndk1::locale::__imp::install_from<std::__ndk1::moneypunct<char, false> >(std::__ndk1::locale::__imp const&)
FUNC c8aa4 144 0 std::__ndk1::locale::__imp::install_from<std::__ndk1::moneypunct<char, true> >(std::__ndk1::locale::__imp const&)
FUNC c8be8 144 0 std::__ndk1::locale::__imp::install_from<std::__ndk1::moneypunct<wchar_t, false> >(std::__ndk1::locale::__imp const&)
FUNC c8d2c 144 0 std::__ndk1::locale::__imp::install_from<std::__ndk1::moneypunct<wchar_t, true> >(std::__ndk1::locale::__imp const&)
FUNC c8e70 144 0 std::__ndk1::locale::__imp::install_from<std::__ndk1::money_get<char, std::__ndk1::istreambuf_iterator<char, std::__ndk1::char_traits<char> > > >(std::__ndk1::locale::__imp const&)
FUNC c8fb4 144 0 std::__ndk1::locale::__imp::install_from<std::__ndk1::money_get<wchar_t, std::__ndk1::istreambuf_iterator<wchar_t, std::__ndk1::char_traits<wchar_t> > > >(std::__ndk1::locale::__imp const&)
FUNC c90f8 144 0 std::__ndk1::locale::__imp::install_from<std::__ndk1::money_put<char, std::__ndk1::ostreambuf_iterator<char, std::__ndk1::char_traits<char> > > >(std::__ndk1::locale::__imp const&)
FUNC c923c 144 0 std::__ndk1::locale::__imp::install_from<std::__ndk1::money_put<wchar_t, std::__ndk1::ostreambuf_iterator<wchar_t, std::__ndk1::char_traits<wchar_t> > > >(std::__ndk1::locale::__imp const&)
FUNC c9380 144 0 std::__ndk1::locale::__imp::install_from<std::__ndk1::numpunct<char> >(std::__ndk1::locale::__imp const&)
FUNC c94c4 144 0 std::__ndk1::locale::__imp::install_from<std::__ndk1::numpunct<wchar_t> >(std::__ndk1::locale::__imp const&)
FUNC c9608 144 0 std::__ndk1::locale::__imp::install_from<std::__ndk1::num_get<char, std::__ndk1::istreambuf_iterator<char, std::__ndk1::char_traits<char> > > >(std::__ndk1::locale::__imp const&)
FUNC c974c 144 0 std::__ndk1::locale::__imp::install_from<std::__ndk1::num_get<wchar_t, std::__ndk1::istreambuf_iterator<wchar_t, std::__ndk1::char_traits<wchar_t> > > >(std::__ndk1::locale::__imp const&)
FUNC c9890 144 0 std::__ndk1::locale::__imp::install_from<std::__ndk1::num_put<char, std::__ndk1::ostreambuf_iterator<char, std::__ndk1::char_traits<char> > > >(std::__ndk1::locale::__imp const&)
FUNC c99d4 144 0 std::__ndk1::locale::__imp::install_from<std::__ndk1::num_put<wchar_t, std::__ndk1::ostreambuf_iterator<wchar_t, std::__ndk1::char_traits<wchar_t> > > >(std::__ndk1::locale::__imp const&)
FUNC c9b18 144 0 std::__ndk1::locale::__imp::install_from<std::__ndk1::time_get<char, std::__ndk1::istreambuf_iterator<char, std::__ndk1::char_traits<char> > > >(std::__ndk1::locale::__imp const&)
FUNC c9c5c 144 0 std::__ndk1::locale::__imp::install_from<std::__ndk1::time_get<wchar_t, std::__ndk1::istreambuf_iterator<wchar_t, std::__ndk1::char_traits<wchar_t> > > >(std::__ndk1::locale::__imp const&)
FUNC c9da0 144 0 std::__ndk1::locale::__imp::install_from<std::__ndk1::time_put<char, std::__ndk1::ostreambuf_iterator<char, std::__ndk1::char_traits<char> > > >(std::__ndk1::locale::__imp const&)
FUNC c9ee4 144 0 std::__ndk1::locale::__imp::install_from<std::__ndk1::time_put<wchar_t, std::__ndk1::ostreambuf_iterator<wchar_t, std::__ndk1::char_traits<wchar_t> > > >(std::__ndk1::locale::__imp const&)
FUNC ca028 144 0 std::__ndk1::locale::__imp::install_from<std::__ndk1::messages<char> >(std::__ndk1::locale::__imp const&)
FUNC ca16c 144 0 std::__ndk1::locale::__imp::install_from<std::__ndk1::messages<wchar_t> >(std::__ndk1::locale::__imp const&)
FUNC ca2b0 2d4 0 std::__ndk1::locale::__imp::__imp(std::__ndk1::locale::__imp const&, std::__ndk1::locale::facet*, long)
FUNC ca584 d4 0 std::__ndk1::locale::__imp::~__imp()
FUNC ca658 2c 0 std::__ndk1::locale::__imp::~__imp()
FUNC ca684 84 0 std::__ndk1::locale::__global()
FUNC ca708 a8 0 std::__ndk1::locale::locale()
FUNC ca7b0 40 0 std::__ndk1::locale::locale(std::__ndk1::locale const&)
FUNC ca7f0 60 0 std::__ndk1::locale::~locale()
FUNC ca850 88 0 std::__ndk1::locale::operator=(std::__ndk1::locale const&)
FUNC ca8d8 138 0 std::__ndk1::locale::locale(char const*)
FUNC caa10 6c 0 std::__ndk1::locale::locale(std::__ndk1::basic_string<char, std::__ndk1::char_traits<char>, std::__ndk1::allocator<char> > const&)
FUNC caa7c 150 0 std::__ndk1::locale::locale(std::__ndk1::locale const&, char const*, int)
FUNC cabcc 78 0 std::__ndk1::locale::locale(std::__ndk1::locale const&, std::__ndk1::basic_string<char, std::__ndk1::char_traits<char>, std::__ndk1::allocator<char> > const&, int)
FUNC cac44 78 0 std::__ndk1::locale::locale(std::__ndk1::locale const&, std::__ndk1::locale const&, int)
FUNC cacbc 30 0 std::__ndk1::locale::name() const
FUNC cacec 98 0 std::__ndk1::locale::__install_ctor(std::__ndk1::locale const&, std::__ndk1::locale::facet*, long)
FUNC cad84 208 0 std::__ndk1::locale::global(std::__ndk1::locale const&)
FUNC caf8c 90 0 std::__ndk1::locale::has_facet(std::__ndk1::locale::id&) const
FUNC cb01c 68 0 std::__ndk1::locale::id::__get()
FUNC cb084 88 0 std::__ndk1::locale::use_facet(std::__ndk1::locale::id&) const
FUNC cb10c f0 0 std::__ndk1::locale::operator==(std::__ndk1::locale const&) const
FUNC cb1fc 2c 0 std::__ndk1::locale::facet::~facet()
FUNC cb228 10 0 std::__ndk1::locale::facet::__on_zero_shared()
FUNC cb238 d8 0 std::__ndk1::collate_byname<char>::collate_byname(char const*, unsigned long)
FUNC cb310 64 0 std::__ndk1::operator+[abi:ne190000]<char, std::__ndk1::char_traits<char>, std::__ndk1::allocator<char> >(std::__ndk1::basic_string const*, std::__ndk1::allocator<char>&&)
FUNC cb374 c4 0 std::__ndk1::collate_byname<char>::collate_byname(std::__ndk1::basic_string<char, std::__ndk1::char_traits<char>, std::__ndk1::allocator<char> > const&, unsigned long)
FUNC cb438 44 0 std::__ndk1::collate_byname<char>::~collate_byname()
FUNC cb47c 2c 0 std::__ndk1::collate_byname<char>::~collate_byname()
FUNC cb4a8 1d8 0 std::__ndk1::collate_byname<char>::do_compare(char const*, char const*, char const*, char const*) const
FUNC cb680 1fc 0 std::__ndk1::collate_byname<char>::do_transform(char const*, char const*) const
FUNC cb87c d8 0 std::__ndk1::collate_byname<wchar_t>::collate_byname(char const*, unsigned long)
FUNC cb954 c4 0 std::__ndk1::collate_byname<wchar_t>::collate_byname(std::__ndk1::basic_string<char, std::__ndk1::char_traits<char>, std::__ndk1::allocator<char> > const&, unsigned long)
FUNC cba18 44 0 std::__ndk1::collate_byname<wchar_t>::~collate_byname()
FUNC cba5c 2c 0 std::__ndk1::collate_byname<wchar_t>::~collate_byname()
FUNC cba88 218 0 std::__ndk1::collate_byname<wchar_t>::do_compare(wchar_t const*, wchar_t const*, wchar_t const*, wchar_t const*) const
FUNC cbca0 234 0 std::__ndk1::collate_byname<wchar_t>::do_transform(wchar_t const*, wchar_t const*) const
FUNC cbed4 2c 0 std::__ndk1::ctype<wchar_t>::~ctype()
FUNC cbf00 2c 0 std::__ndk1::ctype<wchar_t>::do_is(unsigned long, wchar_t) const
FUNC cbf2c 10 0 std::__ndk1::ctype<char>::classic_table()
FUNC cbf3c 4c 0 std::__ndk1::ctype<wchar_t>::do_is(wchar_t const*, wchar_t const*, unsigned long*) const
FUNC cbf88 4c 0 std::__ndk1::ctype<wchar_t>::do_scan_is(unsigned long, wchar_t const*, wchar_t const*) const
FUNC cbfd4 44 0 std::__ndk1::ctype<wchar_t>::do_scan_not(unsigned long, wchar_t const*, wchar_t const*) const
FUNC cc018 ac 0 std::__ndk1::ctype<wchar_t>::do_toupper(wchar_t) const
FUNC cc0c4 d4 0 std::__ndk1::ctype<wchar_t>::do_toupper(wchar_t*, wchar_t const*) const
FUNC cc198 a4 0 std::__ndk1::ctype<wchar_t>::do_tolower(wchar_t) const
FUNC cc23c d4 0 std::__ndk1::ctype<wchar_t>::do_tolower(wchar_t*, wchar_t const*) const
FUNC cc310 c 0 std::__ndk1::ctype<wchar_t>::do_widen(char) const
FUNC cc31c 130 0 std::__ndk1::ctype<wchar_t>::do_widen(char const*, char const*, wchar_t*) const
FUNC cc44c 10 0 std::__ndk1::ctype<wchar_t>::do_narrow(wchar_t, char) const
FUNC cc45c 188 0 std::__ndk1::ctype<wchar_t>::do_narrow(wchar_t const*, wchar_t const*, char, char*) const
FUNC cc5e4 38 0 std::__ndk1::ctype<char>::ctype(unsigned long const*, bool, unsigned long)
FUNC cc61c 54 0 std::__ndk1::ctype<char>::~ctype()
FUNC cc670 2c 0 std::__ndk1::ctype<char>::~ctype()
FUNC cc69c a4 0 std::__ndk1::ctype<char>::do_toupper(char) const
FUNC cc740 d4 0 std::__ndk1::ctype<char>::do_toupper(char*, char const*) const
FUNC cc814 a4 0 std::__ndk1::ctype<char>::do_tolower(char) const
FUNC cc8b8 d4 0 std::__ndk1::ctype<char>::do_tolower(char*, char const*) const
FUNC cc98c c 0 std::__ndk1::ctype<char>::do_widen(char) const
FUNC cc998 d0 0 std::__ndk1::ctype<char>::do_widen(char const*, char const*, char*) const
FUNC cca68 14 0 std::__ndk1::ctype<char>::do_narrow(char, char) const
FUNC cca7c f8 0 std::__ndk1::ctype<char>::do_narrow(char const*, char const*, char, char*) const
FUNC ccb74 e8 0 std::__ndk1::ctype_byname<char>::ctype_byname(char const*, unsigned long)
FUNC ccc5c d4 0 std::__ndk1::ctype_byname<char>::ctype_byname(std::__ndk1::basic_string<char, std::__ndk1::char_traits<char>, std::__ndk1::allocator<char> > const&, unsigned long)
FUNC ccd30 2c 0 std::__ndk1::ctype_byname<char>::~ctype_byname()
FUNC ccd5c 1c 0 std::__ndk1::ctype_byname<char>::do_toupper(char) const
FUNC ccd78 1ac 0 std::__ndk1::ctype_byname<char>::do_toupper(char*, char const*) const
FUNC ccf24 1c 0 std::__ndk1::ctype_byname<char>::do_tolower(char) const
FUNC ccf40 1ac 0 std::__ndk1::ctype_byname<char>::do_tolower(char*, char const*) const
FUNC cd0ec d8 0 std::__ndk1::ctype_byname<wchar_t>::ctype_byname(char const*, unsigned long)
FUNC cd1c4 c4 0 std::__ndk1::ctype_byname<wchar_t>::ctype_byname(std::__ndk1::basic_string<char, std::__ndk1::char_traits<char>, std::__ndk1::allocator<char> > const&, unsigned long)
FUNC cd288 2c 0 std::__ndk1::ctype_byname<wchar_t>::~ctype_byname()
FUNC cd2b4 154 0 std::__ndk1::ctype_byname<wchar_t>::do_is(unsigned long, wchar_t) const
FUNC cd408 19c 0 std::__ndk1::ctype_byname<wchar_t>::do_is(wchar_t const*, wchar_t const*, unsigned long*) const
FUNC cd5a4 130 0 std::__ndk1::ctype_byname<wchar_t>::do_scan_is(unsigned long, wchar_t const*, wchar_t const*) const
FUNC cd6d4 130 0 std::__ndk1::ctype_byname<wchar_t>::do_scan_not(unsigned long, wchar_t const*, wchar_t const*) const
FUNC cd804 14 0 std::__ndk1::ctype_byname<wchar_t>::do_toupper(wchar_t) const
FUNC cd818 5c 0 std::__ndk1::ctype_byname<wchar_t>::do_toupper(wchar_t*, wchar_t const*) const
FUNC cd874 14 0 std::__ndk1::ctype_byname<wchar_t>::do_tolower(wchar_t) const
FUNC cd888 5c 0 std::__ndk1::ctype_byname<wchar_t>::do_tolower(wchar_t*, wchar_t const*) const
FUNC cd8e4 70 0 std::__ndk1::ctype_byname<wchar_t>::do_widen(char) const
FUNC cd954 b4 0 std::__ndk1::ctype_byname<wchar_t>::do_widen(char const*, char const*, wchar_t*) const
FUNC cda08 78 0 std::__ndk1::ctype_byname<wchar_t>::do_narrow(wchar_t, char) const
FUNC cda80 c0 0 std::__ndk1::ctype_byname<wchar_t>::do_narrow(wchar_t const*, wchar_t const*, char, char*) const
FUNC cdb40 2c 0 std::__ndk1::codecvt<char, char, mbstate_t>::~codecvt()
FUNC cdb6c 14 0 std::__ndk1::codecvt<char, char, mbstate_t>::do_out(mbstate_t&, char const*, char const*, char const*&, char*, char*, char*&) const
FUNC cdb80 14 0 std::__ndk1::codecvt<char, char, mbstate_t>::do_in(mbstate_t&, char const*, char const*, char const*&, char*, char*, char*&) const
FUNC cdb94 10 0 std::__ndk1::codecvt<char, char, mbstate_t>::do_unshift(mbstate_t&, char*, char*, char*&) const
FUNC cdba4 c 0 std::__ndk1::codecvt<char, char, mbstate_t>::do_encoding() const
FUNC cdbb0 c 0 std::__ndk1::codecvt<char, char, mbstate_t>::do_always_noconv() const
FUNC cdbbc 14 0 std::__ndk1::codecvt<char, char, mbstate_t>::do_length(mbstate_t&, char const*, char const*, unsigned long) const
FUNC cdbd0 c 0 std::__ndk1::codecvt<char, char, mbstate_t>::do_max_length() const
FUNC cdbdc ac 0 std::__ndk1::codecvt<wchar_t, char, mbstate_t>::codecvt(unsigned long)
FUNC cdc88 d8 0 std::__ndk1::codecvt<wchar_t, char, mbstate_t>::codecvt(char const*, unsigned long)
FUNC cdd60 2c 0 std::__ndk1::codecvt<wchar_t, char, mbstate_t>::~codecvt()
FUNC cdd8c 2c4 0 std::__ndk1::codecvt<wchar_t, char, mbstate_t>::do_out(mbstate_t&, wchar_t const*, wchar_t const*, wchar_t const*&, char*, char*, char*&) const
FUNC ce050 2b4 0 std::__ndk1::codecvt<wchar_t, char, mbstate_t>::do_in(mbstate_t&, char const*, char const*, char const*&, wchar_t*, wchar_t*, wchar_t*&) const
FUNC ce304 e0 0 std::__ndk1::codecvt<wchar_t, char, mbstate_t>::do_unshift(mbstate_t&, char*, char*, char*&) const
FUNC ce3e4 c4 0 std::__ndk1::codecvt<wchar_t, char, mbstate_t>::do_encoding() const
FUNC ce4a8 c 0 std::__ndk1::codecvt<wchar_t, char, mbstate_t>::do_always_noconv() const
FUNC ce4b4 f8 0 std::__ndk1::codecvt<wchar_t, char, mbstate_t>::do_length(mbstate_t&, char const*, char const*, unsigned long) const
FUNC ce5ac 78 0 std::__ndk1::codecvt<wchar_t, char, mbstate_t>::do_max_length() const
FUNC ce624 2c 0 std::__ndk1::codecvt<char16_t, char, mbstate_t>::~codecvt()
FUNC ce650 68 0 std::__ndk1::codecvt<char16_t, char, mbstate_t>::do_out(mbstate_t&, char16_t const*, char16_t const*, char16_t const*&, char*, char*, char*&) const
FUNC ce6b8 25c 0 std::__ndk1::utf16_to_utf8(unsigned short const*, unsigned short const*, unsigned short const*&, unsigned char*, unsigned char*, unsigned char*&, unsigned long, std::__ndk1::codecvt_mode)
FUNC ce914 68 0 std::__ndk1::codecvt<char16_t, char, mbstate_t>::do_in(mbstate_t&, char const*, char const*, char const*&, char16_t*, char16_t*, char16_t*&) const
FUNC ce97c 294 0 std::__ndk1::utf8_to_utf16(unsigned char const*, unsigned char const*, unsigned char const*&, unsigned short*, unsigned short*, unsigned short*&, unsigned long, std::__ndk1::codecvt_mode)
FUNC cec10 10 0 std::__ndk1::codecvt<char16_t, char, mbstate_t>::do_unshift(mbstate_t&, char*, char*, char*&) const
FUNC cec20 c 0 std::__ndk1::codecvt<char16_t, char, mbstate_t>::do_encoding() const
FUNC cec2c c 0 std::__ndk1::codecvt<char16_t, char, mbstate_t>::do_always_noconv() const
FUNC cec38 1c 0 std::__ndk1::codecvt<char16_t, char, mbstate_t>::do_length(mbstate_t&, char const*, char const*, unsigned long) const
FUNC cec54 200 0 std::__ndk1::utf8_to_utf16_length(unsigned char const*, unsigned char const*, unsigned long, unsigned long, std::__ndk1::codecvt_mode)
FUNC cee54 c 0 std::__ndk1::codecvt<char16_t, char, mbstate_t>::do_max_length() const
FUNC cee60 2c 0 std::__ndk1::codecvt<char16_t, char8_t, mbstate_t>::~codecvt()
FUNC cee8c 68 0 std::__ndk1::codecvt<char16_t, char8_t, mbstate_t>::do_out(mbstate_t&, char16_t const*, char16_t const*, char16_t const*&, char8_t*, char8_t*, char8_t*&) const
FUNC ceef4 68 0 std::__ndk1::codecvt<char16_t, char8_t, mbstate_t>::do_in(mbstate_t&, char8_t const*, char8_t const*, char8_t const*&, char16_t*, char16_t*, char16_t*&) const
FUNC cef5c 10 0 std::__ndk1::codecvt<char16_t, char8_t, mbstate_t>::do_unshift(mbstate_t&, char8_t*, char8_t*, char8_t*&) const
FUNC cef6c c 0 std::__ndk1::codecvt<char16_t, char8_t, mbstate_t>::do_encoding() const
FUNC cef78 c 0 std::__ndk1::codecvt<char16_t, char8_t, mbstate_t>::do_always_noconv() const
FUNC cef84 1c 0 std::__ndk1::codecvt<char16_t, char8_t, mbstate_t>::do_length(mbstate_t&, char8_t const*, char8_t const*, unsigned long) const
FUNC cefa0 c 0 std::__ndk1::codecvt<char16_t, char8_t, mbstate_t>::do_max_length() const
FUNC cefac 2c 0 std::__ndk1::codecvt<char32_t, char, mbstate_t>::~codecvt()
FUNC cefd8 128 0 std::__ndk1::codecvt<char32_t, char, mbstate_t>::do_out(mbstate_t&, char32_t const*, char32_t const*, char32_t const*&, char*, char*, char*&) const
FUNC cf100 188 0 std::__ndk1::ucs4_to_utf8(unsigned int const*, unsigned int const*, unsigned int const*&, unsigned char*, unsigned char*, unsigned char*&, unsigned long, std::__ndk1::codecvt_mode)
FUNC cf288 68 0 std::__ndk1::codecvt<char32_t, char, mbstate_t>::do_in(mbstate_t&, char const*, char const*, char const*&, char32_t*, char32_t*, char32_t*&) const
FUNC cf2f0 244 0 std::__ndk1::utf8_to_ucs4(unsigned char const*, unsigned char const*, unsigned char const*&, unsigned int*, unsigned int*, unsigned int*&, unsigned long, std::__ndk1::codecvt_mode)
FUNC cf534 10 0 std::__ndk1::codecvt<char32_t, char, mbstate_t>::do_unshift(mbstate_t&, char*, char*, char*&) const
FUNC cf544 c 0 std::__ndk1::codecvt<char32_t, char, mbstate_t>::do_encoding() const
FUNC cf550 c 0 std::__ndk1::codecvt<char32_t, char, mbstate_t>::do_always_noconv() const
FUNC cf55c 1c 0 std::__ndk1::codecvt<char32_t, char, mbstate_t>::do_length(mbstate_t&, char const*, char const*, unsigned long) const
FUNC cf578 1e4 0 std::__ndk1::utf8_to_ucs4_length(unsigned char const*, unsigned char const*, unsigned long, unsigned long, std::__ndk1::codecvt_mode)
FUNC cf75c c 0 std::__ndk1::codecvt<char32_t, char, mbstate_t>::do_max_length() const
FUNC cf768 2c 0 std::__ndk1::codecvt<char32_t, char8_t, mbstate_t>::~codecvt()
FUNC cf794 128 0 std::__ndk1::codecvt<char32_t, char8_t, mbstate_t>::do_out(mbstate_t&, char32_t const*, char32_t const*, char32_t const*&, char8_t*, char8_t*, char8_t*&) const
FUNC cf8bc 68 0 std::__ndk1::codecvt<char32_t, char8_t, mbstate_t>::do_in(mbstate_t&, char8_t const*, char8_t const*, char8_t const*&, char32_t*, char32_t*, char32_t*&) const
FUNC cf924 10 0 std::__ndk1::codecvt<char32_t, char8_t, mbstate_t>::do_unshift(mbstate_t&, char8_t*, char8_t*, char8_t*&) const
FUNC cf934 c 0 std::__ndk1::codecvt<char32_t, char8_t, mbstate_t>::do_encoding() const
FUNC cf940 c 0 std::__ndk1::codecvt<char32_t, char8_t, mbstate_t>::do_always_noconv() const
FUNC cf94c 1c 0 std::__ndk1::codecvt<char32_t, char8_t, mbstate_t>::do_length(mbstate_t&, char8_t const*, char8_t const*, unsigned long) const
FUNC cf968 c 0 std::__ndk1::codecvt<char32_t, char8_t, mbstate_t>::do_max_length() const
FUNC cf974 70 0 std::__ndk1::__codecvt_utf8<wchar_t>::do_out(mbstate_t&, wchar_t const*, wchar_t const*, wchar_t const*&, char*, char*, char*&) const
FUNC cf9e4 70 0 std::__ndk1::__codecvt_utf8<wchar_t>::do_in(mbstate_t&, char const*, char const*, char const*&, wchar_t*, wchar_t*, wchar_t*&) const
FUNC cfa54 10 0 std::__ndk1::__codecvt_utf8<wchar_t>::do_unshift(mbstate_t&, char*, char*, char*&) const
FUNC cfa64 c 0 std::__ndk1::__codecvt_utf8<wchar_t>::do_encoding() const
FUNC cfa70 c 0 std::__ndk1::__codecvt_utf8<wchar_t>::do_always_noconv() const
FUNC cfa7c 20 0 std::__ndk1::__codecvt_utf8<wchar_t>::do_length(mbstate_t&, char const*, char const*, unsigned long) const
FUNC cfa9c 1c 0 std::__ndk1::__codecvt_utf8<wchar_t>::do_max_length() const
FUNC cfab8 10c 0 std::__ndk1::__codecvt_utf8<char16_t>::do_out(mbstate_t&, char16_t const*, char16_t const*, char16_t const*&, char*, char*, char*&) const
FUNC cfbc4 190 0 std::__ndk1::__codecvt_utf8<char16_t>::do_in(mbstate_t&, char const*, char const*, char const*&, char16_t*, char16_t*, char16_t*&) const
FUNC cfd54 10 0 std::__ndk1::__codecvt_utf8<char16_t>::do_unshift(mbstate_t&, char*, char*, char*&) const
FUNC cfd64 c 0 std::__ndk1::__codecvt_utf8<char16_t>::do_encoding() const
FUNC cfd70 c 0 std::__ndk1::__codecvt_utf8<char16_t>::do_always_noconv() const
FUNC cfd7c 16c 0 std::__ndk1::__codecvt_utf8<char16_t>::do_length(mbstate_t&, char const*, char const*, unsigned long) const
FUNC cfee8 1c 0 std::__ndk1::__codecvt_utf8<char16_t>::do_max_length() const
FUNC cff04 70 0 std::__ndk1::__codecvt_utf8<char32_t>::do_out(mbstate_t&, char32_t const*, char32_t const*, char32_t const*&, char*, char*, char*&) const
FUNC cff74 70 0 std::__ndk1::__codecvt_utf8<char32_t>::do_in(mbstate_t&, char const*, char const*, char const*&, char32_t*, char32_t*, char32_t*&) const
FUNC cffe4 10 0 std::__ndk1::__codecvt_utf8<char32_t>::do_unshift(mbstate_t&, char*, char*, char*&) const
FUNC cfff4 c 0 std::__ndk1::__codecvt_utf8<char32_t>::do_encoding() const
FUNC d0000 c 0 std::__ndk1::__codecvt_utf8<char32_t>::do_always_noconv() const
FUNC d000c 20 0 std::__ndk1::__codecvt_utf8<char32_t>::do_length(mbstate_t&, char const*, char const*, unsigned long) const
FUNC d002c 1c 0 std::__ndk1::__codecvt_utf8<char32_t>::do_max_length() const
FUNC d0048 e4 0 std::__ndk1::__codecvt_utf16<wchar_t, false>::do_out(mbstate_t&, wchar_t const*, wchar_t const*, wchar_t const*&, char*, char*, char*&) const
FUNC d012c fc 0 std::__ndk1::__codecvt_utf16<wchar_t, false>::do_in(mbstate_t&, char const*, char const*, char const*&, wchar_t*, wchar_t*, wchar_t*&) const
FUNC d0228 10 0 std::__ndk1::__codecvt_utf16<wchar_t, false>::do_unshift(mbstate_t&, char*, char*, char*&) const
FUNC d0238 c 0 std::__ndk1::__codecvt_utf16<wchar_t, false>::do_encoding() const
FUNC d0244 c 0 std::__ndk1::__codecvt_utf16<wchar_t, false>::do_always_noconv() const
FUNC d0250 20 0 std::__ndk1::__codecvt_utf16<wchar_t, false>::do_length(mbstate_t&, char const*, char const*, unsigned long) const
FUNC d0270 e8 0 std::__ndk1::utf16be_to_ucs4_length(unsigned char const*, unsigned char const*, unsigned long, unsigned long, std::__ndk1::codecvt_mode)
FUNC d0358 1c 0 std::__ndk1::__codecvt_utf16<wchar_t, false>::do_max_length() const
FUNC d0374 d4 0 std::__ndk1::__codecvt_utf16<wchar_t, true>::do_out(mbstate_t&, wchar_t const*, wchar_t const*, wchar_t const*&, char*, char*, char*&) const
FUNC d0448 fc 0 std::__ndk1::__codecvt_utf16<wchar_t, true>::do_in(mbstate_t&, char const*, char const*, char const*&, wchar_t*, wchar_t*, wchar_t*&) const
FUNC d0544 10 0 std::__ndk1::__codecvt_utf16<wchar_t, true>::do_unshift(mbstate_t&, char*, char*, char*&) const
FUNC d0554 c 0 std::__ndk1::__codecvt_utf16<wchar_t, true>::do_encoding() const
FUNC d0560 c 0 std::__ndk1::__codecvt_utf16<wchar_t, true>::do_always_noconv() const
FUNC d056c 20 0 std::__ndk1::__codecvt_utf16<wchar_t, true>::do_length(mbstate_t&, char const*, char const*, unsigned long) const
FUNC d058c e8 0 std::__ndk1::utf16le_to_ucs4_length(unsigned char const*, unsigned char const*, unsigned long, unsigned long, std::__ndk1::codecvt_mode)
FUNC d0674 1c 0 std::__ndk1::__codecvt_utf16<wchar_t, true>::do_max_length() const
FUNC d0690 9c 0 std::__ndk1::__codecvt_utf16<char16_t, false>::do_out(mbstate_t&, char16_t const*, char16_t const*, char16_t const*&, char*, char*, char*&) const
FUNC d072c 94 0 std::__ndk1::__codecvt_utf16<char16_t, false>::do_in(mbstate_t&, char const*, char const*, char const*&, char16_t*, char16_t*, char16_t*&) const
FUNC d07c0 10 0 std::__ndk1::__codecvt_utf16<char16_t, false>::do_unshift(mbstate_t&, char*, char*, char*&) const
FUNC d07d0 c 0 std::__ndk1::__codecvt_utf16<char16_t, false>::do_encoding() const
FUNC d07dc c 0 std::__ndk1::__codecvt_utf16<char16_t, false>::do_always_noconv() const
FUNC d07e8 94 0 std::__ndk1::__codecvt_utf16<char16_t, false>::do_length(mbstate_t&, char const*, char const*, unsigned long) const
FUNC d087c 1c 0 std::__ndk1::__codecvt_utf16<char16_t, false>::do_max_length() const
FUNC d0898 9c 0 std::__ndk1::__codecvt_utf16<char16_t, true>::do_out(mbstate_t&, char16_t const*, char16_t const*, char16_t const*&, char*, char*, char*&) const
FUNC d0934 94 0 std::__ndk1::__codecvt_utf16<char16_t, true>::do_in(mbstate_t&, char const*, char const*, char const*&, char16_t*, char16_t*, char16_t*&) const
FUNC d09c8 10 0 std::__ndk1::__codecvt_utf16<char16_t, true>::do_unshift(mbstate_t&, char*, char*, char*&) const
FUNC d09d8 c 0 std::__ndk1::__codecvt_utf16<char16_t, true>::do_encoding() const
FUNC d09e4 c 0 std::__ndk1::__codecvt_utf16<char16_t, true>::do_always_noconv() const
FUNC d09f0 94 0 std::__ndk1::__codecvt_utf16<char16_t, true>::do_length(mbstate_t&, char const*, char const*, unsigned long) const
FUNC d0a84 1c 0 std::__ndk1::__codecvt_utf16<char16_t, true>::do_max_length() const
FUNC d0aa0 e4 0 std::__ndk1::__codecvt_utf16<char32_t, false>::do_out(mbstate_t&, char32_t const*, char32_t const*, char32_t const*&, char*, char*, char*&) const
FUNC d0b84 fc 0 std::__ndk1::__codecvt_utf16<char32_t, false>::do_in(mbstate_t&, char const*, char const*, char const*&, char32_t*, char32_t*, char32_t*&) const
FUNC d0c80 10 0 std::__ndk1::__codecvt_utf16<char32_t, false>::do_unshift(mbstate_t&, char*, char*, char*&) const
FUNC d0c90 c 0 std::__ndk1::__codecvt_utf16<char32_t, false>::do_encoding() const
FUNC d0c9c c 0 std::__ndk1::__codecvt_utf16<char32_t, false>::do_always_noconv() const
FUNC d0ca8 20 0 std::__ndk1::__codecvt_utf16<char32_t, false>::do_length(mbstate_t&, char const*, char const*, unsigned long) const
FUNC d0cc8 1c 0 std::__ndk1::__codecvt_utf16<char32_t, false>::do_max_length() const
FUNC d0ce4 d4 0 std::__ndk1::__codecvt_utf16<char32_t, true>::do_out(mbstate_t&, char32_t const*, char32_t const*, char32_t const*&, char*, char*, char*&) const
FUNC d0db8 fc 0 std::__ndk1::__codecvt_utf16<char32_t, true>::do_in(mbstate_t&, char const*, char const*, char const*&, char32_t*, char32_t*, char32_t*&) const
FUNC d0eb4 10 0 std::__ndk1::__codecvt_utf16<char32_t, true>::do_unshift(mbstate_t&, char*, char*, char*&) const
FUNC d0ec4 c 0 std::__ndk1::__codecvt_utf16<char32_t, true>::do_encoding() const
FUNC d0ed0 c 0 std::__ndk1::__codecvt_utf16<char32_t, true>::do_always_noconv() const
FUNC d0edc 20 0 std::__ndk1::__codecvt_utf16<char32_t, true>::do_length(mbstate_t&, char const*, char const*, unsigned long) const
FUNC d0efc 1c 0 std::__ndk1::__codecvt_utf16<char32_t, true>::do_max_length() const
FUNC d0f18 70 0 std::__ndk1::__codecvt_utf8_utf16<wchar_t>::do_out(mbstate_t&, wchar_t const*, wchar_t const*, wchar_t const*&, char*, char*, char*&) const
FUNC d0f88 228 0 std::__ndk1::utf16_to_utf8(unsigned int const*, unsigned int const*, unsigned int const*&, unsigned char*, unsigned char*, unsigned char*&, unsigned long, std::__ndk1::codecvt_mode)
FUNC d11b0 70 0 std::__ndk1::__codecvt_utf8_utf16<wchar_t>::do_in(mbstate_t&, char const*, char const*, char const*&, wchar_t*, wchar_t*, wchar_t*&) const
FUNC d1220 28c 0 std::__ndk1::utf8_to_utf16(unsigned char const*, unsigned char const*, unsigned char const*&, unsigned int*, unsigned int*, unsigned int*&, unsigned long, std::__ndk1::codecvt_mode)
FUNC d14ac 10 0 std::__ndk1::__codecvt_utf8_utf16<wchar_t>::do_unshift(mbstate_t&, char*, char*, char*&) const
FUNC d14bc c 0 std::__ndk1::__codecvt_utf8_utf16<wchar_t>::do_encoding() const
FUNC d14c8 c 0 std::__ndk1::__codecvt_utf8_utf16<wchar_t>::do_always_noconv() const
FUNC d14d4 20 0 std::__ndk1::__codecvt_utf8_utf16<wchar_t>::do_length(mbstate_t&, char const*, char const*, unsigned long) const
FUNC d14f4 1c 0 std::__ndk1::__codecvt_utf8_utf16<wchar_t>::do_max_length() const
FUNC d1510 70 0 std::__ndk1::__codecvt_utf8_utf16<char16_t>::do_out(mbstate_t&, char16_t const*, char16_t const*, char16_t const*&, char*, char*, char*&) const
FUNC d1580 70 0 std::__ndk1::__codecvt_utf8_utf16<char16_t>::do_in(mbstate_t&, char const*, char const*, char const*&, char16_t*, char16_t*, char16_t*&) const
FUNC d15f0 10 0 std::__ndk1::__codecvt_utf8_utf16<char16_t>::do_unshift(mbstate_t&, char*, char*, char*&) const
FUNC d1600 c 0 std::__ndk1::__codecvt_utf8_utf16<char16_t>::do_encoding() const
FUNC d160c c 0 std::__ndk1::__codecvt_utf8_utf16<char16_t>::do_always_noconv() const
FUNC d1618 20 0 std::__ndk1::__codecvt_utf8_utf16<char16_t>::do_length(mbstate_t&, char const*, char const*, unsigned long) const
FUNC d1638 1c 0 std::__ndk1::__codecvt_utf8_utf16<char16_t>::do_max_length() const
FUNC d1654 70 0 std::__ndk1::__codecvt_utf8_utf16<char32_t>::do_out(mbstate_t&, char32_t const*, char32_t const*, char32_t const*&, char*, char*, char*&) const
FUNC d16c4 70 0 std::__ndk1::__codecvt_utf8_utf16<char32_t>::do_in(mbstate_t&, char const*, char const*, char const*&, char32_t*, char32_t*, char32_t*&) const
FUNC d1734 10 0 std::__ndk1::__codecvt_utf8_utf16<char32_t>::do_unshift(mbstate_t&, char*, char*, char*&) const
FUNC d1744 c 0 std::__ndk1::__codecvt_utf8_utf16<char32_t>::do_encoding() const
FUNC d1750 c 0 std::__ndk1::__codecvt_utf8_utf16<char32_t>::do_always_noconv() const
FUNC d175c 20 0 std::__ndk1::__codecvt_utf8_utf16<char32_t>::do_length(mbstate_t&, char const*, char const*, unsigned long) const
FUNC d177c 1c 0 std::__ndk1::__codecvt_utf8_utf16<char32_t>::do_max_length() const
FUNC d1798 2c 0 std::__ndk1::__narrow_to_utf8<(unsigned long)16>::~__narrow_to_utf8()
FUNC d17c4 2c 0 std::__ndk1::__narrow_to_utf8<(unsigned long)32>::~__narrow_to_utf8()
FUNC d17f0 2c 0 std::__ndk1::__widen_from_utf8<(unsigned long)16>::~__widen_from_utf8()
FUNC d181c 2c 0 std::__ndk1::__widen_from_utf8<(unsigned long)32>::~__widen_from_utf8()
FUNC d1848 2c 0 std::__ndk1::numpunct<char>::numpunct(unsigned long)
FUNC d1874 30 0 std::__ndk1::numpunct<wchar_t>::numpunct(unsigned long)
FUNC d18a4 50 0 std::__ndk1::numpunct<char>::~numpunct()
FUNC d18f4 2c 0 std::__ndk1::numpunct<char>::~numpunct()
FUNC d1920 50 0 std::__ndk1::numpunct<wchar_t>::~numpunct()
FUNC d1970 2c 0 std::__ndk1::numpunct<wchar_t>::~numpunct()
FUNC d199c c 0 std::__ndk1::numpunct<char>::do_decimal_point() const
FUNC d19a8 c 0 std::__ndk1::numpunct<wchar_t>::do_decimal_point() const
FUNC d19b4 c 0 std::__ndk1::numpunct<char>::do_thousands_sep() const
FUNC d19c0 c 0 std::__ndk1::numpunct<wchar_t>::do_thousands_sep() const
FUNC d19cc 30 0 std::__ndk1::numpunct<char>::do_grouping() const
FUNC d19fc 30 0 std::__ndk1::numpunct<wchar_t>::do_grouping() const
FUNC d1a2c 20 0 std::__ndk1::numpunct<char>::do_truename() const
FUNC d1a4c 24 0 std::__ndk1::numpunct<wchar_t>::do_truename() const
FUNC d1a70 bc 0 std::__ndk1::basic_string<wchar_t, std::__ndk1::char_traits<wchar_t>, std::__ndk1::allocator<wchar_t> >::basic_string[abi:ne190000]<0>()
FUNC d1b2c 24 0 std::__ndk1::numpunct<char>::do_falsename() const
FUNC d1b50 54 0 std::__ndk1::numpunct<wchar_t>::do_falsename() const
FUNC d1ba4 60 0 std::__ndk1::numpunct_byname<char>::numpunct_byname(char const*, unsigned long)
FUNC d1c04 2d4 0 std::__ndk1::numpunct_byname<char>::__init(char const*)
FUNC d1ed8 70 0 std::__ndk1::numpunct_byname<char>::numpunct_byname(std::__ndk1::basic_string<char, std::__ndk1::char_traits<char>, std::__ndk1::allocator<char> > const&, unsigned long)
FUNC d1f48 2c 0 std::__ndk1::numpunct_byname<char>::~numpunct_byname()
FUNC d1f74 28 0 std::__ndk1::__libcpp_unique_locale::~__libcpp_unique_locale()
FUNC d1f9c 64 0 std::__ndk1::numpunct_byname<wchar_t>::numpunct_byname(char const*, unsigned long)
FUNC d2000 20c 0 std::__ndk1::numpunct_byname<wchar_t>::__init(char const*)
FUNC d220c 74 0 std::__ndk1::numpunct_byname<wchar_t>::numpunct_byname(std::__ndk1::basic_string<char, std::__ndk1::char_traits<char>, std::__ndk1::allocator<char> > const&, unsigned long)
FUNC d2280 2c 0 std::__ndk1::numpunct_byname<wchar_t>::~numpunct_byname()
FUNC d22ac 44 0 std::__ndk1::__num_get_base::__get_base(std::__ndk1::ios_base&)
FUNC d22f0 a4 0 std::__ndk1::__num_put_base::__format_int(char*, char const*, bool, unsigned int)
FUNC d2394 b8 0 std::__ndk1::__num_put_base::__format_float(char*, char const*, unsigned int)
FUNC d244c 6c 0 std::__ndk1::__time_get_c_storage<char>::__weeks() const
FUNC d24b8 438 0 std::__ndk1::init_weeks()
FUNC d28f0 80 0 std::__ndk1::__time_get_c_storage<wchar_t>::__weeks() const
FUNC d2970 2d4 0 std::__ndk1::init_wweeks()
FUNC d2c44 6c 0 std::__ndk1::__time_get_c_storage<char>::__months() const
FUNC d2cb0 6d4 0 std::__ndk1::init_months()
FUNC d3384 80 0 std::__ndk1::__time_get_c_storage<wchar_t>::__months() const
FUNC d3404 528 0 std::__ndk1::init_wmonths()
FUNC d392c 6c 0 std::__ndk1::__time_get_c_storage<char>::__am_pm() const
FUNC d3998 e0 0 std::__ndk1::init_am_pm()
FUNC d3a78 6c 0 std::__ndk1::__time_get_c_storage<wchar_t>::__am_pm() const
FUNC d3ae4 e4 0 std::__ndk1::init_wam_pm()
FUNC d3bc8 6c 0 std::__ndk1::__time_get_c_storage<char>::__x() const
FUNC d3c34 a0 0 std::__ndk1::__time_get_c_storage<wchar_t>::__x() const
FUNC d3cd4 6c 0 std::__ndk1::__time_get_c_storage<char>::__X() const
FUNC d3d40 a0 0 std::__ndk1::__time_get_c_storage<wchar_t>::__X() const
FUNC d3de0 6c 0 std::__ndk1::__time_get_c_storage<char>::__c() const
FUNC d3e4c a0 0 std::__ndk1::__time_get_c_storage<wchar_t>::__c() const
FUNC d3eec 6c 0 std::__ndk1::__time_get_c_storage<char>::__r() const
FUNC d3f58 a0 0 std::__ndk1::__time_get_c_storage<wchar_t>::__r() const
FUNC d3ff8 c8 0 std::__ndk1::__time_get::__time_get(char const*)
FUNC d40c0 9c 0 std::__ndk1::__time_get::__time_get(std::__ndk1::basic_string<char, std::__ndk1::char_traits<char>, std::__ndk1::allocator<char> > const&)
FUNC d415c 24 0 std::__ndk1::__time_get::~__time_get()
FUNC d4180 5e8 0 std::__ndk1::__time_get_storage<char>::__analyze(char, std::__ndk1::ctype<char> const&)
FUNC d4768 310 0 std::__ndk1::__scan_keyword[abi:ne190000]<char*, std::__ndk1::basic_string<char, std::__ndk1::char_traits<char>, std::__ndk1::allocator<char> >*, std::__ndk1::ctype<char> >(char*&, std::__ndk1::basic_string<char, std::__ndk1::char_traits<char>, std::__ndk1::allocator<char> >*, std::__ndk1::ctype<char>, std::__ndk1::ctype<char>, std::__ndk1::ctype<char> const&, unsigned int&, bool)
FUNC d4a78 16a8 0 std::__ndk1::__time_get_storage<wchar_t>::__analyze(char, std::__ndk1::ctype<wchar_t> const&)
FUNC d6120 32c 0 std::__ndk1::__scan_keyword[abi:ne190000]<wchar_t*, std::__ndk1::basic_string<wchar_t, std::__ndk1::char_traits<wchar_t>, std::__ndk1::allocator<wchar_t> >*, std::__ndk1::ctype<wchar_t> >(wchar_t*&, std::__ndk1::basic_string<wchar_t, std::__ndk1::char_traits<wchar_t>, std::__ndk1::allocator<wchar_t> >*, std::__ndk1::ctype<wchar_t>, std::__ndk1::ctype<wchar_t>, std::__ndk1::ctype<wchar_t> const&, unsigned int&, bool)
FUNC d644c 278 0 std::__ndk1::__time_get_storage<char>::init(std::__ndk1::ctype<char> const&)
FUNC d66c4 a78 0 std::__ndk1::__time_get_storage<wchar_t>::init(std::__ndk1::ctype<wchar_t> const&)
FUNC d713c 2e0 0 std::__ndk1::__time_get_storage<char>::__time_get_storage(char const*)
FUNC d741c 68 0 std::__ndk1::ctype_byname<char>::~ctype_byname()
FUNC d7484 2e0 0 std::__ndk1::__time_get_storage<char>::__time_get_storage(std::__ndk1::basic_string<char, std::__ndk1::char_traits<char>, std::__ndk1::allocator<char> > const&)
FUNC d7764 2bc 0 std::__ndk1::__time_get_storage<wchar_t>::__time_get_storage(char const*)
FUNC d7a20 44 0 std::__ndk1::ctype_byname<wchar_t>::~ctype_byname()
FUNC d7a64 2bc 0 std::__ndk1::__time_get_storage<wchar_t>::__time_get_storage(std::__ndk1::basic_string<char, std::__ndk1::char_traits<char>, std::__ndk1::allocator<char> > const&)
FUNC d7d20 298 0 std::__ndk1::__time_get_storage<char>::__do_date_order() const
FUNC d7fb8 298 0 std::__ndk1::__time_get_storage<wchar_t>::__do_date_order() const
FUNC d8250 c8 0 std::__ndk1::__time_put::__time_put(char const*)
FUNC d8318 9c 0 std::__ndk1::__time_put::__time_put(std::__ndk1::basic_string<char, std::__ndk1::char_traits<char>, std::__ndk1::allocator<char> > const&)
FUNC d83b4 ac 0 std::__ndk1::__time_put::~__time_put()
FUNC d8460 3e8 0 std::__ndk1::moneypunct_byname<char, false>::init(char const*)
FUNC d8848 52c 0 std::__ndk1::__init_pat<char>(std::__ndk1::money_base::pattern&, std::__ndk1::basic_string<char, std::__ndk1::char_traits<char>, std::__ndk1::allocator<char> >&, bool, char, char, char, char)
FUNC d8d74 3e8 0 std::__ndk1::moneypunct_byname<char, true>::init(char const*)
FUNC d915c 7b4 0 std::__ndk1::moneypunct_byname<wchar_t, false>::init(char const*)
FUNC d9910 548 0 std::__ndk1::__init_pat<wchar_t>(std::__ndk1::money_base::pattern&, std::__ndk1::basic_string<wchar_t, std::__ndk1::char_traits<wchar_t>, std::__ndk1::allocator<wchar_t> >&, bool, char, char, char, wchar_t)
FUNC d9e58 7b4 0 std::__ndk1::moneypunct_byname<wchar_t, true>::init(char const*)
FUNC da60c 2c 0 std::__ndk1::__codecvt_utf8<wchar_t>::~__codecvt_utf8()
FUNC da638 2c 0 std::__ndk1::__codecvt_utf8<char16_t>::~__codecvt_utf8()
FUNC da664 2c 0 std::__ndk1::__codecvt_utf8<char32_t>::~__codecvt_utf8()
FUNC da690 2c 0 std::__ndk1::__codecvt_utf16<wchar_t, false>::~__codecvt_utf16()
FUNC da6bc 2c 0 std::__ndk1::__codecvt_utf16<wchar_t, true>::~__codecvt_utf16()
FUNC da6e8 2c 0 std::__ndk1::__codecvt_utf16<char16_t, false>::~__codecvt_utf16()
FUNC da714 2c 0 std::__ndk1::__codecvt_utf16<char16_t, true>::~__codecvt_utf16()
FUNC da740 2c 0 std::__ndk1::__codecvt_utf16<char32_t, false>::~__codecvt_utf16()
FUNC da76c 2c 0 std::__ndk1::__codecvt_utf16<char32_t, true>::~__codecvt_utf16()
FUNC da798 c0 0 std::__ndk1::codecvt<wchar_t, char, mbstate_t>::~codecvt()
FUNC da858 2c 0 std::__ndk1::__codecvt_utf8_utf16<wchar_t>::~__codecvt_utf8_utf16()
FUNC da884 2c 0 std::__ndk1::__codecvt_utf8_utf16<char32_t>::~__codecvt_utf8_utf16()
FUNC da8b0 2c 0 std::__ndk1::__codecvt_utf8_utf16<char16_t>::~__codecvt_utf8_utf16()
FUNC da8dc 2c 0 std::__ndk1::num_get<char, std::__ndk1::istreambuf_iterator<char, std::__ndk1::char_traits<char> > >::~num_get()
FUNC da908 2c 0 std::__ndk1::num_get<wchar_t, std::__ndk1::istreambuf_iterator<wchar_t, std::__ndk1::char_traits<wchar_t> > >::~num_get()
FUNC da934 2c 0 std::__ndk1::num_put<char, std::__ndk1::ostreambuf_iterator<char, std::__ndk1::char_traits<char> > >::~num_put()
FUNC da960 2c 0 std::__ndk1::num_put<wchar_t, std::__ndk1::ostreambuf_iterator<wchar_t, std::__ndk1::char_traits<wchar_t> > >::~num_put()
FUNC da98c 8 0 std::__ndk1::time_get<char, std::__ndk1::istreambuf_iterator<char, std::__ndk1::char_traits<char> > >::~time_get()
FUNC da994 2c 0 std::__ndk1::time_get<char, std::__ndk1::istreambuf_iterator<char, std::__ndk1::char_traits<char> > >::~time_get()
FUNC da9c0 8 0 std::__ndk1::time_get<wchar_t, std::__ndk1::istreambuf_iterator<wchar_t, std::__ndk1::char_traits<wchar_t> > >::~time_get()
FUNC da9c8 2c 0 std::__ndk1::time_get<wchar_t, std::__ndk1::istreambuf_iterator<wchar_t, std::__ndk1::char_traits<wchar_t> > >::~time_get()
FUNC da9f4 30 0 std::__ndk1::time_get_byname<char, std::__ndk1::istreambuf_iterator<char, std::__ndk1::char_traits<char> > >::~time_get_byname()
FUNC daa24 38 0 std::__ndk1::time_get_byname<char, std::__ndk1::istreambuf_iterator<char, std::__ndk1::char_traits<char> > >::~time_get_byname()
FUNC daa5c c 0 std::__ndk1::time_get_byname<char, std::__ndk1::istreambuf_iterator<char, std::__ndk1::char_traits<char> > >::do_date_order() const
FUNC daa68 c 0 std::__ndk1::time_get_byname<char, std::__ndk1::istreambuf_iterator<char, std::__ndk1::char_traits<char> > >::__weeks() const
FUNC daa74 c 0 std::__ndk1::time_get_byname<char, std::__ndk1::istreambuf_iterator<char, std::__ndk1::char_traits<char> > >::__months() const
FUNC daa80 c 0 std::__ndk1::time_get_byname<char, std::__ndk1::istreambuf_iterator<char, std::__ndk1::char_traits<char> > >::__am_pm() const
FUNC daa8c c 0 std::__ndk1::time_get_byname<char, std::__ndk1::istreambuf_iterator<char, std::__ndk1::char_traits<char> > >::__c() const
FUNC daa98 c 0 std::__ndk1::time_get_byname<char, std::__ndk1::istreambuf_iterator<char, std::__ndk1::char_traits<char> > >::__r() const
FUNC daaa4 c 0 std::__ndk1::time_get_byname<char, std::__ndk1::istreambuf_iterator<char, std::__ndk1::char_traits<char> > >::__x() const
FUNC daab0 c 0 std::__ndk1::time_get_byname<char, std::__ndk1::istreambuf_iterator<char, std::__ndk1::char_traits<char> > >::__X() const
FUNC daabc c 0 {virtual override thunk({offset(-16)}, std::__ndk1::time_get_byname<char, std::__ndk1::istreambuf_iterator<char, std::__ndk1::char_traits<char> > >::__weeks() const)}
FUNC daac8 c 0 {virtual override thunk({offset(-16)}, std::__ndk1::time_get_byname<char, std::__ndk1::istreambuf_iterator<char, std::__ndk1::char_traits<char> > >::__months() const)}
FUNC daad4 c 0 {virtual override thunk({offset(-16)}, std::__ndk1::time_get_byname<char, std::__ndk1::istreambuf_iterator<char, std::__ndk1::char_traits<char> > >::__am_pm() const)}
FUNC daae0 c 0 {virtual override thunk({offset(-16)}, std::__ndk1::time_get_byname<char, std::__ndk1::istreambuf_iterator<char, std::__ndk1::char_traits<char> > >::__c() const)}
FUNC daaec c 0 {virtual override thunk({offset(-16)}, std::__ndk1::time_get_byname<char, std::__ndk1::istreambuf_iterator<char, std::__ndk1::char_traits<char> > >::__r() const)}
FUNC daaf8 c 0 {virtual override thunk({offset(-16)}, std::__ndk1::time_get_byname<char, std::__ndk1::istreambuf_iterator<char, std::__ndk1::char_traits<char> > >::__x() const)}
FUNC dab04 c 0 {virtual override thunk({offset(-16)}, std::__ndk1::time_get_byname<char, std::__ndk1::istreambuf_iterator<char, std::__ndk1::char_traits<char> > >::__X() const)}
FUNC dab10 30 0 std::__ndk1::time_get_byname<wchar_t, std::__ndk1::istreambuf_iterator<wchar_t, std::__ndk1::char_traits<wchar_t> > >::~time_get_byname()
FUNC dab40 38 0 std::__ndk1::time_get_byname<wchar_t, std::__ndk1::istreambuf_iterator<wchar_t, std::__ndk1::char_traits<wchar_t> > >::~time_get_byname()
FUNC dab78 c 0 std::__ndk1::time_get_byname<wchar_t, std::__ndk1::istreambuf_iterator<wchar_t, std::__ndk1::char_traits<wchar_t> > >::do_date_order() const
FUNC dab84 c 0 std::__ndk1::time_get_byname<wchar_t, std::__ndk1::istreambuf_iterator<wchar_t, std::__ndk1::char_traits<wchar_t> > >::__weeks() const
FUNC dab90 c 0 std::__ndk1::time_get_byname<wchar_t, std::__ndk1::istreambuf_iterator<wchar_t, std::__ndk1::char_traits<wchar_t> > >::__months() const
FUNC dab9c c 0 std::__ndk1::time_get_byname<wchar_t, std::__ndk1::istreambuf_iterator<wchar_t, std::__ndk1::char_traits<wchar_t> > >::__am_pm() const
FUNC daba8 c 0 std::__ndk1::time_get_byname<wchar_t, std::__ndk1::istreambuf_iterator<wchar_t, std::__ndk1::char_traits<wchar_t> > >::__c() const
FUNC dabb4 c 0 std::__ndk1::time_get_byname<wchar_t, std::__ndk1::istreambuf_iterator<wchar_t, std::__ndk1::char_traits<wchar_t> > >::__r() const
FUNC dabc0 c 0 std::__ndk1::time_get_byname<wchar_t, std::__ndk1::istreambuf_iterator<wchar_t, std::__ndk1::char_traits<wchar_t> > >::__x() const
FUNC dabcc c 0 std::__ndk1::time_get_byname<wchar_t, std::__ndk1::istreambuf_iterator<wchar_t, std::__ndk1::char_traits<wchar_t> > >::__X() const
FUNC dabd8 c 0 {virtual override thunk({offset(-16)}, std::__ndk1::time_get_byname<wchar_t, std::__ndk1::istreambuf_iterator<wchar_t, std::__ndk1::char_traits<wchar_t> > >::__weeks() const)}
FUNC dabe4 c 0 {virtual override thunk({offset(-16)}, std::__ndk1::time_get_byname<wchar_t, std::__ndk1::istreambuf_iterator<wchar_t, std::__ndk1::char_traits<wchar_t> > >::__months() const)}
FUNC dabf0 c 0 {virtual override thunk({offset(-16)}, std::__ndk1::time_get_byname<wchar_t, std::__ndk1::istreambuf_iterator<wchar_t, std::__ndk1::char_traits<wchar_t> > >::__am_pm() const)}
FUNC dabfc c 0 {virtual override thunk({offset(-16)}, std::__ndk1::time_get_byname<wchar_t, std::__ndk1::istreambuf_iterator<wchar_t, std::__ndk1::char_traits<wchar_t> > >::__c() const)}
FUNC dac08 c 0 {virtual override thunk({offset(-16)}, std::__ndk1::time_get_byname<wchar_t, std::__ndk1::istreambuf_iterator<wchar_t, std::__ndk1::char_traits<wchar_t> > >::__r() const)}
FUNC dac14 c 0 {virtual override thunk({offset(-16)}, std::__ndk1::time_get_byname<wchar_t, std::__ndk1::istreambuf_iterator<wchar_t, std::__ndk1::char_traits<wchar_t> > >::__x() const)}
FUNC dac20 c 0 {virtual override thunk({offset(-16)}, std::__ndk1::time_get_byname<wchar_t, std::__ndk1::istreambuf_iterator<wchar_t, std::__ndk1::char_traits<wchar_t> > >::__X() const)}
FUNC dac2c 38 0 std::__ndk1::time_put<char, std::__ndk1::ostreambuf_iterator<char, std::__ndk1::char_traits<char> > >::~time_put()
FUNC dac64 38 0 std::__ndk1::time_put<wchar_t, std::__ndk1::ostreambuf_iterator<wchar_t, std::__ndk1::char_traits<wchar_t> > >::~time_put()
FUNC dac9c 30 0 std::__ndk1::time_put<char, std::__ndk1::ostreambuf_iterator<char, std::__ndk1::char_traits<char> > >::~time_put()
FUNC daccc 38 0 std::__ndk1::time_put_byname<char, std::__ndk1::ostreambuf_iterator<char, std::__ndk1::char_traits<char> > >::~time_put_byname()
FUNC dad04 30 0 std::__ndk1::time_put<wchar_t, std::__ndk1::ostreambuf_iterator<wchar_t, std::__ndk1::char_traits<wchar_t> > >::~time_put()
FUNC dad34 38 0 std::__ndk1::time_put_byname<wchar_t, std::__ndk1::ostreambuf_iterator<wchar_t, std::__ndk1::char_traits<wchar_t> > >::~time_put_byname()
FUNC dad6c 2c 0 std::__ndk1::moneypunct<char, false>::~moneypunct()
FUNC dad98 2c 0 std::__ndk1::moneypunct<char, true>::~moneypunct()
FUNC dadc4 2c 0 std::__ndk1::moneypunct<wchar_t, false>::~moneypunct()
FUNC dadf0 2c 0 std::__ndk1::moneypunct<wchar_t, true>::~moneypunct()
FUNC dae1c 94 0 std::__ndk1::moneypunct_byname<char, false>::~moneypunct_byname()
FUNC daeb0 2c 0 std::__ndk1::moneypunct_byname<char, false>::~moneypunct_byname()
FUNC daedc 94 0 std::__ndk1::moneypunct_byname<char, true>::~moneypunct_byname()
FUNC daf70 2c 0 std::__ndk1::moneypunct_byname<char, true>::~moneypunct_byname()
FUNC daf9c 94 0 std::__ndk1::moneypunct_byname<wchar_t, false>::~moneypunct_byname()
FUNC db030 2c 0 std::__ndk1::moneypunct_byname<wchar_t, false>::~moneypunct_byname()
FUNC db05c 94 0 std::__ndk1::moneypunct_byname<wchar_t, true>::~moneypunct_byname()
FUNC db0f0 2c 0 std::__ndk1::moneypunct_byname<wchar_t, true>::~moneypunct_byname()
FUNC db11c 2c 0 std::__ndk1::money_get<char, std::__ndk1::istreambuf_iterator<char, std::__ndk1::char_traits<char> > >::~money_get()
FUNC db148 2c 0 std::__ndk1::money_get<wchar_t, std::__ndk1::istreambuf_iterator<wchar_t, std::__ndk1::char_traits<wchar_t> > >::~money_get()
FUNC db174 2c 0 std::__ndk1::money_put<char, std::__ndk1::ostreambuf_iterator<char, std::__ndk1::char_traits<char> > >::~money_put()
FUNC db1a0 2c 0 std::__ndk1::money_put<wchar_t, std::__ndk1::ostreambuf_iterator<wchar_t, std::__ndk1::char_traits<wchar_t> > >::~money_put()
FUNC db1cc 2c 0 std::__ndk1::messages<char>::~messages()
FUNC db1f8 2c 0 std::__ndk1::messages<wchar_t>::~messages()
FUNC db224 2c 0 std::__ndk1::messages_byname<char>::~messages_byname()
FUNC db250 8 0 std::__ndk1::locale::facet::~facet()
FUNC db258 2c 0 std::__ndk1::messages_byname<wchar_t>::~messages_byname()
FUNC db284 28 0 std::__ndk1::__libcpp_locale_guard::~__libcpp_locale_guard[abi:ne190000]()
FUNC db2ac 18 0 std::__ndk1::vector<std::__ndk1::locale::facet*, std::__ndk1::__sso_allocator<std::__ndk1::locale::facet*, (unsigned long)30> >::__throw_length_error[abi:ne190000]() const
FUNC db2c4 15c 0 std::__ndk1::vector<std::__ndk1::locale::facet*, std::__ndk1::__sso_allocator<std::__ndk1::locale::facet*, (unsigned long)30> >::__assign_with_size[abi:ne190000]<std::__ndk1::locale::facet**, std::__ndk1::vector<std::__ndk1::locale::facet*, std::__ndk1::__sso_allocator<std::__ndk1::locale::facet*, (unsigned long)30> >::__assign_with_size[abi:ne190000]>(std::__ndk1::locale::facet**, std::__ndk1::vector<std::__ndk1::locale::facet*, std::__ndk1::__sso_allocator<std::__ndk1::locale::facet*, (unsigned long)30> >::__assign_with_size[abi:ne190000], long)
FUNC db420 15c 0 std::__ndk1::vector<std::__ndk1::locale::facet*, std::__ndk1::__sso_allocator<std::__ndk1::locale::facet*, (unsigned long)30> >::__append(unsigned long)
FUNC db57c 170 0 __cxx_global_array_dtor
FUNC db6ec 170 0 __cxx_global_array_dtor.80
FUNC db85c 50 0 __cxx_global_array_dtor.95
FUNC db8ac 50 0 __cxx_global_array_dtor.119
FUNC db8fc 4c 0 __cxx_global_array_dtor.143
FUNC db948 4c 0 __cxx_global_array_dtor.146
FUNC db994 44 0 std::__ndk1::__call_once_proxy[abi:ne190000]<std::__ndk1::tuple<std::__ndk1::locale::id::__get()::$_0&&> >(void*)
FUNC db9d8 70 0 std::__ndk1::__time_get_temp<char>::~__time_get_temp()
FUNC dba48 4c 0 std::__ndk1::__time_get_temp<wchar_t>::~__time_get_temp()
FUNC dba94 58 0 std::__ndk1::basic_string<char, std::__ndk1::char_traits<char>, std::__ndk1::allocator<char> >::erase[abi:ne190000](std::__ndk1::__wrap_iter<char const*>)
FUNC dbaec 5c 0 std::__ndk1::basic_string<wchar_t, std::__ndk1::char_traits<wchar_t>, std::__ndk1::allocator<wchar_t> >::erase[abi:ne190000](std::__ndk1::__wrap_iter<wchar_t const*>)
FUNC dbb48 128 0 std::__ndk1::__num_get_signed_integral[abi:ne190000]<long>(char const*, char const, unsigned int&, int)
FUNC dbc70 128 0 std::__ndk1::__num_get_signed_integral[abi:ne190000]<long long>(char const*, char const, unsigned int&, int)
FUNC dbd98 158 0 std::__ndk1::__num_get_unsigned_integral[abi:ne190000]<unsigned short>(char const*, char const, unsigned int&, int)
FUNC dbef0 154 0 std::__ndk1::__num_get_unsigned_integral[abi:ne190000]<unsigned int>(char const*, char const, unsigned int&, int)
FUNC dc044 148 0 std::__ndk1::__num_get_unsigned_integral[abi:ne190000]<unsigned long>(char const*, char const, unsigned int&, int)
FUNC dc18c 148 0 std::__ndk1::__num_get_unsigned_integral[abi:ne190000]<unsigned long long>(char const*, char const, unsigned int&, int)
FUNC dc2d4 118 0 std::__ndk1::__num_get_float[abi:ne190000]<float>(char const*, char const, unsigned int&)
FUNC dc3ec 118 0 std::__ndk1::__num_get_float[abi:ne190000]<double>(char const*, char const, unsigned int&)
FUNC dc504 124 0 std::__ndk1::__num_get_float[abi:ne190000]<long double>(char const*, char const, unsigned int&)
FUNC dc628 230 0 std::__ndk1::__time_get_storage<char>::~__time_get_storage[abi:ne190000]()
FUNC dc858 230 0 std::__ndk1::__time_get_storage<wchar_t>::~__time_get_storage[abi:ne190000]()
FUNC dca88 114 0 std::__ndk1::__call_once(unsigned long volatile&, void*, void (*)(void*))
FUNC dcb9c 5c 0 std::__ndk1::__exception_guard_exceptions<std::__ndk1::__call_once(unsigned long volatile&, void*, void (*)(void*))::$_0>::~__exception_guard_exceptions[abi:ne190000]()
FUNC dcbf8 6c 0 std::__ndk1::regex_error::regex_error(std::__ndk1::regex_constants::error_type)
FUNC dcc64 8 0 std::__ndk1::regex_error::~regex_error()
FUNC dcc6c 2c 0 std::__ndk1::regex_error::~regex_error()
FUNC dcc98 a8 0 std::__ndk1::__get_collation_name(char const*)
FUNC dcd40 bc 0 std::__ndk1::__get_classname(char const*, bool)
FUNC dcdfc 50 0 std::__ndk1::__match_any_but_newline<char>::__exec(std::__ndk1::__state<char>&) const
FUNC dce4c 58 0 std::__ndk1::__match_any_but_newline<wchar_t>::__exec(std::__ndk1::__state<wchar_t>&) const
FUNC dcea4 1a8 0 std::__ndk1::__fs::filesystem::directory_iterator::directory_iterator(std::__ndk1::__fs::filesystem::path const&, std::__ndk1::error_code*, std::__ndk1::__fs::filesystem::directory_options)
FUNC dd04c fc 0 std::__ndk1::__fs::filesystem::detail::ErrorHandler<void>::report(std::__ndk1::error_code const&) const
FUNC dd148 130 0 std::__ndk1::__fs::filesystem::directory_iterator::__increment(std::__ndk1::error_code*)
FUNC dd278 220 0 std::__ndk1::__fs::filesystem::__dir_stream::advance(std::__ndk1::error_code&)
FUNC dd498 98 0 std::__ndk1::__fs::filesystem::detail::ErrorHandler<void>::report(std::__ndk1::error_code const&, char const*, ...) const
FUNC dd530 10 0 std::__ndk1::__fs::filesystem::directory_iterator::__dereference() const
FUNC dd540 278 0 std::__ndk1::__fs::filesystem::recursive_directory_iterator::recursive_directory_iterator(std::__ndk1::__fs::filesystem::path const&, std::__ndk1::__fs::filesystem::directory_options, std::__ndk1::error_code*)
FUNC dd7b8 128 0 std::__ndk1::__fs::filesystem::__dir_stream::__dir_stream(std::__ndk1::__fs::filesystem::path const&, std::__ndk1::__fs::filesystem::directory_options, std::__ndk1::error_code&)
FUNC dd8e0 60 0 std::__ndk1::__fs::filesystem::__dir_stream::~__dir_stream()
FUNC dd940 a4 0 std::__ndk1::__fs::filesystem::recursive_directory_iterator::__pop(std::__ndk1::error_code*)
FUNC dd9e4 23c 0 std::__ndk1::__fs::filesystem::recursive_directory_iterator::__advance(std::__ndk1::error_code*)
FUNC ddc20 10 0 std::__ndk1::__fs::filesystem::recursive_directory_iterator::options() const
FUNC ddc30 14 0 std::__ndk1::__fs::filesystem::recursive_directory_iterator::depth() const
FUNC ddc44 50 0 std::__ndk1::__fs::filesystem::recursive_directory_iterator::__dereference() const
FUNC ddc94 74 0 std::__ndk1::__fs::filesystem::recursive_directory_iterator::__increment(std::__ndk1::error_code*)
FUNC ddd08 3c4 0 std::__ndk1::__fs::filesystem::recursive_directory_iterator::__try_recursion(std::__ndk1::error_code*)
FUNC de0cc 5c 0 std::__ndk1::__fs::filesystem::directory_iterator::~directory_iterator[abi:ne190000]()
FUNC de128 bc 0 std::__ndk1::__fs::filesystem::path::operator/=[abi:ne190000](std::__ndk1::__fs::filesystem::path const&)
FUNC de1e4 230 0 std::__ndk1::__fs::filesystem::detail::ErrorHandler<void>::report_impl(std::__ndk1::error_code const&, char const*, std::__va_list) const
FUNC de414 e0 0 std::__ndk1::__fs::filesystem::detail::vformat_string(char const*, std::__va_list)
FUNC de4f4 5c 0 std::__ndk1::__fs::filesystem::__throw_filesystem_error[abi:ne190000]<std::__ndk1::basic_string<char, std::__ndk1::char_traits<char>, std::__ndk1::allocator<char> >&, std::__ndk1::error_code const&>(std::__ndk1::basic_string<char, std::__ndk1::char_traits<char>, std::__ndk1::allocator<char> >&, std::__ndk1::error_code const&)
FUNC de550 68 0 std::__ndk1::__fs::filesystem::__throw_filesystem_error[abi:ne190000]<std::__ndk1::basic_string<char, std::__ndk1::char_traits<char>, std::__ndk1::allocator<char> >&, std::__ndk1::__fs::filesystem::path const&, std::__ndk1::error_code const&>(std::__ndk1::basic_string<char, std::__ndk1::char_traits<char>, std::__ndk1::allocator<char> >&, std::__ndk1::__fs::filesystem::path const&, std::__ndk1::error_code const&)
FUNC de5b8 70 0 std::__ndk1::__fs::filesystem::__throw_filesystem_error[abi:ne190000]<std::__ndk1::basic_string<char, std::__ndk1::char_traits<char>, std::__ndk1::allocator<char> >&, std::__ndk1::__fs::filesystem::path const&, std::__ndk1::__fs::filesystem::path const, std::__ndk1::error_code const&>(std::__ndk1::basic_string<char, std::__ndk1::char_traits<char>, std::__ndk1::allocator<char> >&, std::__ndk1::__fs::filesystem::path const&, std::__ndk1::__fs::filesystem::path const, std::__ndk1::error_code const&)
FUNC de628 15c 0 std::__ndk1::basic_string<char, std::__ndk1::char_traits<char>, std::__ndk1::allocator<char> >::__append_default_init[abi:ne190000](unsigned long)
FUNC de784 f0 0 std::__ndk1::__fs::filesystem::filesystem_error::filesystem_error[abi:ne190000](std::__ndk1::basic_string<char, std::__ndk1::char_traits<char>, std::__ndk1::allocator<char> > const&, std::__ndk1::error_code)
FUNC de874 5c 0 std::__ndk1::shared_ptr<std::__ndk1::__fs::filesystem::filesystem_error::_Storage>::~shared_ptr[abi:ne190000]()
FUNC de8d0 ec 0 _ZNSt6__ndk115allocate_sharedB8ne190000INS_4__fs10filesystem16filesystem_error8_StorageENS_9allocatorIS4_EEJNS2_4pathES7_ETnNS_9enable_ifIXntsr8is_arrayIT_EE5valueEiE4typeELi0EEENS_10shared_ptrIS9_EERKT0_DpOT1_
FUNC de9bc 14 0 std::__ndk1::__shared_ptr_emplace<std::__ndk1::__fs::filesystem::filesystem_error::_Storage, std::__ndk1::allocator<std::__ndk1::__fs::filesystem::filesystem_error::_Storage> >::~__shared_ptr_emplace()
FUNC de9d0 38 0 std::__ndk1::__shared_ptr_emplace<std::__ndk1::__fs::filesystem::filesystem_error::_Storage, std::__ndk1::allocator<std::__ndk1::__fs::filesystem::filesystem_error::_Storage> >::~__shared_ptr_emplace()
FUNC dea08 70 0 std::__ndk1::__shared_ptr_emplace<std::__ndk1::__fs::filesystem::filesystem_error::_Storage, std::__ndk1::allocator<std::__ndk1::__fs::filesystem::filesystem_error::_Storage> >::__on_zero_shared()
FUNC dea78 8 0 std::__ndk1::__shared_ptr_emplace<std::__ndk1::__fs::filesystem::filesystem_error::_Storage, std::__ndk1::allocator<std::__ndk1::__fs::filesystem::filesystem_error::_Storage> >::__on_zero_shared_weak()
FUNC dea80 cc 0 std::__ndk1::__fs::filesystem::filesystem_error::filesystem_error[abi:ne190000](std::__ndk1::basic_string<char, std::__ndk1::char_traits<char>, std::__ndk1::allocator<char> > const&, std::__ndk1::__fs::filesystem::path const&, std::__ndk1::error_code)
FUNC deb4c ec 0 _ZNSt6__ndk115allocate_sharedB8ne190000INS_4__fs10filesystem16filesystem_error8_StorageENS_9allocatorIS4_EEJRKNS2_4pathES7_ETnNS_9enable_ifIXntsr8is_arrayIT_EE5valueEiE4typeELi0EEENS_10shared_ptrISB_EERKT0_DpOT1_
FUNC dec38 a4 0 std::__ndk1::__fs::filesystem::filesystem_error::filesystem_error[abi:ne190000](std::__ndk1::basic_string<char, std::__ndk1::char_traits<char>, std::__ndk1::allocator<char> > const&, std::__ndk1::__fs::filesystem::path const&, std::__ndk1::__fs::filesystem::path const, std::__ndk1::error_code)
FUNC decdc ec 0 _ZNSt6__ndk115allocate_sharedB8ne190000INS_4__fs10filesystem16filesystem_error8_StorageENS_9allocatorIS4_EEJRKNS2_4pathES9_ETnNS_9enable_ifIXntsr8is_arrayIT_EE5valueEiE4typeELi0EEENS_10shared_ptrISB_EERKT0_DpOT1_
FUNC dedc8 14 0 std::__ndk1::__shared_ptr_emplace<std::__ndk1::__fs::filesystem::__dir_stream, std::__ndk1::allocator<std::__ndk1::__fs::filesystem::__dir_stream> >::~__shared_ptr_emplace()
FUNC deddc 38 0 std::__ndk1::__shared_ptr_emplace<std::__ndk1::__fs::filesystem::__dir_stream, std::__ndk1::allocator<std::__ndk1::__fs::filesystem::__dir_stream> >::~__shared_ptr_emplace()
FUNC dee14 60 0 std::__ndk1::__shared_ptr_emplace<std::__ndk1::__fs::filesystem::__dir_stream, std::__ndk1::allocator<std::__ndk1::__fs::filesystem::__dir_stream> >::__on_zero_shared()
FUNC dee74 8 0 std::__ndk1::__shared_ptr_emplace<std::__ndk1::__fs::filesystem::__dir_stream, std::__ndk1::allocator<std::__ndk1::__fs::filesystem::__dir_stream> >::__on_zero_shared_weak()
FUNC dee7c 14 0 std::__ndk1::__shared_ptr_emplace<std::__ndk1::__fs::filesystem::recursive_directory_iterator::__shared_imp, std::__ndk1::allocator<std::__ndk1::__fs::filesystem::recursive_directory_iterator::__shared_imp> >::~__shared_ptr_emplace()
FUNC dee90 38 0 std::__ndk1::__shared_ptr_emplace<std::__ndk1::__fs::filesystem::recursive_directory_iterator::__shared_imp, std::__ndk1::allocator<std::__ndk1::__fs::filesystem::recursive_directory_iterator::__shared_imp> >::~__shared_ptr_emplace()
FUNC deec8 8c 0 std::__ndk1::__shared_ptr_emplace<std::__ndk1::__fs::filesystem::recursive_directory_iterator::__shared_imp, std::__ndk1::allocator<std::__ndk1::__fs::filesystem::recursive_directory_iterator::__shared_imp> >::__on_zero_shared()
FUNC def54 8 0 std::__ndk1::__shared_ptr_emplace<std::__ndk1::__fs::filesystem::recursive_directory_iterator::__shared_imp, std::__ndk1::allocator<std::__ndk1::__fs::filesystem::recursive_directory_iterator::__shared_imp> >::__on_zero_shared_weak()
FUNC def5c 160 0 std::__ndk1::deque<std::__ndk1::__fs::filesystem::__dir_stream, std::__ndk1::allocator<std::__ndk1::__fs::filesystem::__dir_stream> >::clear()
FUNC df0bc 48c 0 std::__ndk1::deque<std::__ndk1::__fs::filesystem::__dir_stream, std::__ndk1::allocator<std::__ndk1::__fs::filesystem::__dir_stream> >::__add_back_capacity()
FUNC df548 190 0 std::__ndk1::__split_buffer<std::__ndk1::__fs::filesystem::__dir_stream*, std::__ndk1::allocator<std::__ndk1::__fs::filesystem::__dir_stream*> >::push_back(std::__ndk1::__fs::filesystem::__dir_stream*&&)
FUNC df6d8 194 0 std::__ndk1::__split_buffer<std::__ndk1::__fs::filesystem::__dir_stream*, std::__ndk1::allocator<std::__ndk1::__fs::filesystem::__dir_stream*> >::push_front(std::__ndk1::__fs::filesystem::__dir_stream*&&)
FUNC df86c 194 0 std::__ndk1::__split_buffer<std::__ndk1::__fs::filesystem::__dir_stream*, std::__ndk1::allocator<std::__ndk1::__fs::filesystem::__dir_stream*>&>::push_front(std::__ndk1::__fs::filesystem::__dir_stream* const&)
FUNC dfa00 e8 0 std::__ndk1::deque<std::__ndk1::__fs::filesystem::__dir_stream, std::__ndk1::allocator<std::__ndk1::__fs::filesystem::__dir_stream> >::pop_back()
FUNC dfae8 68 0 std::__ndk1::__fs::filesystem::filesystem_error::~filesystem_error()
FUNC dfb50 2c 0 std::__ndk1::__fs::filesystem::filesystem_error::~filesystem_error()
FUNC dfb7c e4 0 std::__ndk1::__fs::filesystem::filesystem_error::__create_what(int)
FUNC dfc60 20 0 std::__ndk1::__fs::filesystem::filesystem_error::what() const
FUNC dfc80 168 0 std::__ndk1::__fs::filesystem::detail::format_string(char const*, ...)
FUNC dfde8 78 0 std::__ndk1::__fs::filesystem::__absolute(std::__ndk1::__fs::filesystem::path const&, std::__ndk1::error_code*)
FUNC dfe60 12c 0 std::__ndk1::__fs::filesystem::__do_absolute(std::__ndk1::__fs::filesystem::path const&, std::__ndk1::__fs::filesystem::path*, std::__ndk1::error_code*)
FUNC dff8c 17c 0 std::__ndk1::__fs::filesystem::__canonical(std::__ndk1::__fs::filesystem::path const&, std::__ndk1::error_code*)
FUNC e0108 104 0 std::__ndk1::__fs::filesystem::detail::ErrorHandler<std::__ndk1::__fs::filesystem::path>::report(std::__ndk1::error_code const&) const
FUNC e020c 544 0 std::__ndk1::__fs::filesystem::__copy(std::__ndk1::__fs::filesystem::path const&, std::__ndk1::__fs::filesystem::path const&, std::__ndk1::__fs::filesystem::copy_options, std::__ndk1::error_code*)
FUNC e0750 138 0 std::__ndk1::__fs::filesystem::detail::posix_lstat(std::__ndk1::__fs::filesystem::path const&, stat&, std::__ndk1::error_code*)
FUNC e0888 138 0 std::__ndk1::__fs::filesystem::detail::posix_stat(std::__ndk1::__fs::filesystem::path const&, stat&, std::__ndk1::error_code*)
FUNC e09c0 44 0 std::__ndk1::__fs::filesystem::detail::ErrorHandler<void>::report(std::__ndk1::errc const&) const
FUNC e0a04 84 0 std::__ndk1::__fs::filesystem::__copy_symlink(std::__ndk1::__fs::filesystem::path const&, std::__ndk1::__fs::filesystem::path const&, std::__ndk1::error_code*)
FUNC e0a88 a4 0 std::__ndk1::__fs::filesystem::__create_symlink(std::__ndk1::__fs::filesystem::path const&, std::__ndk1::__fs::filesystem::path const&, std::__ndk1::error_code*)
FUNC e0b2c a4 0 std::__ndk1::__fs::filesystem::__create_hard_link(std::__ndk1::__fs::filesystem::path const&, std::__ndk1::__fs::filesystem::path const&, std::__ndk1::error_code*)
FUNC e0bd0 304 0 std::__ndk1::__fs::filesystem::__copy_file(std::__ndk1::__fs::filesystem::path const&, std::__ndk1::__fs::filesystem::path const&, std::__ndk1::__fs::filesystem::copy_options, std::__ndk1::error_code*)
FUNC e0ed4 7c 0 std::__ndk1::__fs::filesystem::operator/[abi:ne190000](std::__ndk1::__fs::filesystem::path const&, std::__ndk1::__fs::filesystem::path const)
FUNC e0f50 cc 0 std::__ndk1::__fs::filesystem::path::filename[abi:ne190000]() const
FUNC e101c 160 0 std::__ndk1::__fs::filesystem::__create_directory(std::__ndk1::__fs::filesystem::path const&, std::__ndk1::__fs::filesystem::path const&, std::__ndk1::error_code*)
FUNC e117c c4 0 std::__ndk1::__fs::filesystem::detail::FileDescriptor::create_with_status<int>(std::__ndk1::__fs::filesystem::path const*, std::__ndk1::error_code&, int)
FUNC e1240 100 0 std::__ndk1::__fs::filesystem::detail::ErrorHandler<bool>::report(std::__ndk1::error_code const&) const
FUNC e1340 48 0 std::__ndk1::__fs::filesystem::detail::ErrorHandler<bool>::report(std::__ndk1::errc const&) const
FUNC e1388 cc 0 std::__ndk1::__fs::filesystem::detail::FileDescriptor::create_with_status<int, unsigned int>(std::__ndk1::__fs::filesystem::path const*, std::__ndk1::error_code&, int, unsigned int)
FUNC e1454 74 0 std::__ndk1::__fs::filesystem::detail::posix_fchmod(std::__ndk1::__fs::filesystem::detail::FileDescriptor const&, stat const&, std::__ndk1::error_code&)
FUNC e14c8 70 0 std::__ndk1::__fs::filesystem::detail::posix_ftruncate(std::__ndk1::__fs::filesystem::detail::FileDescriptor const&, long, std::__ndk1::error_code&)
FUNC e1538 8c 0 std::__ndk1::__fs::filesystem::detail::(anonymous namespace)::copy_file_impl(std::__ndk1::__fs::filesystem::detail::FileDescriptor&, std::__ndk1::__fs::filesystem::detail::FileDescriptor&, std::__ndk1::error_code&)
FUNC e15c4 40 0 std::__ndk1::__fs::filesystem::detail::FileDescriptor::~FileDescriptor()
FUNC e1604 118 0 std::__ndk1::__fs::filesystem::__read_symlink(std::__ndk1::__fs::filesystem::path const&, std::__ndk1::error_code*)
FUNC e171c 288 0 std::__ndk1::__fs::filesystem::__create_directories(std::__ndk1::__fs::filesystem::path const&, std::__ndk1::error_code*)
FUNC e19a4 40 0 std::__ndk1::__fs::filesystem::operator==[abi:ne190000](std::__ndk1::__fs::filesystem::path const&, std::__ndk1::__fs::filesystem::path const)
FUNC e19e4 e8 0 std::__ndk1::__fs::filesystem::__create_directory(std::__ndk1::__fs::filesystem::path const&, std::__ndk1::error_code*)
FUNC e1acc c0 0 std::__ndk1::__fs::filesystem::detail::ErrorHandler<bool>::report(std::__ndk1::errc const&, char const*, ...) const
FUNC e1b8c a4 0 std::__ndk1::__fs::filesystem::__create_directory_symlink(std::__ndk1::__fs::filesystem::path const&, std::__ndk1::__fs::filesystem::path const&, std::__ndk1::error_code*)
FUNC e1c30 14c 0 std::__ndk1::__fs::filesystem::__current_path(std::__ndk1::error_code*)
FUNC e1d7c a4 0 std::__ndk1::__fs::filesystem::detail::ErrorHandler<std::__ndk1::__fs::filesystem::path>::report(std::__ndk1::error_code const&, char const*, ...) const
FUNC e1e20 88 0 std::__ndk1::__fs::filesystem::__current_path(std::__ndk1::__fs::filesystem::path const&, std::__ndk1::error_code*)
FUNC e1ea8 1e4 0 std::__ndk1::__fs::filesystem::__equivalent(std::__ndk1::__fs::filesystem::path const&, std::__ndk1::__fs::filesystem::path const&, std::__ndk1::error_code*)
FUNC e208c c8 0 std::__ndk1::__fs::filesystem::__file_size(std::__ndk1::__fs::filesystem::path const&, std::__ndk1::error_code*)
FUNC e2154 100 0 std::__ndk1::__fs::filesystem::detail::ErrorHandler<unsigned long>::report(std::__ndk1::error_code const&) const
FUNC e2254 90 0 std::__ndk1::__fs::filesystem::__hard_link_count(std::__ndk1::__fs::filesystem::path const&, std::__ndk1::error_code*)
FUNC e22e4 14c 0 std::__ndk1::__fs::filesystem::__fs_is_empty(std::__ndk1::__fs::filesystem::path const&, std::__ndk1::error_code*)
FUNC e2430 100 0 std::__ndk1::__fs::filesystem::__last_write_time(std::__ndk1::__fs::filesystem::path const&, std::__ndk1::error_code*)
FUNC e2530 104 0 std::__ndk1::__fs::filesystem::detail::ErrorHandler<std::__ndk1::chrono::time_point<std::__ndk1::__fs::filesystem::_FilesystemClock, std::__ndk1::chrono::duration<__int128, std::__ndk1::ratio<(long)1, (long)1000000000> > > >::report(std::__ndk1::error_code const&) const
FUNC e2634 194 0 std::__ndk1::__fs::filesystem::__last_write_time(std::__ndk1::__fs::filesystem::path const&, std::__ndk1::chrono::time_point<std::__ndk1::__fs::filesystem::_FilesystemClock, std::__ndk1::chrono::duration<__int128, std::__ndk1::ratio<(long)1, (long)1000000000> > >, std::__ndk1::error_code*)
FUNC e27c8 128 0 std::__ndk1::__fs::filesystem::__permissions(std::__ndk1::__fs::filesystem::path const&, std::__ndk1::__fs::filesystem::perms, std::__ndk1::__fs::filesystem::perm_options, std::__ndk1::error_code*)
FUNC e28f0 9c 0 std::__ndk1::__fs::filesystem::__remove(std::__ndk1::__fs::filesystem::path const&, std::__ndk1::error_code*)
FUNC e298c 84 0 std::__ndk1::__fs::filesystem::__remove_all(std::__ndk1::__fs::filesystem::path const&, std::__ndk1::error_code*)
FUNC e2a10 37c 0 std::__ndk1::__fs::filesystem::(anonymous namespace)::remove_all_impl(int, std::__ndk1::__fs::filesystem::path const&, std::__ndk1::error_code&)
FUNC e2d8c a4 0 std::__ndk1::__fs::filesystem::__rename(std::__ndk1::__fs::filesystem::path const&, std::__ndk1::__fs::filesystem::path const&, std::__ndk1::error_code*)
FUNC e2e30 98 0 std::__ndk1::__fs::filesystem::__resize_file(std::__ndk1::__fs::filesystem::path const&, unsigned long, std::__ndk1::error_code*)
FUNC e2ec8 134 0 std::__ndk1::__fs::filesystem::__space(std::__ndk1::__fs::filesystem::path const&, std::__ndk1::error_code*)
FUNC e2ffc 2c 0 std::__ndk1::__fs::filesystem::__status(std::__ndk1::__fs::filesystem::path const&, std::__ndk1::error_code*)
FUNC e3028 2c 0 std::__ndk1::__fs::filesystem::__symlink_status(std::__ndk1::__fs::filesystem::path const&, std::__ndk1::error_code*)
FUNC e3054 1ac 0 std::__ndk1::__fs::filesystem::__temp_directory_path(std::__ndk1::error_code*)
FUNC e3200 d0 0 std::__ndk1::__fs::filesystem::detail::ErrorHandler<std::__ndk1::__fs::filesystem::path>::report(std::__ndk1::errc const&, char const*, ...) const
FUNC e32d0 554 0 std::__ndk1::__fs::filesystem::__weakly_canonical(std::__ndk1::__fs::filesystem::path const&, std::__ndk1::error_code*)
FUNC e3824 18 0 std::__ndk1::vector<std::__ndk1::basic_string_view<char, std::__ndk1::char_traits<char> >, std::__ndk1::allocator<std::__ndk1::basic_string_view<char, std::__ndk1::char_traits<char> > > >::__throw_length_error[abi:ne190000]() const
FUNC e383c 148 0 std::__ndk1::__fs::filesystem::detail::FileDescriptor::refresh_status(std::__ndk1::error_code&)
FUNC e3984 230 0 std::__ndk1::__fs::filesystem::detail::ErrorHandler<bool>::report_impl(std::__ndk1::error_code const&, char const*, std::__va_list) const
FUNC e3bb4 230 0 std::__ndk1::__fs::filesystem::detail::ErrorHandler<std::__ndk1::__fs::filesystem::path>::report_impl(std::__ndk1::error_code const&, char const*, std::__va_list) const
FUNC e3de4 8 0 std::bad_array_new_length::~bad_array_new_length()
FUNC e3dec 2c 0 std::exception::~exception()
FUNC e3e18 10 0 std::exception::what() const
FUNC e3e28 2c 0 std::bad_exception::~bad_exception()
FUNC e3e54 10 0 std::bad_exception::what() const
FUNC e3e64 18 0 std::bad_alloc::bad_alloc()
FUNC e3e7c 2c 0 std::bad_alloc::~bad_alloc()
FUNC e3ea8 10 0 std::bad_alloc::what() const
FUNC e3eb8 18 0 std::bad_array_new_length::bad_array_new_length()
FUNC e3ed0 2c 0 std::bad_array_new_length::~bad_array_new_length()
FUNC e3efc 10 0 std::bad_array_new_length::what() const
FUNC e3f0c 58 0 std::length_error::~length_error()
FUNC e3f64 2c 0 std::logic_error::~logic_error()
FUNC e3f90 c 0 std::logic_error::what() const
FUNC e3f9c 58 0 std::runtime_error::~runtime_error()
FUNC e3ff4 2c 0 std::runtime_error::~runtime_error()
FUNC e4020 c 0 std::runtime_error::what() const
FUNC e402c 2c 0 std::domain_error::~domain_error()
FUNC e4058 2c 0 std::invalid_argument::~invalid_argument()
FUNC e4084 2c 0 std::length_error::~length_error()
FUNC e40b0 2c 0 std::out_of_range::~out_of_range()
FUNC e40dc 2c 0 std::range_error::~range_error()
FUNC e4108 2c 0 std::overflow_error::~overflow_error()
FUNC e4134 2c 0 std::underflow_error::~underflow_error()
FUNC e4160 8 0 std::type_info::~type_info()
FUNC e4168 2c 0 std::type_info::~type_info()
FUNC e4194 18 0 std::bad_cast::bad_cast()
FUNC e41ac 8 0 std::bad_cast::~bad_cast()
FUNC e41b4 2c 0 std::bad_cast::~bad_cast()
FUNC e41e0 10 0 std::bad_cast::what() const
FUNC e41f0 18 0 std::bad_typeid::bad_typeid()
FUNC e4208 8 0 std::bad_typeid::~bad_typeid()
FUNC e4210 2c 0 std::bad_typeid::~bad_typeid()
FUNC e423c 10 0 std::bad_typeid::what() const
FUNC e424c 8 0 __cxxabiv1::__class_type_info::~__class_type_info()
FUNC e4254 8 0 __cxxabiv1::__shim_type_info::~__shim_type_info()
FUNC e425c 8 0 __cxxabiv1::__shim_type_info::noop1() const
FUNC e4264 8 0 __cxxabiv1::__shim_type_info::noop2() const
FUNC e426c 2c 0 __cxxabiv1::__fundamental_type_info::~__fundamental_type_info()
FUNC e4298 2c 0 __cxxabiv1::__array_type_info::~__array_type_info()
FUNC e42c4 2c 0 __cxxabiv1::__function_type_info::~__function_type_info()
FUNC e42f0 2c 0 __cxxabiv1::__enum_type_info::~__enum_type_info()
FUNC e431c 2c 0 __cxxabiv1::__class_type_info::~__class_type_info()
FUNC e4348 2c 0 __cxxabiv1::__si_class_type_info::~__si_class_type_info()
FUNC e4374 2c 0 __cxxabiv1::__vmi_class_type_info::~__vmi_class_type_info()
FUNC e43a0 2c 0 __cxxabiv1::__pbase_type_info::~__pbase_type_info()
FUNC e43cc 2c 0 __cxxabiv1::__pointer_type_info::~__pointer_type_info()
FUNC e43f8 2c 0 __cxxabiv1::__pointer_to_member_type_info::~__pointer_to_member_type_info()
FUNC e4424 18 0 __cxxabiv1::__fundamental_type_info::can_catch(__cxxabiv1::__shim_type_info const*, void*&) const
FUNC e443c c 0 __cxxabiv1::__array_type_info::can_catch(__cxxabiv1::__shim_type_info const*, void*&) const
FUNC e4448 c 0 __cxxabiv1::__function_type_info::can_catch(__cxxabiv1::__shim_type_info const*, void*&) const
FUNC e4454 18 0 __cxxabiv1::__enum_type_info::can_catch(__cxxabiv1::__shim_type_info const*, void*&) const
FUNC e446c ec 0 __cxxabiv1::__class_type_info::can_catch(__cxxabiv1::__shim_type_info const*, void*&) const
FUNC e4558 20c 0 __dynamic_cast
FUNC e4764 88 0 __cxxabiv1::__class_type_info::has_unambiguous_public_base(__cxxabiv1::__dynamic_cast_info*, void*, int) const
FUNC e47ec 94 0 __cxxabiv1::__si_class_type_info::has_unambiguous_public_base(__cxxabiv1::__dynamic_cast_info*, void*, int) const
FUNC e4880 1d0 0 __cxxabiv1::__vmi_class_type_info::has_unambiguous_public_base(__cxxabiv1::__dynamic_cast_info*, void*, int) const
FUNC e4a50 ac 0 __cxxabiv1::__pbase_type_info::can_catch(__cxxabiv1::__shim_type_info const*, void*&) const
FUNC e4afc 2bc 0 __cxxabiv1::__pointer_type_info::can_catch(__cxxabiv1::__shim_type_info const*, void*&) const
FUNC e4db8 f4 0 __cxxabiv1::__pointer_type_info::can_catch_nested(__cxxabiv1::__shim_type_info const*) const
FUNC e4eac a0 0 __cxxabiv1::__pointer_to_member_type_info::can_catch_nested(__cxxabiv1::__shim_type_info const*) const
FUNC e4f4c 16c 0 __cxxabiv1::__pointer_to_member_type_info::can_catch(__cxxabiv1::__shim_type_info const*, void*&) const
FUNC e50b8 3b0 0 __cxxabiv1::__vmi_class_type_info::search_below_dst(__cxxabiv1::__dynamic_cast_info*, void const*, int, bool) const
FUNC e5468 1b0 0 __cxxabiv1::__si_class_type_info::search_below_dst(__cxxabiv1::__dynamic_cast_info*, void const*, int, bool) const
FUNC e5618 128 0 __cxxabiv1::__class_type_info::search_below_dst(__cxxabiv1::__dynamic_cast_info*, void const*, int, bool) const
FUNC e5740 234 0 __cxxabiv1::__vmi_class_type_info::search_above_dst(__cxxabiv1::__dynamic_cast_info*, void const*, void const*, int, bool) const
FUNC e5974 144 0 __cxxabiv1::__si_class_type_info::search_above_dst(__cxxabiv1::__dynamic_cast_info*, void const*, void const*, int, bool) const
FUNC e5ab8 104 0 __cxxabiv1::__class_type_info::search_above_dst(__cxxabiv1::__dynamic_cast_info*, void const*, void const*, int, bool) const
FUNC e5bbc 104 0 abort_message
FUNC e5cc0 30 0 operator new(unsigned long, std::nothrow_t const&)
FUNC e5cf0 30 0 operator new[](unsigned long, std::nothrow_t const&)
FUNC e5d20 8 0 operator delete(void*)
FUNC e5d28 8 0 operator delete(void*, std::nothrow_t const&)
FUNC e5d30 8 0 operator delete(void*, unsigned long)
FUNC e5d38 8 0 operator delete[](void*)
FUNC e5d40 8 0 operator delete[](void*, std::nothrow_t const&)
FUNC e5d48 8 0 operator delete[](void*, unsigned long)
FUNC e5d50 30 0 operator new(unsigned long, std::align_val_t, std::nothrow_t const&)
FUNC e5d80 30 0 operator new[](unsigned long, std::align_val_t, std::nothrow_t const&)
FUNC e5db0 8 0 operator delete(void*, std::align_val_t)
FUNC e5db8 8 0 operator delete(void*, std::align_val_t, std::nothrow_t const&)
FUNC e5dc0 c 0 operator delete(void*, unsigned long, std::align_val_t)
FUNC e5dcc 8 0 operator delete[](void*, std::align_val_t)
FUNC e5dd4 8 0 operator delete[](void*, std::align_val_t, std::nothrow_t const&)
FUNC e5ddc c 0 operator delete[](void*, unsigned long, std::align_val_t)
FUNC e5de8 c 0 __cxxabiv1::__getExceptionClass(_Unwind_Exception const*)
FUNC e5df4 24 0 __cxxabiv1::__isOurExceptionClass(_Unwind_Exception const*)
FUNC e5e18 50 0 __cxa_allocate_exception
FUNC e5e68 9c 0 __cxa_begin_catch
FUNC e5f04 24 0 __cxa_free_exception
FUNC e5f28 70 0 __cxa_init_primary_exception
FUNC e5f98 68 0 __cxxabiv1::exception_cleanup_func(_Unwind_Reason_Code, _Unwind_Exception*)
FUNC e6000 3c 0 __cxa_allocate_dependent_exception
FUNC e603c 8 0 __cxa_free_dependent_exception
FUNC e6044 5c 0 __cxa_throw
FUNC e60a0 24 0 __cxxabiv1::failed_throw(__cxxabiv1::__cxa_exception*)
FUNC e60c4 c 0 __cxa_get_exception_ptr
FUNC e60d0 ec 0 __cxa_end_catch
FUNC e61bc 5c 0 __cxa_decrement_exception_refcount
FUNC e6218 50 0 __cxa_current_exception_type
FUNC e6268 e4 0 __cxa_rethrow
FUNC e634c 2c 0 __cxa_increment_exception_refcount
FUNC e6378 80 0 __cxa_current_primary_exception
FUNC e63f8 120 0 __cxa_rethrow_primary_exception
FUNC e6518 74 0 __cxxabiv1::dependent_exception_cleanup(_Unwind_Reason_Code, _Unwind_Exception*)
FUNC e658c 30 0 __cxa_uncaught_exception
FUNC e65bc 28 0 __cxa_uncaught_exceptions
FUNC e65e4 4c 0 __cxxabiv1::__aligned_malloc_with_fallback(unsigned long)
FUNC e6630 188 0 (anonymous namespace)::fallback_malloc(unsigned long)
FUNC e67b8 2c 0 __cxxabiv1::__aligned_free_with_fallback(void*)
FUNC e67e4 104 0 (anonymous namespace)::fallback_free(void*)
FUNC e68e8 14 0 std::get_unexpected()
FUNC e68fc 40 0 std::terminate()
FUNC e693c 1c 0 std::__unexpected(void (*)())
FUNC e6958 1c 0 std::unexpected()
FUNC e6974 14 0 std::get_terminate()
FUNC e6988 30 0 std::__terminate(void (*)())
FUNC e69b8 14 0 std::get_new_handler()
FUNC e69cc 14c 0 demangling_terminate_handler()
FUNC e6b18 20 0 demangling_unexpected_handler()
FUNC e6b38 34 0 std::set_unexpected(void (*)())
FUNC e6b6c 34 0 std::set_terminate(void (*)())
FUNC e6ba0 24 0 std::set_new_handler(void (*)())
FUNC e6bc4 8 0 demangle(char const*)::$_0::__invoke(char const*)
FUNC e6bcc 8 0 demangle(char const*)::$_1::__invoke(char const*)
FUNC e6bd4 118 0 __cxa_thread_atexit
FUNC e6cec 3c 0 __cxxabiv1::(anonymous namespace)::DtorsManager::DtorsManager()
FUNC e6d28 6c 0 __cxxabiv1::(anonymous namespace)::DtorsManager::~DtorsManager()
FUNC e6d94 68 0 __cxxabiv1::(anonymous namespace)::run_dtors(void*)
PUBLIC m e6dfc 0 __eqtf2
PUBLIC e6e9c 0 __unordtf2
PUBLIC e6ed4 0 __divti3
PUBLIC e6f2c 0 __udivmodti4
PUBLIC e7178 0 __udivti3
PUBLIC m e7184 0 __emutls_get_address
PUBLIC e7370 0 __emutls_unregister_key
PUBLIC e73ac 0 emutls_init
PUBLIC e73e8 0 emutls_key_destructor
PUBLIC e7470 0 __aarch64_cas8_acq_rel
PUBLIC e74a4 0 init_have_lse_atomics
PUBLIC e753c 0 __init_cpu_features_constructor
PUBLIC e77e8 0 __init_cpu_features
PUBLIC e7880 0 __aarch64_swp8_acq_rel
PUBLIC e78b0 0 __aarch64_ldadd4_acq_rel
PUBLIC e78e0 0 __aarch64_ldadd8_relax
PUBLIC e7910 0 __aarch64_ldadd8_acq_rel
FUNC e7940 6c 0 operator new(unsigned long)
FUNC e79ac 8 0 operator new[](unsigned long)
FUNC e79b4 90 0 operator new(unsigned long, std::align_val_t)
FUNC e7a44 8 0 operator new[](unsigned long, std::align_val_t)
PUBLIC e7a50 0 <.plt ELF section in johnny_cena.node_data_api.android64.so>
STACK CFI INIT 71c60 10 .cfa: sp 0 +
STACK CFI INIT 71c70 8 .cfa: sp 0 +
STACK CFI INIT 71c78 8 .cfa: sp 0 +
STACK CFI INIT 71c80 14 .cfa: sp 0 +
STACK CFI INIT 71c94 1c .cfa: sp 0 +
STACK CFI INIT 71cb0 10 .cfa: sp 0 +
STACK CFI INIT 72190 60 .cfa: sp 0 +
STACK CFI 721a0 .cfa: sp 32 +
STACK CFI 721a8 .cfa: x29 32 + x19: .cfa -16 + ^ .ra: .cfa -24 + ^ x29: .cfa -32 + ^
STACK CFI 721e0 .cfa: sp 32 +
STACK CFI 721e8 .cfa: sp 0 +
STACK CFI INIT 721f0 1c .cfa: sp 0 +
STACK CFI INIT 7220c 14 .cfa: sp 0 +
STACK CFI 72210 .cfa: sp 16 +
STACK CFI 72214 .cfa: x29 16 + .ra: .cfa -8 + ^ x29: .cfa -16 + ^
STACK CFI INIT 72270 30 .cfa: sp 0 +
STACK CFI 72274 .cfa: sp 32 +
STACK CFI 7227c .cfa: x29 32 + x19: .cfa -16 + ^ .ra: .cfa -24 + ^ x29: .cfa -32 + ^
STACK CFI 72294 .cfa: sp 32 +
STACK CFI 7229c .cfa: sp 0 +
STACK CFI INIT 722a0 34 .cfa: sp 0 +
STACK CFI 722a4 .cfa: sp 32 +
STACK CFI 722ac .cfa: x29 32 + x19: .cfa -16 + ^ .ra: .cfa -24 + ^ x29: .cfa -32 + ^
STACK CFI INIT 722d4 10 .cfa: sp 0 +
STACK CFI 722d8 .cfa: sp 16 +
STACK CFI 722dc .cfa: x29 16 + .ra: .cfa -8 + ^ x29: .cfa -16 + ^
STACK CFI INIT 722e4 50 .cfa: sp 0 +
STACK CFI 722e8 .cfa: sp 32 +
STACK CFI 722f0 .cfa: x29 32 + x19: .cfa -16 + ^ .ra: .cfa -24 + ^ x29: .cfa -32 + ^
STACK CFI 72308 .cfa: sp 32 +
STACK CFI 72310 .cfa: sp 0 +
STACK CFI 72314 .cfa: x29 32 +
STACK CFI 72328 .cfa: sp 32 +
STACK CFI 72330 .cfa: sp 0 +
STACK CFI INIT 72334 50 .cfa: sp 0 +
STACK CFI 72338 .cfa: sp 32 +
STACK CFI 72340 .cfa: x29 32 + x19: .cfa -16 + ^ .ra: .cfa -24 + ^ x29: .cfa -32 + ^
STACK CFI 72358 .cfa: sp 32 +
STACK CFI 72360 .cfa: sp 0 +
STACK CFI 72364 .cfa: x29 32 +
STACK CFI 72378 .cfa: sp 32 +
STACK CFI 72380 .cfa: sp 0 +
STACK CFI INIT 72384 e4 .cfa: sp 0 +
STACK CFI 72388 .cfa: sp 64 +
STACK CFI 72398 .cfa: x29 64 + x19: .cfa -8 + ^ x20: .cfa -16 + ^ x21: .cfa -24 + ^ x22: .cfa -32 + ^ x23: .cfa -48 + ^ .ra: .cfa -56 + ^ x29: .cfa -64 + ^
STACK CFI 72410 .cfa: sp 64 +
STACK CFI 72420 .cfa: sp 0 +
STACK CFI 72424 .cfa: x29 64 +
STACK CFI INIT 72468 7c .cfa: sp 0 +
STACK CFI 7246c .cfa: sp 48 +
STACK CFI 72478 .cfa: x29 48 + x19: .cfa -8 + ^ x20: .cfa -16 + ^ x21: .cfa -24 + ^ x22: .cfa -32 + ^ .ra: .cfa -40 + ^ x29: .cfa -48 + ^
STACK CFI 724cc .cfa: sp 48 +
STACK CFI 724d8 .cfa: sp 0 +
STACK CFI 724dc .cfa: x29 48 +
STACK CFI INIT 726c0 34 .cfa: sp 0 +
STACK CFI 726c4 .cfa: sp 16 +
STACK CFI 726c8 .cfa: x29 16 + .ra: .cfa -8 + ^ x29: .cfa -16 + ^
STACK CFI INIT 7281c 88 .cfa: sp 0 +
STACK CFI 72820 .cfa: sp 48 +
STACK CFI 7282c .cfa: x29 48 + x19: .cfa -8 + ^ x20: .cfa -16 + ^ x21: .cfa -32 + ^ .ra: .cfa -40 + ^ x29: .cfa -48 + ^
STACK CFI 72894 .cfa: sp 48 +
STACK CFI 728a0 .cfa: sp 0 +
STACK CFI INIT 728a4 28 .cfa: sp 0 +
STACK CFI 728a8 .cfa: sp 32 +
STACK CFI 728b0 .cfa: x29 32 + x19: .cfa -16 + ^ .ra: .cfa -24 + ^ x29: .cfa -32 + ^
STACK CFI 728c0 .cfa: sp 32 +
STACK CFI 728c8 .cfa: sp 0 +
STACK CFI INIT 72d98 14c .cfa: sp 0 +
STACK CFI 72d9c .cfa: sp 48 +
STACK CFI 72da8 .cfa: x29 48 + x19: .cfa -8 + ^ x20: .cfa -16 + ^ x21: .cfa -32 + ^ .ra: .cfa -40 + ^ x29: .cfa -48 + ^
STACK CFI 72ed4 .cfa: sp 48 +
STACK CFI 72ee0 .cfa: sp 0 +
STACK CFI INIT 72ee4 88 .cfa: sp 0 +
STACK CFI 72eec .cfa: sp 48 +
STACK CFI 72ef8 .cfa: x29 48 + x19: .cfa -8 + ^ x20: .cfa -16 + ^ x21: .cfa -24 + ^ x22: .cfa -32 + ^ .ra: .cfa -40 + ^ x29: .cfa -48 + ^
STACK CFI 72f5c .cfa: sp 48 +
STACK CFI 72f68 .cfa: sp 0 +
STACK CFI INIT 72fbc 30 .cfa: sp 0 +
STACK CFI 72fc0 .cfa: sp 32 +
STACK CFI 72fc8 .cfa: x29 32 + x19: .cfa -16 + ^ .ra: .cfa -24 + ^ x29: .cfa -32 + ^
STACK CFI 72fe0 .cfa: sp 32 +
STACK CFI 72fe8 .cfa: sp 0 +
STACK CFI INIT 72fec 4 .cfa: sp 0 +
STACK CFI INIT 72ff0 1c .cfa: sp 0 +
STACK CFI INIT 7300c 4 .cfa: sp 0 +
STACK CFI INIT 73010 1c .cfa: sp 0 +
STACK CFI INIT 7302c 4 .cfa: sp 0 +
STACK CFI INIT 73030 8 .cfa: sp 0 +
STACK CFI INIT 73038 24 .cfa: sp 0 +
STACK CFI 7303c .cfa: sp 16 +
STACK CFI 73040 .cfa: x29 16 + .ra: .cfa -8 + ^ x29: .cfa -16 + ^
STACK CFI 73054 .cfa: sp 16 +
STACK CFI 73058 .cfa: sp 0 +
STACK CFI INIT 7305c 10 .cfa: sp 0 +
STACK CFI INIT 7306c 4 .cfa: sp 0 +
STACK CFI INIT 73070 8 .cfa: sp 0 +
STACK CFI INIT 73134 1c .cfa: sp 0 +
STACK CFI INIT 73150 c .cfa: sp 0 +
STACK CFI INIT 737e4 50 .cfa: sp 0 +
STACK CFI 737e8 .cfa: sp 32 +
STACK CFI 737f0 .cfa: x29 32 + x19: .cfa -16 + ^ .ra: .cfa -24 + ^ x29: .cfa -32 + ^
STACK CFI 73808 .cfa: sp 32 +
STACK CFI 73810 .cfa: sp 0 +
STACK CFI 73814 .cfa: x29 32 +
STACK CFI 73828 .cfa: sp 32 +
STACK CFI 73830 .cfa: sp 0 +
STACK CFI INIT 738a8 8c .cfa: sp 0 +
STACK CFI 738ac .cfa: sp 48 +
STACK CFI 738b8 .cfa: x29 48 + x19: .cfa -8 + ^ x20: .cfa -16 + ^ x21: .cfa -32 + ^ .ra: .cfa -40 + ^ x29: .cfa -48 + ^
STACK CFI 73914 .cfa: sp 48 +
STACK CFI 73920 .cfa: sp 0 +
STACK CFI 73924 .cfa: sp 48 +
STACK CFI 73930 .cfa: sp 0 +
STACK CFI INIT 73934 4 .cfa: sp 0 +
STACK CFI INIT 73c5c 78 .cfa: sp 0 +
STACK CFI 73c60 .cfa: sp 32 +
STACK CFI 73c68 .cfa: x29 32 + x19: .cfa -8 + ^ x20: .cfa -16 + ^ .ra: .cfa -24 + ^ x29: .cfa -32 + ^
STACK CFI 73c88 .cfa: sp 32 +
STACK CFI 73c90 .cfa: sp 0 +
STACK CFI 73c94 .cfa: x29 32 +
STACK CFI 73cc8 .cfa: sp 32 +
STACK CFI 73cd0 .cfa: sp 0 +
STACK CFI INIT 73cd4 14 .cfa: sp 0 +
STACK CFI 73cd8 .cfa: sp 16 +
STACK CFI 73cdc .cfa: x29 16 + .ra: .cfa -8 + ^ x29: .cfa -16 + ^
STACK CFI INIT 73ce8 4 .cfa: sp 0 +
STACK CFI INIT 73cec 1c .cfa: sp 0 +
STACK CFI INIT 73d08 104 .cfa: sp 0 +
STACK CFI 73d0c .cfa: sp 80 +
STACK CFI 73d20 .cfa: x29 80 + x19: .cfa -8 + ^ x20: .cfa -16 + ^ x21: .cfa -24 + ^ x22: .cfa -32 + ^ x23: .cfa -40 + ^ x24: .cfa -48 + ^ x25: .cfa -64 + ^ .ra: .cfa -72 + ^ x29: .cfa -80 + ^
STACK CFI 73df4 .cfa: sp 80 +
STACK CFI 73e08 .cfa: sp 0 +
STACK CFI INIT 73e0c e0 .cfa: sp 0 +
STACK CFI 73e10 .cfa: sp 48 +
STACK CFI 73e1c .cfa: x29 48 + x19: .cfa -8 + ^ x20: .cfa -16 + ^ x21: .cfa -32 + ^ .ra: .cfa -40 + ^ x29: .cfa -48 + ^
STACK CFI 73eb8 .cfa: sp 48 +
STACK CFI 73ec4 .cfa: sp 0 +
STACK CFI 73ec8 .cfa: x29 48 +
STACK CFI INIT 73eec 390 .cfa: sp 0 +
STACK CFI INIT 7427c 98 .cfa: sp 0 +
STACK CFI 74284 .cfa: sp 32 +
STACK CFI 7428c .cfa: x29 32 + x19: .cfa -8 + ^ x20: .cfa -16 + ^ .ra: .cfa -24 + ^ x29: .cfa -32 + ^
STACK CFI 742e0 .cfa: sp 32 +
STACK CFI 742e8 .cfa: sp 0 +
STACK CFI 742f0 .cfa: x29 32 +
STACK CFI INIT 74314 6c .cfa: sp 0 +
STACK CFI 74318 .cfa: sp 48 +
STACK CFI 74324 .cfa: x29 48 + x19: .cfa -8 + ^ x20: .cfa -16 + ^ x21: .cfa -24 + ^ x22: .cfa -32 + ^ .ra: .cfa -40 + ^ x29: .cfa -48 + ^
STACK CFI 74360 .cfa: sp 48 +
STACK CFI 7436c .cfa: sp 0 +
STACK CFI 74370 .cfa: sp 48 +
STACK CFI 7437c .cfa: sp 0 +
STACK CFI INIT 744bc 4 .cfa: sp 0 +
STACK CFI INIT 74550 9c .cfa: sp 0 +
STACK CFI INIT 745ec 50 .cfa: sp 0 +
STACK CFI 745f0 .cfa: sp 32 +
STACK CFI 745f8 .cfa: x29 32 + x19: .cfa -16 + ^ .ra: .cfa -24 + ^ x29: .cfa -32 + ^
STACK CFI 74610 .cfa: sp 32 +
STACK CFI 74618 .cfa: sp 0 +
STACK CFI 7461c .cfa: x29 32 +
STACK CFI 74630 .cfa: sp 32 +
STACK CFI 74638 .cfa: sp 0 +
STACK CFI INIT 7463c 6c .cfa: sp 0 +
STACK CFI 74640 .cfa: sp 32 +
STACK CFI 74648 .cfa: x29 32 + x19: .cfa -16 + ^ .ra: .cfa -24 + ^ x29: .cfa -32 + ^
STACK CFI 7467c .cfa: sp 32 +
STACK CFI 74684 .cfa: sp 0 +
STACK CFI 74688 .cfa: x29 32 +
STACK CFI 7469c .cfa: sp 32 +
STACK CFI 746a4 .cfa: sp 0 +
STACK CFI INIT 746a8 274 .cfa: sp 0 +
STACK CFI 746ac .cfa: sp 96 +
STACK CFI 746c4 .cfa: x29 96 + x19: .cfa -8 + ^ x20: .cfa -16 + ^ x21: .cfa -24 + ^ x22: .cfa -32 + ^ x23: .cfa -40 + ^ x24: .cfa -48 + ^ x25: .cfa -56 + ^ x26: .cfa -64 + ^ x27: .cfa -72 + ^ x28: .cfa -80 + ^ .ra: .cfa -88 + ^ x29: .cfa -96 + ^
STACK CFI 74900 .cfa: sp 96 +
STACK CFI 74918 .cfa: sp 0 +
STACK CFI INIT 7491c 100 .cfa: sp 0 +
STACK CFI 74920 .cfa: sp 64 +
STACK CFI 74930 .cfa: x29 48 + x19: .cfa -8 + ^ x20: .cfa -16 + ^ x21: .cfa -32 + ^ .ra: .cfa -40 + ^ x29: .cfa -48 + ^
STACK CFI 74a04 .cfa: sp 64 +
STACK CFI 74a14 .cfa: sp 0 +
STACK CFI 74a18 .cfa: x29 48 +
STACK CFI INIT 74a1c 34 .cfa: sp 0 +
STACK CFI 74a20 .cfa: sp 16 +
STACK CFI 74a24 .cfa: x29 16 + .ra: .cfa -8 + ^ x29: .cfa -16 + ^
STACK CFI 74a48 .cfa: sp 16 +
STACK CFI 74a4c .cfa: sp 0 +
STACK CFI INIT 75c64 28 .cfa: sp 0 +
STACK CFI 75c68 .cfa: sp 32 +
STACK CFI 75c70 .cfa: x29 32 + x19: .cfa -16 + ^ .ra: .cfa -24 + ^ x29: .cfa -32 + ^
STACK CFI 75c80 .cfa: sp 32 +
STACK CFI 75c88 .cfa: sp 0 +
STACK CFI INIT 75d40 28 .cfa: sp 0 +
STACK CFI 75d44 .cfa: sp 32 +
STACK CFI 75d4c .cfa: x29 32 + x19: .cfa -16 + ^ .ra: .cfa -24 + ^ x29: .cfa -32 + ^
STACK CFI 75d5c .cfa: sp 32 +
STACK CFI 75d64 .cfa: sp 0 +
STACK CFI INIT 75f44 28 .cfa: sp 0 +
STACK CFI 75f48 .cfa: sp 32 +
STACK CFI 75f50 .cfa: x29 32 + x19: .cfa -16 + ^ .ra: .cfa -24 + ^ x29: .cfa -32 + ^
STACK CFI 75f60 .cfa: sp 32 +
STACK CFI 75f68 .cfa: sp 0 +
STACK CFI INIT 76020 28 .cfa: sp 0 +
STACK CFI 76024 .cfa: sp 32 +
STACK CFI 7602c .cfa: x29 32 + x19: .cfa -16 + ^ .ra: .cfa -24 + ^ x29: .cfa -32 + ^
STACK CFI 7603c .cfa: sp 32 +
STACK CFI 76044 .cfa: sp 0 +
STACK CFI INIT 76048 ac .cfa: sp 0 +
STACK CFI 7604c .cfa: sp 64 +
STACK CFI 7605c .cfa: x29 64 + x19: .cfa -8 + ^ x20: .cfa -16 + ^ x21: .cfa -24 + ^ x22: .cfa -32 + ^ x23: .cfa -48 + ^ .ra: .cfa -56 + ^ x29: .cfa -64 + ^
STACK CFI 760d8 .cfa: sp 64 +
STACK CFI 760e8 .cfa: sp 0 +
STACK CFI 760ec .cfa: x29 64 +
STACK CFI INIT 760f4 118 .cfa: sp 0 +
STACK CFI 760f8 .cfa: sp 80 +
STACK CFI 7610c .cfa: x29 80 + x19: .cfa -8 + ^ x20: .cfa -16 + ^ x21: .cfa -24 + ^ x22: .cfa -32 + ^ x23: .cfa -40 + ^ x24: .cfa -48 + ^ x25: .cfa -64 + ^ .ra: .cfa -72 + ^ x29: .cfa -80 + ^
STACK CFI 761ec .cfa: sp 80 +
STACK CFI 76200 .cfa: sp 0 +
STACK CFI 76204 .cfa: x29 80 +
STACK CFI INIT 76440 48 .cfa: sp 0 +
STACK CFI 76458 .cfa: sp 32 +
STACK CFI 76460 .cfa: x29 32 + x19: .cfa -16 + ^ .ra: .cfa -24 + ^ x29: .cfa -32 + ^
STACK CFI 7647c .cfa: sp 32 +
STACK CFI 76484 .cfa: sp 0 +
STACK CFI INIT 76488 50 .cfa: sp 0 +
STACK CFI 7648c .cfa: sp 32 +
STACK CFI 76494 .cfa: x29 32 + x19: .cfa -16 + ^ .ra: .cfa -24 + ^ x29: .cfa -32 + ^
STACK CFI 764cc .cfa: sp 32 +
STACK CFI 764d4 .cfa: sp 0 +
STACK CFI INIT 76648 28 .cfa: sp 0 +
STACK CFI 7664c .cfa: sp 32 +
STACK CFI 76654 .cfa: x29 32 + x19: .cfa -16 + ^ .ra: .cfa -24 + ^ x29: .cfa -32 + ^
STACK CFI 76664 .cfa: sp 32 +
STACK CFI 7666c .cfa: sp 0 +
STACK CFI INIT 76788 28 .cfa: sp 0 +
STACK CFI 7678c .cfa: sp 32 +
STACK CFI 76794 .cfa: x29 32 + x19: .cfa -16 + ^ .ra: .cfa -24 + ^ x29: .cfa -32 + ^
STACK CFI 767a4 .cfa: sp 32 +
STACK CFI 767ac .cfa: sp 0 +
STACK CFI INIT 7688c 28 .cfa: sp 0 +
STACK CFI 76890 .cfa: sp 32 +
STACK CFI 76898 .cfa: x29 32 + x19: .cfa -16 + ^ .ra: .cfa -24 + ^ x29: .cfa -32 + ^
STACK CFI 768a8 .cfa: sp 32 +
STACK CFI 768b0 .cfa: sp 0 +
STACK CFI INIT 76968 28 .cfa: sp 0 +
STACK CFI 7696c .cfa: sp 32 +
STACK CFI 76974 .cfa: x29 32 + x19: .cfa -16 + ^ .ra: .cfa -24 + ^ x29: .cfa -32 + ^
STACK CFI 76984 .cfa: sp 32 +
STACK CFI 7698c .cfa: sp 0 +
STACK CFI INIT 76990 13c .cfa: sp 0 +
STACK CFI 76994 .cfa: sp 80 +
STACK CFI 769a8 .cfa: x29 80 + x19: .cfa -8 + ^ x20: .cfa -16 + ^ x21: .cfa -24 + ^ x22: .cfa -32 + ^ x23: .cfa -40 + ^ x24: .cfa -48 + ^ x25: .cfa -64 + ^ .ra: .cfa -72 + ^ x29: .cfa -80 + ^
STACK CFI 76aac .cfa: sp 80 +
STACK CFI 76ac0 .cfa: sp 0 +
STACK CFI 76ac4 .cfa: x29 80 +
STACK CFI INIT 76acc 34 .cfa: sp 0 +
STACK CFI 76ad0 .cfa: sp 32 +
STACK CFI 76ad8 .cfa: x29 32 + x19: .cfa -8 + ^ x20: .cfa -16 + ^ .ra: .cfa -24 + ^ x29: .cfa -32 + ^
STACK CFI 76af4 .cfa: sp 32 +
STACK CFI 76afc .cfa: sp 0 +
STACK CFI INIT 76fa4 4 .cfa: sp 0 +
STACK CFI INIT 76fa8 14 .cfa: sp 0 +
STACK CFI 76fac .cfa: sp 16 +
STACK CFI 76fb0 .cfa: x29 16 + .ra: .cfa -8 + ^ x29: .cfa -16 + ^
STACK CFI INIT 771c0 14 .cfa: sp 0 +
STACK CFI 771c4 .cfa: sp 16 +
STACK CFI 771c8 .cfa: x29 16 + .ra: .cfa -8 + ^ x29: .cfa -16 + ^
STACK CFI INIT 771d4 14 .cfa: sp 0 +
STACK CFI 771d8 .cfa: sp 16 +
STACK CFI 771dc .cfa: x29 16 + .ra: .cfa -8 + ^ x29: .cfa -16 + ^
STACK CFI INIT 771e8 14 .cfa: sp 0 +
STACK CFI 771ec .cfa: sp 16 +
STACK CFI 771f0 .cfa: x29 16 + .ra: .cfa -8 + ^ x29: .cfa -16 + ^
STACK CFI INIT 771fc 4 .cfa: sp 0 +
STACK CFI INIT 77200 8 .cfa: sp 0 +
STACK CFI INIT 77208 38 .cfa: sp 0 +
STACK CFI 7720c .cfa: sp 32 +
STACK CFI 77214 .cfa: x29 32 + x19: .cfa -16 + ^ .ra: .cfa -24 + ^ x29: .cfa -32 + ^
STACK CFI 77234 .cfa: sp 32 +
STACK CFI 7723c .cfa: sp 0 +
STACK CFI INIT 77240 18 .cfa: sp 0 +
STACK CFI INIT 77258 4 .cfa: sp 0 +
STACK CFI INIT 7725c 8 .cfa: sp 0 +
STACK CFI INIT 77264 10 .cfa: sp 0 +
STACK CFI INIT 77274 1c .cfa: sp 0 +
STACK CFI INIT 77290 c .cfa: sp 0 +
STACK CFI INIT 77360 28 .cfa: sp 0 +
STACK CFI 77364 .cfa: sp 32 +
STACK CFI 7736c .cfa: x29 32 + x19: .cfa -16 + ^ .ra: .cfa -24 + ^ x29: .cfa -32 + ^
STACK CFI 7737c .cfa: sp 32 +
STACK CFI 77384 .cfa: sp 0 +
STACK CFI INIT 77388 14 .cfa: sp 0 +
STACK CFI 7738c .cfa: sp 16 +
STACK CFI 77390 .cfa: x29 16 + .ra: .cfa -8 + ^ x29: .cfa -16 + ^
STACK CFI INIT 77460 28 .cfa: sp 0 +
STACK CFI 77464 .cfa: sp 32 +
STACK CFI 7746c .cfa: x29 32 + x19: .cfa -16 + ^ .ra: .cfa -24 + ^ x29: .cfa -32 + ^
STACK CFI 7747c .cfa: sp 32 +
STACK CFI 77484 .cfa: sp 0 +
STACK CFI INIT 7754c 28 .cfa: sp 0 +
STACK CFI 77550 .cfa: sp 32 +
STACK CFI 77558 .cfa: x29 32 + x19: .cfa -16 + ^ .ra: .cfa -24 + ^ x29: .cfa -32 + ^
STACK CFI 77568 .cfa: sp 32 +
STACK CFI 77570 .cfa: sp 0 +
STACK CFI INIT 77574 104 .cfa: sp 0 +
STACK CFI 77578 .cfa: sp 80 +
STACK CFI 7758c .cfa: x29 80 + x19: .cfa -8 + ^ x20: .cfa -16 + ^ x21: .cfa -24 + ^ x22: .cfa -32 + ^ x23: .cfa -40 + ^ x24: .cfa -48 + ^ x25: .cfa -56 + ^ x26: .cfa -64 + ^ .ra: .cfa -72 + ^ x29: .cfa -80 + ^
STACK CFI 77660 .cfa: sp 80 +
STACK CFI 77674 .cfa: sp 0 +
STACK CFI INIT 77678 19c .cfa: sp 0 +
STACK CFI INIT 77958 9c .cfa: sp 0 +
STACK CFI 7795c .cfa: sp 32 +
STACK CFI 77964 .cfa: x29 32 + x19: .cfa -8 + ^ x20: .cfa -16 + ^ .ra: .cfa -24 + ^ x29: .cfa -32 + ^
STACK CFI 7799c .cfa: sp 32 +
STACK CFI 779a4 .cfa: sp 0 +
STACK CFI 779a8 .cfa: x29 32 +
STACK CFI 779d4 .cfa: sp 32 +
STACK CFI 779dc .cfa: sp 0 +
STACK CFI 779e0 .cfa: x29 32 +
STACK CFI 779e8 .cfa: sp 32 +
STACK CFI 779f0 .cfa: sp 0 +
STACK CFI INIT 77e8c a4 .cfa: sp 0 +
STACK CFI 77e90 .cfa: sp 32 +
STACK CFI 77e98 .cfa: x29 32 + x19: .cfa -8 + ^ x20: .cfa -16 + ^ .ra: .cfa -24 + ^ x29: .cfa -32 + ^
STACK CFI 77ed4 .cfa: sp 32 +
STACK CFI 77edc .cfa: sp 0 +
STACK CFI 77ee0 .cfa: x29 32 +
STACK CFI 77f10 .cfa: sp 32 +
STACK CFI 77f18 .cfa: sp 0 +
STACK CFI 77f1c .cfa: x29 32 +
STACK CFI 77f24 .cfa: sp 32 +
STACK CFI 77f2c .cfa: sp 0 +
STACK CFI INIT 78f34 4 .cfa: sp 0 +
STACK CFI INIT 78f38 8 .cfa: sp 0 +
STACK CFI INIT 78f40 8c .cfa: sp 0 +
STACK CFI 78f44 .cfa: sp 32 +
STACK CFI 78f4c .cfa: x29 32 + x19: .cfa -8 + ^ x20: .cfa -16 + ^ .ra: .cfa -24 + ^ x29: .cfa -32 + ^
STACK CFI 78fc0 .cfa: sp 32 +
STACK CFI 78fc8 .cfa: sp 0 +
STACK CFI INIT 79880 28 .cfa: sp 0 +
STACK CFI 79884 .cfa: sp 32 +
STACK CFI 7988c .cfa: x29 32 + x19: .cfa -16 + ^ .ra: .cfa -24 + ^ x29: .cfa -32 + ^
STACK CFI 7989c .cfa: sp 32 +
STACK CFI 798a4 .cfa: sp 0 +
STACK CFI INIT 79a48 8 .cfa: sp 0 +
STACK CFI INIT 79b14 28 .cfa: sp 0 +
STACK CFI 79b18 .cfa: sp 32 +
STACK CFI 79b20 .cfa: x29 32 + x19: .cfa -16 + ^ .ra: .cfa -24 + ^ x29: .cfa -32 + ^
STACK CFI 79b30 .cfa: sp 32 +
STACK CFI 79b38 .cfa: sp 0 +
STACK CFI INIT 79b3c 4 .cfa: sp 0 +
STACK CFI INIT 79c04 28 .cfa: sp 0 +
STACK CFI 79c08 .cfa: sp 32 +
STACK CFI 79c10 .cfa: x29 32 + x19: .cfa -16 + ^ .ra: .cfa -24 + ^ x29: .cfa -32 + ^
STACK CFI 79c20 .cfa: sp 32 +
STACK CFI 79c28 .cfa: sp 0 +
STACK CFI INIT 79c9c 30 .cfa: sp 0 +
STACK CFI 79ca0 .cfa: sp 32 +
STACK CFI 79ca8 .cfa: x29 32 + x19: .cfa -16 + ^ .ra: .cfa -24 + ^ x29: .cfa -32 + ^
STACK CFI 79cc0 .cfa: sp 32 +
STACK CFI 79cc8 .cfa: sp 0 +
STACK CFI INIT 79ccc 30 .cfa: sp 0 +
STACK CFI 79cd0 .cfa: sp 32 +
STACK CFI 79cd8 .cfa: x29 32 + x19: .cfa -16 + ^ .ra: .cfa -24 + ^ x29: .cfa -32 + ^
STACK CFI 79cf0 .cfa: sp 32 +
STACK CFI 79cf8 .cfa: sp 0 +
STACK CFI INIT 79cfc f8 .cfa: sp 0 +
STACK CFI INIT 79df4 134 .cfa: sp 0 +
STACK CFI INIT 79f28 84 .cfa: sp 0 +
STACK CFI INIT 79fac f4 .cfa: sp 0 +
STACK CFI INIT 7a0a0 1c .cfa: sp 0 +
STACK CFI INIT 7a0bc a8 .cfa: sp 0 +
STACK CFI INIT 7a164 7c .cfa: sp 0 +
STACK CFI INIT 7a1e0 14 .cfa: sp 0 +
STACK CFI INIT 7a1f4 14 .cfa: sp 0 +
STACK CFI INIT 7a208 40 .cfa: sp 0 +
STACK CFI INIT 7a248 28 .cfa: sp 0 +
STACK CFI INIT 7a270 190 .cfa: sp 0 +
STACK CFI INIT 7a400 2c8 .cfa: sp 0 +
STACK CFI INIT 7a6c8 8 .cfa: sp 0 +
STACK CFI INIT 7a6d0 8 .cfa: sp 0 +
STACK CFI INIT 7a6d8 44 .cfa: sp 0 +
STACK CFI INIT 7a71c e8 .cfa: sp 0 +
STACK CFI INIT 7a804 e8 .cfa: sp 0 +
STACK CFI INIT 7a8ec 14 .cfa: sp 0 +
STACK CFI INIT 7a900 10 .cfa: sp 0 +
STACK CFI INIT 7a910 10 .cfa: sp 0 +
STACK CFI INIT 7a920 f0 .cfa: sp 0 +
STACK CFI INIT 7aa10 44 .cfa: sp 0 +
STACK CFI INIT 7aa54 c .cfa: sp 0 +
STACK CFI INIT 7aa60 c .cfa: sp 0 +
STACK CFI INIT 7aa6c 2c .cfa: sp 0 +
STACK CFI INIT 7aa98 23c .cfa: sp 0 +
STACK CFI INIT 7acd4 c .cfa: sp 0 +
STACK CFI INIT 7ace0 120 .cfa: sp 0 +
STACK CFI INIT 7ae00 494 .cfa: sp 0 +
STACK CFI INIT 7b294 b78 .cfa: sp 0 +
STACK CFI INIT 7be0c 134 .cfa: sp 0 +
STACK CFI INIT 7bf40 210 .cfa: sp 0 +
STACK CFI INIT 7c150 38c .cfa: sp 0 +
STACK CFI INIT 7c4dc 1c8 .cfa: sp 0 +
STACK CFI INIT 7c6a4 9c4 .cfa: sp 0 +
STACK CFI INIT 7d068 2d4 .cfa: sp 0 +
STACK CFI INIT 7d33c 130 .cfa: sp 0 +
STACK CFI INIT 7d46c 120 .cfa: sp 0 +
STACK CFI INIT 7d58c 1c8 .cfa: sp 0 +
STACK CFI INIT 7d754 168 .cfa: sp 0 +
STACK CFI INIT 7d8bc fc .cfa: sp 0 +
STACK CFI INIT 7d9b8 30 .cfa: sp 0 +
STACK CFI INIT 7db14 58 .cfa: sp 0 +
STACK CFI 7db18 .cfa: sp 32 +
STACK CFI 7db20 .cfa: x29 32 + x19: .cfa -8 + ^ x20: .cfa -16 + ^ .ra: .cfa -24 + ^ x29: .cfa -32 + ^
STACK CFI 7db54 .cfa: sp 32 +
STACK CFI 7db5c .cfa: sp 0 +
STACK CFI 7db60 .cfa: sp 32 +
STACK CFI 7db68 .cfa: sp 0 +
STACK CFI INIT 7dd8c 6c .cfa: sp 0 +
STACK CFI 7dd90 .cfa: sp 32 +
STACK CFI 7dd98 .cfa: x29 32 + x19: .cfa -16 + ^ .ra: .cfa -24 + ^ x29: .cfa -32 + ^
STACK CFI 7ddcc .cfa: sp 32 +
STACK CFI 7ddd4 .cfa: sp 0 +
STACK CFI 7ddd8 .cfa: x29 32 +
STACK CFI 7ddec .cfa: sp 32 +
STACK CFI 7ddf4 .cfa: sp 0 +
STACK CFI INIT 7e01c 28 .cfa: sp 0 +
STACK CFI 7e020 .cfa: sp 32 +
STACK CFI 7e028 .cfa: x29 32 + x19: .cfa -16 + ^ .ra: .cfa -24 + ^ x29: .cfa -32 + ^
STACK CFI 7e038 .cfa: sp 32 +
STACK CFI 7e040 .cfa: sp 0 +
STACK CFI INIT 7e044 14 .cfa: sp 0 +
STACK CFI INIT 7e058 14 .cfa: sp 0 +
STACK CFI INIT 7e640 4 .cfa: sp 0 +
STACK CFI INIT 7e644 1c .cfa: sp 0 +
STACK CFI INIT 7e964 170 .cfa: sp 0 +
STACK CFI 7e968 .cfa: sp 32 +
STACK CFI 7e970 .cfa: x29 32 + x19: .cfa -8 + ^ x20: .cfa -16 + ^ .ra: .cfa -24 + ^ x29: .cfa -32 + ^
STACK CFI 7eac4 .cfa: sp 32 +
STACK CFI 7eacc .cfa: sp 0 +
STACK CFI 7ead0 .cfa: x29 32 +
STACK CFI INIT 7ead4 148 .cfa: sp 0 +
STACK CFI 7ead8 .cfa: sp 64 +
STACK CFI 7eae4 .cfa: x29 32 + x19: .cfa -16 + ^ .ra: .cfa -24 + ^ x29: .cfa -32 + ^
STACK CFI 7ebe4 .cfa: sp 64 +
STACK CFI 7ebf0 .cfa: sp 0 +
STACK CFI 7ebf4 .cfa: x29 32 +
STACK CFI INIT 7ec1c 134 .cfa: sp 0 +
STACK CFI INIT 7f090 88 .cfa: sp 0 +
STACK CFI 7f094 .cfa: sp 32 +
STACK CFI 7f09c .cfa: x29 32 + x19: .cfa -16 + ^ .ra: .cfa -24 + ^ x29: .cfa -32 + ^
STACK CFI 7f0d8 .cfa: sp 32 +
STACK CFI 7f0e0 .cfa: sp 0 +
STACK CFI 7f0e4 .cfa: x29 32 +
STACK CFI INIT 7f168 2c .cfa: sp 0 +
STACK CFI 7f16c .cfa: sp 32 +
STACK CFI 7f174 .cfa: x29 32 + x19: .cfa -16 + ^ .ra: .cfa -24 + ^ x29: .cfa -32 + ^
STACK CFI 7f188 .cfa: sp 32 +
STACK CFI 7f190 .cfa: sp 0 +
STACK CFI INIT 7f34c 9c .cfa: sp 0 +
STACK CFI INIT 7f3e8 7c .cfa: sp 0 +
STACK CFI 7f3ec .cfa: sp 32 +
STACK CFI 7f3f4 .cfa: x29 32 + x19: .cfa -16 + ^ .ra: .cfa -24 + ^ x29: .cfa -32 + ^
STACK CFI 7f410 .cfa: sp 32 +
STACK CFI 7f418 .cfa: sp 0 +
STACK CFI 7f41c .cfa: x29 32 +
STACK CFI 7f458 .cfa: sp 32 +
STACK CFI 7f460 .cfa: sp 0 +
STACK CFI INIT 7f598 204 .cfa: sp 0 +
STACK CFI 7f59c .cfa: sp 144 +
STACK CFI 7f5a8 .cfa: x29 32 + x19: .cfa -16 + ^ .ra: .cfa -24 + ^ x29: .cfa -32 + ^
STACK CFI 7f600 .cfa: sp 144 +
STACK CFI 7f60c .cfa: sp 0 +
STACK CFI 7f610 .cfa: x29 32 +
STACK CFI INIT 7f79c 958 .cfa: sp 0 +
STACK CFI 7f7a0 .cfa: sp 240 +
STACK CFI 7f7bc .cfa: x29 96 + x19: .cfa -8 + ^ x20: .cfa -16 + ^ x21: .cfa -24 + ^ x22: .cfa -32 + ^ x23: .cfa -40 + ^ x24: .cfa -48 + ^ x25: .cfa -56 + ^ x26: .cfa -64 + ^ x27: .cfa -72 + ^ x28: .cfa -80 + ^ .ra: .cfa -88 + ^ x29: .cfa -96 + ^
STACK CFI 8000c .cfa: sp 240 +
STACK CFI 80028 .cfa: sp 0 +
STACK CFI 8002c .cfa: x29 96 +
STACK CFI INIT 800f4 218 .cfa: sp 0 +
STACK CFI INIT 8030c 2b4 .cfa: sp 0 +
STACK CFI INIT 805c0 530 .cfa: sp 0 +
STACK CFI INIT 80c10 a4 .cfa: sp 0 +
STACK CFI 80c14 .cfa: sp 48 +
STACK CFI 80c20 .cfa: x29 48 + x19: .cfa -8 + ^ x20: .cfa -16 + ^ x21: .cfa -24 + ^ x22: .cfa -32 + ^ .ra: .cfa -40 + ^ x29: .cfa -48 + ^
STACK CFI 80c6c .cfa: sp 48 +
STACK CFI 80c78 .cfa: sp 0 +
STACK CFI 80c7c .cfa: sp 48 +
STACK CFI 80c88 .cfa: sp 0 +
STACK CFI 80c8c .cfa: x29 48 +
STACK CFI INIT 80cb4 94 .cfa: sp 0 +
STACK CFI 80cb8 .cfa: sp 32 +
STACK CFI 80cc0 .cfa: x29 32 + x19: .cfa -16 + ^ .ra: .cfa -24 + ^ x29: .cfa -32 + ^
STACK CFI 80d08 .cfa: sp 32 +
STACK CFI 80d10 .cfa: sp 0 +
STACK CFI 80d14 .cfa: x29 32 +
STACK CFI INIT 80d48 28 .cfa: sp 0 +
STACK CFI 80d4c .cfa: sp 32 +
STACK CFI 80d54 .cfa: x29 32 + x19: .cfa -16 + ^ .ra: .cfa -24 + ^ x29: .cfa -32 + ^
STACK CFI 80d64 .cfa: sp 32 +
STACK CFI 80d6c .cfa: sp 0 +
STACK CFI INIT 80d70 150 .cfa: sp 0 +
STACK CFI 80d74 .cfa: sp 48 +
STACK CFI 80d80 .cfa: x29 48 + x19: .cfa -8 + ^ x20: .cfa -16 + ^ x21: .cfa -24 + ^ x22: .cfa -32 + ^ .ra: .cfa -40 + ^ x29: .cfa -48 + ^
STACK CFI 80eb0 .cfa: sp 48 +
STACK CFI 80ebc .cfa: sp 0 +
STACK CFI INIT 80ec0 74 .cfa: sp 0 +
STACK CFI 80ec4 .cfa: sp 32 +
STACK CFI 80ecc .cfa: x29 32 + x19: .cfa -8 + ^ x20: .cfa -16 + ^ .ra: .cfa -24 + ^ x29: .cfa -32 + ^
STACK CFI 80f28 .cfa: sp 32 +
STACK CFI 80f30 .cfa: sp 0 +
STACK CFI INIT 80f34 e8 .cfa: sp 0 +
STACK CFI 80f38 .cfa: sp 112 +
STACK CFI 80f48 .cfa: x29 48 + x19: .cfa -8 + ^ x20: .cfa -16 + ^ x21: .cfa -32 + ^ .ra: .cfa -40 + ^ x29: .cfa -48 + ^
STACK CFI 81004 .cfa: sp 112 +
STACK CFI 81014 .cfa: sp 0 +
STACK CFI 81018 .cfa: x29 48 +
STACK CFI INIT 8101c e4 .cfa: sp 0 +
STACK CFI 81020 .cfa: sp 112 +
STACK CFI 81030 .cfa: x29 48 + x19: .cfa -8 + ^ x20: .cfa -16 + ^ x21: .cfa -32 + ^ .ra: .cfa -40 + ^ x29: .cfa -48 + ^
STACK CFI 810e8 .cfa: sp 112 +
STACK CFI 810f8 .cfa: sp 0 +
STACK CFI 810fc .cfa: x29 48 +
STACK CFI INIT 81100 48 .cfa: sp 0 +
STACK CFI 81104 .cfa: sp 32 +
STACK CFI 8110c .cfa: x29 32 + x19: .cfa -8 + ^ x20: .cfa -16 + ^ .ra: .cfa -24 + ^ x29: .cfa -32 + ^
STACK CFI 81130 .cfa: sp 32 +
STACK CFI 81138 .cfa: sp 0 +
STACK CFI 8113c .cfa: x29 32 +
STACK CFI INIT 81148 98 .cfa: sp 0 +
STACK CFI 8114c .cfa: sp 80 +
STACK CFI 81158 .cfa: x29 32 + x19: .cfa -16 + ^ .ra: .cfa -24 + ^ x29: .cfa -32 + ^
STACK CFI 811cc .cfa: sp 80 +
STACK CFI 811d8 .cfa: sp 0 +
STACK CFI 811dc .cfa: x29 32 +
STACK CFI INIT 811e0 194 .cfa: sp 0 +
STACK CFI 811e4 .cfa: sp 64 +
STACK CFI 811f4 .cfa: x29 64 + x19: .cfa -8 + ^ x20: .cfa -16 + ^ x21: .cfa -24 + ^ x22: .cfa -32 + ^ x23: .cfa -48 + ^ .ra: .cfa -56 + ^ x29: .cfa -64 + ^
STACK CFI 8131c .cfa: sp 64 +
STACK CFI 8132c .cfa: sp 0 +
STACK CFI 81330 .cfa: x29 64 +
STACK CFI 81360 .cfa: sp 64 +
STACK CFI 81370 .cfa: sp 0 +
STACK CFI INIT 81374 1cc .cfa: sp 0 +
STACK CFI 81378 .cfa: sp 96 +
STACK CFI 8138c .cfa: x29 64 + x19: .cfa -8 + ^ x20: .cfa -16 + ^ x21: .cfa -24 + ^ x22: .cfa -32 + ^ x23: .cfa -48 + ^ .ra: .cfa -56 + ^ x29: .cfa -64 + ^
STACK CFI 81508 .cfa: sp 96 +
STACK CFI 8151c .cfa: sp 0 +
STACK CFI 81520 .cfa: x29 64 +
STACK CFI INIT 81540 150 .cfa: sp 0 +
STACK CFI 81544 .cfa: sp 48 +
STACK CFI 81550 .cfa: x29 48 + x19: .cfa -8 + ^ x20: .cfa -16 + ^ x21: .cfa -24 + ^ x22: .cfa -32 + ^ .ra: .cfa -40 + ^ x29: .cfa -48 + ^
STACK CFI 81680 .cfa: sp 48 +
STACK CFI 8168c .cfa: sp 0 +
STACK CFI INIT 81690 118 .cfa: sp 0 +
STACK CFI 81694 .cfa: sp 48 +
STACK CFI 816a0 .cfa: x29 48 + x19: .cfa -8 + ^ x20: .cfa -16 + ^ x21: .cfa -24 + ^ x22: .cfa -32 + ^ .ra: .cfa -40 + ^ x29: .cfa -48 + ^
STACK CFI 81770 .cfa: sp 48 +
STACK CFI 8177c .cfa: sp 0 +
STACK CFI 81780 .cfa: x29 48 +
STACK CFI 81798 .cfa: sp 48 +
STACK CFI 817a4 .cfa: sp 0 +
STACK CFI INIT 817a8 190 .cfa: sp 0 +
STACK CFI 817ac .cfa: sp 64 +
STACK CFI 817bc .cfa: x29 64 + x19: .cfa -8 + ^ x20: .cfa -16 + ^ x21: .cfa -24 + ^ x22: .cfa -32 + ^ x23: .cfa -48 + ^ .ra: .cfa -56 + ^ x29: .cfa -64 + ^
STACK CFI 818fc .cfa: sp 64 +
STACK CFI 8190c .cfa: sp 0 +
STACK CFI 81910 .cfa: x29 64 +
STACK CFI 81924 .cfa: sp 64 +
STACK CFI 81934 .cfa: sp 0 +
STACK CFI INIT 81938 1e4 .cfa: sp 0 +
STACK CFI 8193c .cfa: sp 96 +
STACK CFI 81950 .cfa: x29 64 + x19: .cfa -8 + ^ x20: .cfa -16 + ^ x21: .cfa -24 + ^ x22: .cfa -32 + ^ x23: .cfa -48 + ^ .ra: .cfa -56 + ^ x29: .cfa -64 + ^
STACK CFI 81ae4 .cfa: sp 96 +
STACK CFI 81af8 .cfa: sp 0 +
STACK CFI 81afc .cfa: x29 64 +
STACK CFI INIT 81b1c 130 .cfa: sp 0 +
STACK CFI 81b20 .cfa: sp 48 +
STACK CFI 81b2c .cfa: x29 48 + x19: .cfa -8 + ^ x20: .cfa -16 + ^ x21: .cfa -32 + ^ .ra: .cfa -40 + ^ x29: .cfa -48 + ^
STACK CFI 81c14 .cfa: sp 48 +
STACK CFI 81c20 .cfa: sp 0 +
STACK CFI 81c24 .cfa: x29 48 +
STACK CFI 81c3c .cfa: sp 48 +
STACK CFI 81c48 .cfa: sp 0 +
STACK CFI INIT 81c4c 254 .cfa: sp 0 +
STACK CFI 81c50 .cfa: sp 96 +
STACK CFI 81c68 .cfa: x29 96 + x19: .cfa -8 + ^ x20: .cfa -16 + ^ x21: .cfa -24 + ^ x22: .cfa -32 + ^ x23: .cfa -40 + ^ x24: .cfa -48 + ^ x25: .cfa -56 + ^ x26: .cfa -64 + ^ x27: .cfa -72 + ^ x28: .cfa -80 + ^ .ra: .cfa -88 + ^ x29: .cfa -96 + ^
STACK CFI 81e48 .cfa: sp 96 +
STACK CFI 81e60 .cfa: sp 0 +
STACK CFI 81e64 .cfa: x29 96 +
STACK CFI 81e84 .cfa: sp 96 +
STACK CFI 81e9c .cfa: sp 0 +
STACK CFI INIT 81ea0 214 .cfa: sp 0 +
STACK CFI 81ea4 .cfa: sp 144 +
STACK CFI 81ec0 .cfa: x29 96 + x19: .cfa -8 + ^ x20: .cfa -16 + ^ x21: .cfa -24 + ^ x22: .cfa -32 + ^ x23: .cfa -40 + ^ x24: .cfa -48 + ^ x25: .cfa -56 + ^ x26: .cfa -64 + ^ x27: .cfa -72 + ^ x28: .cfa -80 + ^ .ra: .cfa -88 + ^ x29: .cfa -96 + ^
STACK CFI 82054 .cfa: sp 144 +
STACK CFI 82070 .cfa: sp 0 +
STACK CFI 82074 .cfa: x29 96 +
STACK CFI INIT 820b4 1e4 .cfa: sp 0 +
STACK CFI 820b8 .cfa: sp 96 +
STACK CFI 820d0 .cfa: x29 96 + x19: .cfa -8 + ^ x20: .cfa -16 + ^ x21: .cfa -24 + ^ x22: .cfa -32 + ^ x23: .cfa -40 + ^ x24: .cfa -48 + ^ x25: .cfa -56 + ^ x26: .cfa -64 + ^ x27: .cfa -80 + ^ .ra: .cfa -88 + ^ x29: .cfa -96 + ^
STACK CFI 8222c .cfa: sp 96 +
STACK CFI 82244 .cfa: sp 0 +
STACK CFI 82248 .cfa: x29 96 +
STACK CFI 8227c .cfa: sp 96 +
STACK CFI 82294 .cfa: sp 0 +
STACK CFI INIT 82298 f4 .cfa: sp 0 +
STACK CFI 8229c .cfa: sp 96 +
STACK CFI 822ac .cfa: x29 48 + x19: .cfa -8 + ^ x20: .cfa -16 + ^ x21: .cfa -24 + ^ x22: .cfa -32 + ^ .ra: .cfa -40 + ^ x29: .cfa -48 + ^
STACK CFI 82374 .cfa: sp 96 +
STACK CFI 82384 .cfa: sp 0 +
STACK CFI 82388 .cfa: x29 48 +
STACK CFI INIT 8238c 48c .cfa: sp 0 +
STACK CFI 82390 .cfa: sp 144 +
STACK CFI 823a8 .cfa: x29 80 + x19: .cfa -8 + ^ x20: .cfa -16 + ^ x21: .cfa -24 + ^ x22: .cfa -32 + ^ x23: .cfa -40 + ^ x24: .cfa -48 + ^ x25: .cfa -64 + ^ .ra: .cfa -72 + ^ x29: .cfa -80 + ^
STACK CFI 827f8 .cfa: sp 144 +
STACK CFI 82810 .cfa: sp 0 +
STACK CFI 82814 .cfa: x29 80 +
STACK CFI INIT 82818 104 .cfa: sp 0 +
STACK CFI 8281c .cfa: sp 64 +
STACK CFI 8282c .cfa: x29 64 + x19: .cfa -8 + ^ x20: .cfa -16 + ^ x21: .cfa -24 + ^ x22: .cfa -32 + ^ x23: .cfa -48 + ^ .ra: .cfa -56 + ^ x29: .cfa -64 + ^
STACK CFI 828b8 .cfa: sp 64 +
STACK CFI 828c8 .cfa: sp 0 +
STACK CFI 828cc .cfa: x29 64 +
STACK CFI 82908 .cfa: sp 64 +
STACK CFI 82918 .cfa: sp 0 +
STACK CFI INIT 8291c 1d8 .cfa: sp 0 +
STACK CFI 82920 .cfa: sp 80 +
STACK CFI 82934 .cfa: x29 80 + x19: .cfa -8 + ^ x20: .cfa -16 + ^ x21: .cfa -24 + ^ x22: .cfa -32 + ^ x23: .cfa -40 + ^ x24: .cfa -48 + ^ x25: .cfa -56 + ^ x26: .cfa -64 + ^ .ra: .cfa -72 + ^ x29: .cfa -80 + ^
STACK CFI 82adc .cfa: sp 80 +
STACK CFI 82af0 .cfa: sp 0 +
STACK CFI INIT 82af4 168 .cfa: sp 0 +
STACK CFI 82af8 .cfa: sp 96 +
STACK CFI 82b08 .cfa: x29 48 + x19: .cfa -8 + ^ x20: .cfa -16 + ^ x21: .cfa -24 + ^ x22: .cfa -32 + ^ .ra: .cfa -40 + ^ x29: .cfa -48 + ^
STACK CFI 82c18 .cfa: sp 96 +
STACK CFI 82c28 .cfa: sp 0 +
STACK CFI 82c2c .cfa: x29 48 +
STACK CFI INIT 82c5c 1e4 .cfa: sp 0 +
STACK CFI 82c60 .cfa: sp 32 +
STACK CFI 82c68 .cfa: x29 32 + x19: .cfa -8 + ^ x20: .cfa -16 + ^ .ra: .cfa -24 + ^ x29: .cfa -32 + ^
STACK CFI 82d58 .cfa: sp 32 +
STACK CFI 82d60 .cfa: sp 0 +
STACK CFI 82d64 .cfa: x29 32 +
STACK CFI 82dd8 .cfa: sp 32 +
STACK CFI 82de0 .cfa: sp 0 +
STACK CFI 82de4 .cfa: x29 32 +
STACK CFI 82df4 .cfa: sp 32 +
STACK CFI 82dfc .cfa: sp 0 +
STACK CFI 82e00 .cfa: x29 32 +
STACK CFI 82e10 .cfa: sp 32 +
STACK CFI 82e18 .cfa: sp 0 +
STACK CFI 82e1c .cfa: x29 32 +
STACK CFI INIT 82e40 178 .cfa: sp 0 +
STACK CFI 82e44 .cfa: sp 80 +
STACK CFI 82e58 .cfa: x29 64 + x19: .cfa -8 + ^ x20: .cfa -16 + ^ x21: .cfa -24 + ^ x22: .cfa -32 + ^ x23: .cfa -40 + ^ x24: .cfa -48 + ^ .ra: .cfa -56 + ^ x29: .cfa -64 + ^
STACK CFI 82f9c .cfa: sp 80 +
STACK CFI 82fb0 .cfa: sp 0 +
STACK CFI 82fb4 .cfa: x29 64 +
STACK CFI INIT 82fb8 178 .cfa: sp 0 +
STACK CFI 82fbc .cfa: sp 80 +
STACK CFI 82fd0 .cfa: x29 64 + x19: .cfa -8 + ^ x20: .cfa -16 + ^ x21: .cfa -24 + ^ x22: .cfa -32 + ^ x23: .cfa -40 + ^ x24: .cfa -48 + ^ .ra: .cfa -56 + ^ x29: .cfa -64 + ^
STACK CFI 83114 .cfa: sp 80 +
STACK CFI 83128 .cfa: sp 0 +
STACK CFI 8312c .cfa: x29 64 +
STACK CFI INIT 83130 178 .cfa: sp 0 +
STACK CFI 83134 .cfa: sp 80 +
STACK CFI 83148 .cfa: x29 64 + x19: .cfa -8 + ^ x20: .cfa -16 + ^ x21: .cfa -24 + ^ x22: .cfa -32 + ^ x23: .cfa -40 + ^ x24: .cfa -48 + ^ .ra: .cfa -56 + ^ x29: .cfa -64 + ^
STACK CFI 8328c .cfa: sp 80 +
STACK CFI 832a0 .cfa: sp 0 +
STACK CFI 832a4 .cfa: x29 64 +
STACK CFI INIT 832a8 28c .cfa: sp 0 +
STACK CFI 832ac .cfa: sp 80 +
STACK CFI 832c0 .cfa: x29 80 + x19: .cfa -8 + ^ x20: .cfa -16 + ^ x21: .cfa -24 + ^ x22: .cfa -32 + ^ x23: .cfa -40 + ^ x24: .cfa -48 + ^ x25: .cfa -64 + ^ .ra: .cfa -72 + ^ x29: .cfa -80 + ^
STACK CFI 834f8 .cfa: sp 80 +
STACK CFI 8350c .cfa: sp 0 +
STACK CFI 83510 .cfa: x29 80 +
STACK CFI 8351c .cfa: sp 80 +
STACK CFI 83530 .cfa: sp 0 +
STACK CFI INIT 83534 1f4 .cfa: sp 0 +
STACK CFI 83538 .cfa: sp 80 +
STACK CFI 8354c .cfa: x29 80 + x19: .cfa -8 + ^ x20: .cfa -16 + ^ x21: .cfa -24 + ^ x22: .cfa -32 + ^ x23: .cfa -40 + ^ x24: .cfa -48 + ^ x25: .cfa -64 + ^ .ra: .cfa -72 + ^ x29: .cfa -80 + ^
STACK CFI 836ec .cfa: sp 80 +
STACK CFI 83700 .cfa: sp 0 +
STACK CFI 83704 .cfa: x29 80 +
STACK CFI 83710 .cfa: sp 80 +
STACK CFI 83724 .cfa: sp 0 +
STACK CFI INIT 83728 254 .cfa: sp 0 +
STACK CFI 8372c .cfa: sp 96 +
STACK CFI 83744 .cfa: x29 96 + x19: .cfa -8 + ^ x20: .cfa -16 + ^ x21: .cfa -24 + ^ x22: .cfa -32 + ^ x23: .cfa -40 + ^ x24: .cfa -48 + ^ x25: .cfa -56 + ^ x26: .cfa -64 + ^ x27: .cfa -72 + ^ x28: .cfa -80 + ^ .ra: .cfa -88 + ^ x29: .cfa -96 + ^
STACK CFI 8393c .cfa: sp 96 +
STACK CFI 83954 .cfa: sp 0 +
STACK CFI 83958 .cfa: x29 96 +
STACK CFI 83960 .cfa: sp 96 +
STACK CFI 83978 .cfa: sp 0 +
STACK CFI INIT 84000 154 .cfa: sp 0 +
STACK CFI 84004 .cfa: sp 96 +
STACK CFI 84018 .cfa: x29 64 + x19: .cfa -8 + ^ x20: .cfa -16 + ^ x21: .cfa -24 + ^ x22: .cfa -32 + ^ x23: .cfa -48 + ^ .ra: .cfa -56 + ^ x29: .cfa -64 + ^
STACK CFI 840f8 .cfa: sp 96 +
STACK CFI 8410c .cfa: sp 0 +
STACK CFI 84110 .cfa: x29 64 +
STACK CFI INIT 8431c 54 .cfa: sp 0 +
STACK CFI 84320 .cfa: sp 32 +
STACK CFI 84328 .cfa: x29 32 + x19: .cfa -16 + ^ .ra: .cfa -24 + ^ x29: .cfa -32 + ^
STACK CFI 8434c .cfa: sp 32 +
STACK CFI 84354 .cfa: sp 0 +
STACK CFI 84358 .cfa: x29 32 +
STACK CFI 84364 .cfa: sp 32 +
STACK CFI 8436c .cfa: sp 0 +
STACK CFI INIT 84370 1a4 .cfa: sp 0 +
STACK CFI 84374 .cfa: sp 64 +
STACK CFI 84384 .cfa: x29 64 + x19: .cfa -8 + ^ x20: .cfa -16 + ^ x21: .cfa -24 + ^ x22: .cfa -32 + ^ x23: .cfa -40 + ^ x24: .cfa -48 + ^ .ra: .cfa -56 + ^ x29: .cfa -64 + ^
STACK CFI 84500 .cfa: sp 64 +
STACK CFI 84510 .cfa: sp 0 +
STACK CFI INIT 84514 1a0 .cfa: sp 0 +
STACK CFI INIT 846b4 134 .cfa: sp 0 +
STACK CFI 846b8 .cfa: sp 48 +
STACK CFI 846c4 .cfa: x29 48 + x19: .cfa -8 + ^ x20: .cfa -16 + ^ x21: .cfa -24 + ^ x22: .cfa -32 + ^ .ra: .cfa -40 + ^ x29: .cfa -48 + ^
STACK CFI 847d8 .cfa: sp 48 +
STACK CFI 847e4 .cfa: sp 0 +
STACK CFI INIT 84d2c c0 .cfa: sp 0 +
STACK CFI 84d30 .cfa: sp 48 +
STACK CFI 84d3c .cfa: x29 48 + x19: .cfa -8 + ^ x20: .cfa -16 + ^ x21: .cfa -24 + ^ x22: .cfa -32 + ^ .ra: .cfa -40 + ^ x29: .cfa -48 + ^
STACK CFI 84da4 .cfa: sp 48 +
STACK CFI 84db0 .cfa: sp 0 +
STACK CFI 84db4 .cfa: sp 48 +
STACK CFI 84dc0 .cfa: sp 0 +
STACK CFI 84dc4 .cfa: x29 48 +
STACK CFI INIT 84dec 190 .cfa: sp 0 +
STACK CFI 84df0 .cfa: sp 80 +
STACK CFI 84e04 .cfa: x29 80 + x19: .cfa -8 + ^ x20: .cfa -16 + ^ x21: .cfa -24 + ^ x22: .cfa -32 + ^ x23: .cfa -40 + ^ x24: .cfa -48 + ^ x25: .cfa -64 + ^ .ra: .cfa -72 + ^ x29: .cfa -80 + ^
STACK CFI 84f40 .cfa: sp 80 +
STACK CFI 84f54 .cfa: sp 0 +
STACK CFI 84f58 .cfa: x29 80 +
STACK CFI 84f64 .cfa: sp 80 +
STACK CFI 84f78 .cfa: sp 0 +
STACK CFI INIT 850c4 178 .cfa: sp 0 +
STACK CFI 850c8 .cfa: sp 64 +
STACK CFI 850d8 .cfa: x29 64 + x19: .cfa -8 + ^ x20: .cfa -16 + ^ x21: .cfa -24 + ^ x22: .cfa -32 + ^ x23: .cfa -48 + ^ .ra: .cfa -56 + ^ x29: .cfa -64 + ^
STACK CFI 85204 .cfa: sp 64 +
STACK CFI 85214 .cfa: sp 0 +
STACK CFI 85218 .cfa: x29 64 +
STACK CFI 85228 .cfa: sp 64 +
STACK CFI 85238 .cfa: sp 0 +
STACK CFI INIT 858dc 158 .cfa: sp 0 +
STACK CFI 858e0 .cfa: sp 96 +
STACK CFI 858f4 .cfa: x29 64 + x19: .cfa -8 + ^ x20: .cfa -16 + ^ x21: .cfa -24 + ^ x22: .cfa -32 + ^ x23: .cfa -48 + ^ .ra: .cfa -56 + ^ x29: .cfa -64 + ^
STACK CFI 859d8 .cfa: sp 96 +
STACK CFI 859ec .cfa: sp 0 +
STACK CFI 859f0 .cfa: x29 64 +
STACK CFI INIT 85a34 1b4 .cfa: sp 0 +
STACK CFI INIT 85be8 134 .cfa: sp 0 +
STACK CFI 85bec .cfa: sp 48 +
STACK CFI 85bf8 .cfa: x29 48 + x19: .cfa -8 + ^ x20: .cfa -16 + ^ x21: .cfa -24 + ^ x22: .cfa -32 + ^ .ra: .cfa -40 + ^ x29: .cfa -48 + ^
STACK CFI 85d0c .cfa: sp 48 +
STACK CFI 85d18 .cfa: sp 0 +
STACK CFI INIT 85ec4 190 .cfa: sp 0 +
STACK CFI 85ec8 .cfa: sp 80 +
STACK CFI 85edc .cfa: x29 80 + x19: .cfa -8 + ^ x20: .cfa -16 + ^ x21: .cfa -24 + ^ x22: .cfa -32 + ^ x23: .cfa -40 + ^ x24: .cfa -48 + ^ x25: .cfa -64 + ^ .ra: .cfa -72 + ^ x29: .cfa -80 + ^
STACK CFI 86018 .cfa: sp 80 +
STACK CFI 8602c .cfa: sp 0 +
STACK CFI 86030 .cfa: x29 80 +
STACK CFI 8603c .cfa: sp 80 +
STACK CFI 86050 .cfa: sp 0 +
STACK CFI INIT 8619c 178 .cfa: sp 0 +
STACK CFI 861a0 .cfa: sp 64 +
STACK CFI 861b0 .cfa: x29 64 + x19: .cfa -8 + ^ x20: .cfa -16 + ^ x21: .cfa -24 + ^ x22: .cfa -32 + ^ x23: .cfa -48 + ^ .ra: .cfa -56 + ^ x29: .cfa -64 + ^
STACK CFI 862dc .cfa: sp 64 +
STACK CFI 862ec .cfa: sp 0 +
STACK CFI 862f0 .cfa: x29 64 +
STACK CFI 86300 .cfa: sp 64 +
STACK CFI 86310 .cfa: sp 0 +
STACK CFI INIT 86640 4d8 .cfa: sp 0 +
STACK CFI 86644 .cfa: sp 160 +
STACK CFI 86660 .cfa: x29 96 + x19: .cfa -8 + ^ x20: .cfa -16 + ^ x21: .cfa -24 + ^ x22: .cfa -32 + ^ x23: .cfa -40 + ^ x24: .cfa -48 + ^ x25: .cfa -56 + ^ x26: .cfa -64 + ^ x27: .cfa -72 + ^ x28: .cfa -80 + ^ .ra: .cfa -88 + ^ x29: .cfa -96 + ^
STACK CFI 86af4 .cfa: sp 160 +
STACK CFI 86b10 .cfa: sp 0 +
STACK CFI 86b14 .cfa: x29 96 +
STACK CFI INIT 86b18 2a8 .cfa: sp 0 +
STACK CFI 86b1c .cfa: sp 160 +
STACK CFI 86b30 .cfa: x29 64 + x19: .cfa -8 + ^ x20: .cfa -16 + ^ x21: .cfa -24 + ^ x22: .cfa -32 + ^ x23: .cfa -40 + ^ x24: .cfa -48 + ^ .ra: .cfa -56 + ^ x29: .cfa -64 + ^
STACK CFI 86d80 .cfa: sp 160 +
STACK CFI 86d94 .cfa: sp 0 +
STACK CFI 86d98 .cfa: x29 64 +
STACK CFI INIT 86dc0 1f4 .cfa: sp 0 +
STACK CFI 86dc4 .cfa: sp 80 +
STACK CFI 86dd8 .cfa: x29 80 + x19: .cfa -8 + ^ x20: .cfa -16 + ^ x21: .cfa -24 + ^ x22: .cfa -32 + ^ x23: .cfa -40 + ^ x24: .cfa -48 + ^ x25: .cfa -64 + ^ .ra: .cfa -72 + ^ x29: .cfa -80 + ^
STACK CFI 86f78 .cfa: sp 80 +
STACK CFI 86f8c .cfa: sp 0 +
STACK CFI 86f90 .cfa: x29 80 +
STACK CFI 86f9c .cfa: sp 80 +
STACK CFI 86fb0 .cfa: sp 0 +
STACK CFI INIT 88744 254 .cfa: sp 0 +
STACK CFI 88748 .cfa: sp 48 +
STACK CFI 88754 .cfa: x29 48 + x19: .cfa -8 + ^ x20: .cfa -16 + ^ x21: .cfa -24 + ^ x22: .cfa -32 + ^ .ra: .cfa -40 + ^ x29: .cfa -48 + ^
STACK CFI 88988 .cfa: sp 48 +
STACK CFI 88994 .cfa: sp 0 +
STACK CFI INIT 88998 120 .cfa: sp 0 +
STACK CFI INIT 88ab8 300 .cfa: sp 0 +
STACK CFI 88abc .cfa: sp 64 +
STACK CFI 88acc .cfa: x29 64 + x19: .cfa -8 + ^ x20: .cfa -16 + ^ x21: .cfa -24 + ^ x22: .cfa -32 + ^ x23: .cfa -40 + ^ x24: .cfa -48 + ^ .ra: .cfa -56 + ^ x29: .cfa -64 + ^
STACK CFI 88d34 .cfa: sp 64 +
STACK CFI 88d44 .cfa: sp 0 +
STACK CFI 88d48 .cfa: x29 64 +
STACK CFI INIT 88db8 c0 .cfa: sp 0 +
STACK CFI 88dbc .cfa: sp 48 +
STACK CFI 88dc8 .cfa: x29 48 + x19: .cfa -8 + ^ x20: .cfa -16 + ^ x21: .cfa -24 + ^ x22: .cfa -32 + ^ .ra: .cfa -40 + ^ x29: .cfa -48 + ^
STACK CFI 88e30 .cfa: sp 48 +
STACK CFI 88e3c .cfa: sp 0 +
STACK CFI 88e40 .cfa: sp 48 +
STACK CFI 88e4c .cfa: sp 0 +
STACK CFI 88e50 .cfa: x29 48 +
STACK CFI INIT 899b8 168 .cfa: sp 0 +
STACK CFI 899bc .cfa: sp 64 +
STACK CFI 899cc .cfa: x29 64 + x19: .cfa -8 + ^ x20: .cfa -16 + ^ x21: .cfa -24 + ^ x22: .cfa -32 + ^ x23: .cfa -48 + ^ .ra: .cfa -56 + ^ x29: .cfa -64 + ^
STACK CFI 89acc .cfa: sp 64 +
STACK CFI 89adc .cfa: sp 0 +
STACK CFI 89ae0 .cfa: x29 64 +
STACK CFI INIT 89b20 134 .cfa: sp 0 +
STACK CFI 89b24 .cfa: sp 48 +
STACK CFI 89b30 .cfa: x29 48 + x19: .cfa -8 + ^ x20: .cfa -16 + ^ x21: .cfa -24 + ^ x22: .cfa -32 + ^ .ra: .cfa -40 + ^ x29: .cfa -48 + ^
STACK CFI 89c44 .cfa: sp 48 +
STACK CFI 89c50 .cfa: sp 0 +
STACK CFI INIT 8a03c 190 .cfa: sp 0 +
STACK CFI 8a040 .cfa: sp 80 +
STACK CFI 8a054 .cfa: x29 80 + x19: .cfa -8 + ^ x20: .cfa -16 + ^ x21: .cfa -24 + ^ x22: .cfa -32 + ^ x23: .cfa -40 + ^ x24: .cfa -48 + ^ x25: .cfa -64 + ^ .ra: .cfa -72 + ^ x29: .cfa -80 + ^
STACK CFI 8a190 .cfa: sp 80 +
STACK CFI 8a1a4 .cfa: sp 0 +
STACK CFI 8a1a8 .cfa: x29 80 +
STACK CFI 8a1b4 .cfa: sp 80 +
STACK CFI 8a1c8 .cfa: sp 0 +
STACK CFI INIT 8a3e0 284 .cfa: sp 0 +
STACK CFI 8a3e4 .cfa: sp 64 +
STACK CFI 8a3f4 .cfa: x29 64 + x19: .cfa -8 + ^ x20: .cfa -16 + ^ x21: .cfa -24 + ^ x22: .cfa -32 + ^ x23: .cfa -48 + ^ .ra: .cfa -56 + ^ x29: .cfa -64 + ^
STACK CFI 8a650 .cfa: sp 64 +
STACK CFI 8a660 .cfa: sp 0 +
STACK CFI INIT 8a664 210 .cfa: sp 0 +
STACK CFI 8a668 .cfa: sp 160 +
STACK CFI 8a680 .cfa: x29 80 + x19: .cfa -8 + ^ x20: .cfa -16 + ^ x21: .cfa -24 + ^ x22: .cfa -32 + ^ x23: .cfa -40 + ^ x24: .cfa -48 + ^ x25: .cfa -64 + ^ .ra: .cfa -72 + ^ x29: .cfa -80 + ^
STACK CFI 8a804 .cfa: sp 160 +
STACK CFI 8a81c .cfa: sp 0 +
STACK CFI 8a820 .cfa: x29 80 +
STACK CFI INIT 8a874 210 .cfa: sp 0 +
STACK CFI 8a878 .cfa: sp 80 +
STACK CFI 8a88c .cfa: x29 80 + x19: .cfa -8 + ^ x20: .cfa -16 + ^ x21: .cfa -24 + ^ x22: .cfa -32 + ^ x23: .cfa -40 + ^ x24: .cfa -48 + ^ x25: .cfa -56 + ^ x26: .cfa -64 + ^ .ra: .cfa -72 + ^ x29: .cfa -80 + ^
STACK CFI 8aa54 .cfa: sp 80 +
STACK CFI 8aa68 .cfa: sp 0 +
STACK CFI 8aa6c .cfa: x29 80 +
STACK CFI INIT 8aa84 5c0 .cfa: sp 0 +
STACK CFI 8aa88 .cfa: sp 240 +
STACK CFI 8aaa0 .cfa: x29 80 + x19: .cfa -8 + ^ x20: .cfa -16 + ^ x21: .cfa -24 + ^ x22: .cfa -32 + ^ x23: .cfa -40 + ^ x24: .cfa -48 + ^ x25: .cfa -56 + ^ x26: .cfa -64 + ^ .ra: .cfa -72 + ^ x29: .cfa -80 + ^
STACK CFI 8ab44 .cfa: sp 240 +
STACK CFI 8ab5c .cfa: sp 0 +
STACK CFI 8ab60 .cfa: x29 80 +
STACK CFI INIT 8b044 4b0 .cfa: sp 0 +
STACK CFI 8b048 .cfa: sp 96 +
STACK CFI 8b060 .cfa: x29 96 + x19: .cfa -8 + ^ x20: .cfa -16 + ^ x21: .cfa -24 + ^ x22: .cfa -32 + ^ x23: .cfa -40 + ^ x24: .cfa -48 + ^ x25: .cfa -56 + ^ x26: .cfa -64 + ^ x27: .cfa -72 + ^ x28: .cfa -80 + ^ .ra: .cfa -88 + ^ x29: .cfa -96 + ^
STACK CFI 8b4a8 .cfa: sp 96 +
STACK CFI 8b4c0 .cfa: sp 0 +
STACK CFI 8b4c4 .cfa: x29 96 +
STACK CFI INIT 8b4f4 1b0 .cfa: sp 0 +
STACK CFI 8b4f8 .cfa: sp 80 +
STACK CFI 8b504 .cfa: x29 32 + x19: .cfa -8 + ^ x20: .cfa -16 + ^ .ra: .cfa -24 + ^ x29: .cfa -32 + ^
STACK CFI 8b618 .cfa: sp 80 +
STACK CFI 8b624 .cfa: sp 0 +
STACK CFI 8b628 .cfa: x29 32 +
STACK CFI INIT 8b6a4 184 .cfa: sp 0 +
STACK CFI 8b6a8 .cfa: sp 16 +
STACK CFI 8b6ac .cfa: x29 16 + .ra: .cfa -8 + ^ x29: .cfa -16 + ^
STACK CFI 8b808 .cfa: sp 16 +
STACK CFI 8b80c .cfa: sp 0 +
STACK CFI 8b810 .cfa: x29 16 +
STACK CFI INIT 8b828 180 .cfa: sp 0 +
STACK CFI 8b82c .cfa: sp 80 +
STACK CFI 8b838 .cfa: x29 32 + x19: .cfa -16 + ^ .ra: .cfa -24 + ^ x29: .cfa -32 + ^
STACK CFI 8b92c .cfa: sp 80 +
STACK CFI 8b938 .cfa: sp 0 +
STACK CFI 8b93c .cfa: x29 32 +
STACK CFI INIT 8b9a8 110 .cfa: sp 0 +
STACK CFI 8b9ac .cfa: sp 96 +
STACK CFI 8b9c4 .cfa: x29 96 + x19: .cfa -8 + ^ x20: .cfa -16 + ^ x21: .cfa -24 + ^ x22: .cfa -32 + ^ x23: .cfa -40 + ^ x24: .cfa -48 + ^ x25: .cfa -56 + ^ x26: .cfa -64 + ^ x27: .cfa -80 + ^ .ra: .cfa -88 + ^ x29: .cfa -96 + ^
STACK CFI 8ba74 .cfa: sp 96 +
STACK CFI 8ba78 .cfa: x29 96 +
STACK CFI 8ba7c .cfa: sp 96 +
STACK CFI 8ba94 .cfa: sp 0 +
STACK CFI 8ba98 .cfa: x29 96 +
STACK CFI 8bab4 .cfa: sp 96 +
STACK CFI INIT 8bab8 494 .cfa: sp 0 +
STACK CFI 8babc .cfa: sp 176 +
STACK CFI 8bad4 .cfa: x29 80 + x19: .cfa -8 + ^ x20: .cfa -16 + ^ x21: .cfa -24 + ^ x22: .cfa -32 + ^ x23: .cfa -40 + ^ x24: .cfa -48 + ^ x25: .cfa -64 + ^ .ra: .cfa -72 + ^ x29: .cfa -80 + ^
STACK CFI 8bf2c .cfa: sp 176 +
STACK CFI 8bf44 .cfa: sp 0 +
STACK CFI 8bf48 .cfa: x29 80 +
STACK CFI INIT 8bf4c 28c .cfa: sp 0 +
STACK CFI 8bf50 .cfa: sp 80 +
STACK CFI 8bf64 .cfa: x29 80 + x19: .cfa -8 + ^ x20: .cfa -16 + ^ x21: .cfa -24 + ^ x22: .cfa -32 + ^ x23: .cfa -40 + ^ x24: .cfa -48 + ^ x25: .cfa -64 + ^ .ra: .cfa -72 + ^ x29: .cfa -80 + ^
STACK CFI 8c19c .cfa: sp 80 +
STACK CFI 8c1b0 .cfa: sp 0 +
STACK CFI 8c1b4 .cfa: x29 80 +
STACK CFI 8c1c0 .cfa: sp 80 +
STACK CFI 8c1d4 .cfa: sp 0 +
STACK CFI INIT 8c1d8 4f4 .cfa: sp 0 +
STACK CFI 8c1dc .cfa: sp 288 +
STACK CFI 8c1f8 .cfa: x29 96 + x19: .cfa -8 + ^ x20: .cfa -16 + ^ x21: .cfa -24 + ^ x22: .cfa -32 + ^ x23: .cfa -40 + ^ x24: .cfa -48 + ^ x25: .cfa -56 + ^ x26: .cfa -64 + ^ x27: .cfa -72 + ^ x28: .cfa -80 + ^ .ra: .cfa -88 + ^ x29: .cfa -96 + ^
STACK CFI 8c6a8 .cfa: sp 288 +
STACK CFI 8c6c4 .cfa: sp 0 +
STACK CFI 8c6c8 .cfa: x29 96 +
STACK CFI INIT 8c6cc 28c .cfa: sp 0 +
STACK CFI 8c6d0 .cfa: sp 80 +
STACK CFI 8c6e4 .cfa: x29 80 + x19: .cfa -8 + ^ x20: .cfa -16 + ^ x21: .cfa -24 + ^ x22: .cfa -32 + ^ x23: .cfa -40 + ^ x24: .cfa -48 + ^ x25: .cfa -64 + ^ .ra: .cfa -72 + ^ x29: .cfa -80 + ^
STACK CFI 8c91c .cfa: sp 80 +
STACK CFI 8c930 .cfa: sp 0 +
STACK CFI 8c934 .cfa: x29 80 +
STACK CFI 8c940 .cfa: sp 80 +
STACK CFI 8c954 .cfa: sp 0 +
STACK CFI INIT 8c958 144 .cfa: sp 0 +
STACK CFI 8c95c .cfa: sp 96 +
STACK CFI 8c96c .cfa: x29 48 + x19: .cfa -8 + ^ x20: .cfa -16 + ^ x21: .cfa -24 + ^ x22: .cfa -32 + ^ .ra: .cfa -40 + ^ x29: .cfa -48 + ^
STACK CFI 8ca68 .cfa: sp 96 +
STACK CFI 8ca78 .cfa: sp 0 +
STACK CFI 8ca7c .cfa: x29 48 +
STACK CFI INIT 8cde4 490 .cfa: sp 0 +
STACK CFI 8cde8 .cfa: sp 128 +
STACK CFI 8ce04 .cfa: x29 96 + x19: .cfa -8 + ^ x20: .cfa -16 + ^ x21: .cfa -24 + ^ x22: .cfa -32 + ^ x23: .cfa -40 + ^ x24: .cfa -48 + ^ x25: .cfa -56 + ^ x26: .cfa -64 + ^ x27: .cfa -72 + ^ x28: .cfa -80 + ^ .ra: .cfa -88 + ^ x29: .cfa -96 + ^
STACK CFI 8d250 .cfa: sp 128 +
STACK CFI 8d26c .cfa: sp 0 +
STACK CFI 8d270 .cfa: x29 96 +
STACK CFI INIT 8dde4 2ac .cfa: sp 0 +
STACK CFI 8dde8 .cfa: sp 432 +
STACK CFI 8de04 .cfa: x29 96 + x19: .cfa -8 + ^ x20: .cfa -16 + ^ x21: .cfa -24 + ^ x22: .cfa -32 + ^ x23: .cfa -40 + ^ x24: .cfa -48 + ^ x25: .cfa -56 + ^ x26: .cfa -64 + ^ x27: .cfa -72 + ^ x28: .cfa -80 + ^ .ra: .cfa -88 + ^ x29: .cfa -96 + ^
STACK CFI 8e06c .cfa: sp 432 +
STACK CFI 8e088 .cfa: sp 0 +
STACK CFI 8e08c .cfa: x29 96 +
STACK CFI INIT 8e090 384 .cfa: sp 0 +
STACK CFI 8e094 .cfa: sp 144 +
STACK CFI 8e0b0 .cfa: x29 96 + x19: .cfa -8 + ^ x20: .cfa -16 + ^ x21: .cfa -24 + ^ x22: .cfa -32 + ^ x23: .cfa -40 + ^ x24: .cfa -48 + ^ x25: .cfa -56 + ^ x26: .cfa -64 + ^ x27: .cfa -72 + ^ x28: .cfa -80 + ^ .ra: .cfa -88 + ^ x29: .cfa -96 + ^
STACK CFI 8e3f0 .cfa: sp 144 +
STACK CFI 8e40c .cfa: sp 0 +
STACK CFI 8e410 .cfa: x29 96 +
STACK CFI INIT 8e414 214 .cfa: sp 0 +
STACK CFI 8e418 .cfa: sp 80 +
STACK CFI 8e42c .cfa: x29 80 + x19: .cfa -8 + ^ x20: .cfa -16 + ^ x21: .cfa -24 + ^ x22: .cfa -32 + ^ x23: .cfa -40 + ^ x24: .cfa -48 + ^ x25: .cfa -64 + ^ .ra: .cfa -72 + ^ x29: .cfa -80 + ^
STACK CFI 8e5ec .cfa: sp 80 +
STACK CFI 8e600 .cfa: sp 0 +
STACK CFI 8e604 .cfa: x29 80 +
STACK CFI 8e610 .cfa: sp 80 +
STACK CFI 8e624 .cfa: sp 0 +
STACK CFI INIT 8e628 38c .cfa: sp 0 +
STACK CFI 8e62c .cfa: sp 128 +
STACK CFI 8e648 .cfa: x29 96 + x19: .cfa -8 + ^ x20: .cfa -16 + ^ x21: .cfa -24 + ^ x22: .cfa -32 + ^ x23: .cfa -40 + ^ x24: .cfa -48 + ^ x25: .cfa -56 + ^ x26: .cfa -64 + ^ x27: .cfa -72 + ^ x28: .cfa -80 + ^ .ra: .cfa -88 + ^ x29: .cfa -96 + ^
STACK CFI 8e990 .cfa: sp 128 +
STACK CFI 8e9ac .cfa: sp 0 +
STACK CFI 8e9b0 .cfa: x29 96 +
STACK CFI INIT 8e9b4 20 .cfa: sp 0 +
STACK CFI INIT 8e9d4 184 .cfa: sp 0 +
STACK CFI 8e9d8 .cfa: sp 96 +
STACK CFI 8e9f0 .cfa: x29 96 + x19: .cfa -8 + ^ x20: .cfa -16 + ^ x21: .cfa -24 + ^ x22: .cfa -32 + ^ x23: .cfa -40 + ^ x24: .cfa -48 + ^ x25: .cfa -56 + ^ x26: .cfa -64 + ^ x27: .cfa -80 + ^ .ra: .cfa -88 + ^ x29: .cfa -96 + ^
STACK CFI 8eaec .cfa: sp 96 +
STACK CFI 8eb04 .cfa: sp 0 +
STACK CFI 8eb08 .cfa: x29 96 +
STACK CFI INIT 8eb58 1b4 .cfa: sp 0 +
STACK CFI INIT 8fe5c 11c .cfa: sp 0 +
STACK CFI 8fe60 .cfa: sp 64 +
STACK CFI 8fe70 .cfa: x29 64 + x19: .cfa -8 + ^ x20: .cfa -16 + ^ x21: .cfa -24 + ^ x22: .cfa -32 + ^ x23: .cfa -40 + ^ x24: .cfa -48 + ^ .ra: .cfa -56 + ^ x29: .cfa -64 + ^
STACK CFI 8ff04 .cfa: sp 64 +
STACK CFI 8ff14 .cfa: sp 0 +
STACK CFI 8ff18 .cfa: x29 64 +
STACK CFI 8ff64 .cfa: sp 64 +
STACK CFI 8ff74 .cfa: sp 0 +
STACK CFI INIT 905d8 11c .cfa: sp 0 +
STACK CFI 905dc .cfa: sp 64 +
STACK CFI 905ec .cfa: x29 64 + x19: .cfa -8 + ^ x20: .cfa -16 + ^ x21: .cfa -24 + ^ x22: .cfa -32 + ^ x23: .cfa -40 + ^ x24: .cfa -48 + ^ .ra: .cfa -56 + ^ x29: .cfa -64 + ^
STACK CFI 90680 .cfa: sp 64 +
STACK CFI 90690 .cfa: sp 0 +
STACK CFI 90694 .cfa: x29 64 +
STACK CFI 906e0 .cfa: sp 64 +
STACK CFI 906f0 .cfa: sp 0 +
STACK CFI INIT 9076c 28 .cfa: sp 0 +
STACK CFI INIT 90794 14 .cfa: sp 0 +
STACK CFI INIT 90a90 e0 .cfa: sp 0 +
STACK CFI INIT 90b70 64 .cfa: sp 0 +
STACK CFI INIT 90bd4 a0 .cfa: sp 0 +
STACK CFI INIT 90c74 f0 .cfa: sp 0 +
STACK CFI INIT 90d64 b8 .cfa: sp 0 +
STACK CFI INIT 90e1c 13c .cfa: sp 0 +
STACK CFI INIT 90f58 13c .cfa: sp 0 +
STACK CFI INIT 91094 9c .cfa: sp 0 +
STACK CFI INIT 91130 bc .cfa: sp 0 +
STACK CFI INIT 91c68 2f8 .cfa: sp 0 +
STACK CFI INIT 9208c 174 .cfa: sp 0 +
STACK CFI INIT 92200 20 .cfa: sp 0 +
STACK CFI INIT 92220 170 .cfa: sp 0 +
STACK CFI INIT 92390 170 .cfa: sp 0 +
STACK CFI INIT 92500 18 .cfa: sp 0 +
STACK CFI INIT 92518 208 .cfa: sp 0 +
STACK CFI INIT 92720 1fc .cfa: sp 0 +
STACK CFI INIT 9291c 18 .cfa: sp 0 +
STACK CFI INIT 92934 43c .cfa: sp 0 +
STACK CFI INIT 930d8 720 .cfa: sp 0 +
STACK CFI INIT 9384c 38 .cfa: sp 0 +
STACK CFI INIT 93884 8 .cfa: sp 0 +
STACK CFI INIT 9388c 2c .cfa: sp 0 +
STACK CFI INIT 938b8 10 .cfa: sp 0 +
STACK CFI INIT 938c8 8 .cfa: sp 0 +
STACK CFI INIT 938d0 8 .cfa: sp 0 +
STACK CFI INIT 938d8 8 .cfa: sp 0 +
STACK CFI INIT 938e0 24 .cfa: sp 0 +
STACK CFI INIT 93904 50 .cfa: sp 0 +
STACK CFI INIT 93954 24 .cfa: sp 0 +
STACK CFI INIT 93978 24 .cfa: sp 0 +
STACK CFI INIT 9399c 7c .cfa: sp 0 +
STACK CFI INIT 93a18 58 .cfa: sp 0 +
STACK CFI INIT 93a70 60 .cfa: sp 0 +
STACK CFI INIT 93ad0 c .cfa: sp 0 +
STACK CFI INIT 93b24 54 .cfa: sp 0 +
STACK CFI INIT 93b78 50 .cfa: sp 0 +
STACK CFI INIT 93bc8 8 .cfa: sp 0 +
STACK CFI INIT 93bd0 2c .cfa: sp 0 +
STACK CFI INIT 93bfc 10 .cfa: sp 0 +
STACK CFI INIT 93c0c 8 .cfa: sp 0 +
STACK CFI INIT 93c14 2c .cfa: sp 0 +
STACK CFI INIT 93d5c 38 .cfa: sp 0 +
STACK CFI INIT 93d94 5c .cfa: sp 0 +
STACK CFI INIT 93f0c 38 .cfa: sp 0 +
STACK CFI INIT 93f44 5c .cfa: sp 0 +
STACK CFI INIT 93ff4 1d4 .cfa: sp 0 +
STACK CFI INIT 941c8 154 .cfa: sp 0 +
STACK CFI INIT 9431c b8 .cfa: sp 0 +
STACK CFI INIT 943d4 a4 .cfa: sp 0 +
STACK CFI INIT 94478 2c .cfa: sp 0 +
STACK CFI INIT 944a4 54 .cfa: sp 0 +
STACK CFI INIT 944f8 2c .cfa: sp 0 +
STACK CFI INIT 94524 80 .cfa: sp 0 +
STACK CFI INIT 945a4 18 .cfa: sp 0 +
STACK CFI INIT 945bc 8c .cfa: sp 0 +
STACK CFI INIT 94648 1c0 .cfa: sp 0 +
STACK CFI INIT 94808 134 .cfa: sp 0 +
STACK CFI INIT 9493c 34 .cfa: sp 0 +
STACK CFI INIT 94970 a0 .cfa: sp 0 +
STACK CFI INIT 94a10 44 .cfa: sp 0 +
STACK CFI INIT 94a54 11c .cfa: sp 0 +
STACK CFI INIT 94b70 7c .cfa: sp 0 +
STACK CFI INIT 94bec 134 .cfa: sp 0 +
STACK CFI INIT 94d20 8 .cfa: sp 0 +
STACK CFI INIT 94eac d4 .cfa: sp 0 +
STACK CFI INIT 94f80 50 .cfa: sp 0 +
STACK CFI INIT 94fd0 70 .cfa: sp 0 +
STACK CFI INIT 95040 dc .cfa: sp 0 +
STACK CFI INIT 9511c 70 .cfa: sp 0 +
STACK CFI INIT 9518c a0 .cfa: sp 0 +
STACK CFI INIT 9522c 4c .cfa: sp 0 +
STACK CFI INIT 95278 88 .cfa: sp 0 +
STACK CFI INIT 95300 12c .cfa: sp 0 +
STACK CFI INIT 9542c 134 .cfa: sp 0 +
STACK CFI INIT 95560 184 .cfa: sp 0 +
STACK CFI INIT 956e4 50 .cfa: sp 0 +
STACK CFI INIT 95734 144 .cfa: sp 0 +
STACK CFI INIT 95878 78 .cfa: sp 0 +
STACK CFI INIT 958f0 108 .cfa: sp 0 +
STACK CFI INIT 95a78 80 .cfa: sp 0 +
STACK CFI INIT 95af8 a4 .cfa: sp 0 +
STACK CFI INIT 95b9c 44 .cfa: sp 0 +
STACK CFI INIT 95be0 8 .cfa: sp 0 +
STACK CFI INIT 95be8 d0 .cfa: sp 0 +
STACK CFI INIT 95cb8 b0 .cfa: sp 0 +
STACK CFI INIT 95d68 54 .cfa: sp 0 +
STACK CFI INIT 95dbc e4 .cfa: sp 0 +
STACK CFI INIT 95ea0 50 .cfa: sp 0 +
STACK CFI INIT 95ef0 1b0 .cfa: sp 0 +
STACK CFI INIT 960a0 4c .cfa: sp 0 +
STACK CFI INIT 960ec 50 .cfa: sp 0 +
STACK CFI INIT 9613c 1d8 .cfa: sp 0 +
STACK CFI INIT 96314 18 .cfa: sp 0 +
STACK CFI INIT 9632c 180 .cfa: sp 0 +
STACK CFI INIT 964ac c4 .cfa: sp 0 +
STACK CFI INIT 96570 b8 .cfa: sp 0 +
STACK CFI INIT 96628 18 .cfa: sp 0 +
STACK CFI INIT 96640 2c .cfa: sp 0 +
STACK CFI INIT 9666c a0 .cfa: sp 0 +
STACK CFI INIT 9670c 54 .cfa: sp 0 +
STACK CFI INIT 96760 2c .cfa: sp 0 +
STACK CFI INIT 9678c 90 .cfa: sp 0 +
STACK CFI INIT 9681c 18 .cfa: sp 0 +
STACK CFI INIT 96834 9c .cfa: sp 0 +
STACK CFI INIT 968d0 158 .cfa: sp 0 +
STACK CFI INIT 96a28 34 .cfa: sp 0 +
STACK CFI INIT 96a5c b4 .cfa: sp 0 +
STACK CFI INIT 96b10 48 .cfa: sp 0 +
STACK CFI INIT 96b58 124 .cfa: sp 0 +
STACK CFI INIT 96c7c 88 .cfa: sp 0 +
STACK CFI INIT 96d04 188 .cfa: sp 0 +
STACK CFI INIT 96e8c 8 .cfa: sp 0 +
STACK CFI INIT 96e94 c8 .cfa: sp 0 +
STACK CFI INIT 96f5c 9c .cfa: sp 0 +
STACK CFI INIT 9713c d8 .cfa: sp 0 +
STACK CFI INIT 97214 54 .cfa: sp 0 +
STACK CFI INIT 97268 74 .cfa: sp 0 +
STACK CFI INIT 972dc f4 .cfa: sp 0 +
STACK CFI INIT 973d0 74 .cfa: sp 0 +
STACK CFI INIT 97444 f0 .cfa: sp 0 +
STACK CFI INIT 97534 4c .cfa: sp 0 +
STACK CFI INIT 97580 9c .cfa: sp 0 +
STACK CFI INIT 9761c 140 .cfa: sp 0 +
STACK CFI INIT 9775c a8 .cfa: sp 0 +
STACK CFI INIT 97804 128 .cfa: sp 0 +
STACK CFI INIT 9792c 58 .cfa: sp 0 +
STACK CFI INIT 97984 118 .cfa: sp 0 +
STACK CFI INIT 97a9c 78 .cfa: sp 0 +
STACK CFI INIT 97b14 9c .cfa: sp 0 +
STACK CFI INIT 97bb0 10c .cfa: sp 0 +
STACK CFI INIT 97d54 8c .cfa: sp 0 +
STACK CFI INIT 97de0 b8 .cfa: sp 0 +
STACK CFI INIT 97e98 48 .cfa: sp 0 +
STACK CFI INIT 97ee0 8 .cfa: sp 0 +
STACK CFI INIT 97ee8 3c .cfa: sp 0 +
STACK CFI INIT 97f24 e0 .cfa: sp 0 +
STACK CFI INIT 98004 b8 .cfa: sp 0 +
STACK CFI INIT 980bc 58 .cfa: sp 0 +
STACK CFI INIT 98114 d4 .cfa: sp 0 +
STACK CFI INIT 981e8 90 .cfa: sp 0 +
STACK CFI INIT 98278 e8 .cfa: sp 0 +
STACK CFI INIT 98360 50 .cfa: sp 0 +
STACK CFI INIT 983b0 104 .cfa: sp 0 +
STACK CFI INIT 984b4 160 .cfa: sp 0 +
STACK CFI INIT 98614 50 .cfa: sp 0 +
STACK CFI INIT 98664 108 .cfa: sp 0 +
STACK CFI INIT 9876c 18 .cfa: sp 0 +
STACK CFI INIT 98784 18 .cfa: sp 0 +
STACK CFI INIT 99d64 128 .cfa: sp 0 +
STACK CFI INIT 99e8c 21c .cfa: sp 0 +
STACK CFI INIT 9a0a8 21c .cfa: sp 0 +
STACK CFI INIT 9a2c4 c4 .cfa: sp 0 +
STACK CFI INIT 9a388 1c8 .cfa: sp 0 +
STACK CFI INIT 9a550 1c8 .cfa: sp 0 +
STACK CFI INIT 9a718 1d8 .cfa: sp 0 +
STACK CFI INIT 9a8f0 2cc .cfa: sp 0 +
STACK CFI INIT 9abbc 2cc .cfa: sp 0 +
STACK CFI INIT 9ae88 174 .cfa: sp 0 +
STACK CFI INIT 9affc 278 .cfa: sp 0 +
STACK CFI INIT 9b274 278 .cfa: sp 0 +
STACK CFI INIT 9be1c 10c .cfa: sp 0 +
STACK CFI INIT 9bf28 38 .cfa: sp 0 +
STACK CFI INIT 9bf60 3b8 .cfa: sp 0 +
STACK CFI INIT 9c318 124 .cfa: sp 0 +
STACK CFI INIT 9c43c 10 .cfa: sp 0 +
STACK CFI INIT 9c44c 68 .cfa: sp 0 +
STACK CFI INIT 9c4b4 50 .cfa: sp 0 +
STACK CFI INIT 9c504 10 .cfa: sp 0 +
STACK CFI INIT 9c514 64 .cfa: sp 0 +
STACK CFI INIT 9c578 24 .cfa: sp 0 +
STACK CFI INIT 9c59c 50 .cfa: sp 0 +
STACK CFI INIT 9c5ec 1c .cfa: sp 0 +
STACK CFI INIT 9c608 1c .cfa: sp 0 +
STACK CFI INIT 9cd3c 8 .cfa: sp 0 +
STACK CFI INIT 9cd44 2c .cfa: sp 0 +
STACK CFI INIT 9cd70 20 .cfa: sp 0 +
STACK CFI INIT 9cdf8 2c .cfa: sp 0 +
STACK CFI INIT 9ce24 2c .cfa: sp 0 +
STACK CFI INIT 9ce50 18 .cfa: sp 0 +
STACK CFI INIT 9ce68 8 .cfa: sp 0 +
STACK CFI INIT 9ce70 8 .cfa: sp 0 +
STACK CFI INIT 9ce78 14 .cfa: sp 0 +
STACK CFI INIT 9ce8c 44 .cfa: sp 0 +
STACK CFI INIT 9ced0 1c .cfa: sp 0 +
STACK CFI INIT 9ceec 10 .cfa: sp 0 +
STACK CFI INIT 9cefc 2c .cfa: sp 0 +
STACK CFI INIT 9cf68 2c .cfa: sp 0 +
STACK CFI INIT 9cfdc a4 .cfa: sp 0 +
STACK CFI INIT 9d0a0 2c .cfa: sp 0 +
STACK CFI INIT 9d114 1c .cfa: sp 0 +
STACK CFI INIT 9d2c8 1c .cfa: sp 0 +
STACK CFI INIT 9d6d8 20 .cfa: sp 0 +
STACK CFI INIT 9d6f8 4c .cfa: sp 0 +
STACK CFI INIT 9d744 48 .cfa: sp 0 +
STACK CFI INIT 9d7b8 80 .cfa: sp 0 +
STACK CFI INIT 9d8bc 34 .cfa: sp 0 +
STACK CFI INIT 9d9bc fc .cfa: sp 0 +
STACK CFI INIT 9dab8 f0 .cfa: sp 0 +
STACK CFI INIT 9dba8 3c .cfa: sp 0 +
STACK CFI INIT 9dbe4 44 .cfa: sp 0 +
STACK CFI INIT 9dc28 c .cfa: sp 0 +
STACK CFI INIT 9dc34 c .cfa: sp 0 +
STACK CFI INIT 9dc40 18 .cfa: sp 0 +
STACK CFI INIT 9dc58 18 .cfa: sp 0 +
STACK CFI INIT 9dc70 38 .cfa: sp 0 +
STACK CFI INIT 9dca8 10 .cfa: sp 0 +
STACK CFI INIT 9dcb8 18c .cfa: sp 0 +
STACK CFI INIT 9de44 50 .cfa: sp 0 +
STACK CFI INIT 9df20 8 .cfa: sp 0 +
STACK CFI INIT 9df28 2c .cfa: sp 0 +
STACK CFI INIT 9df54 10 .cfa: sp 0 +
STACK CFI INIT 9e25c 44 .cfa: sp 0 +
STACK CFI INIT 9e388 90 .cfa: sp 0 +
STACK CFI INIT 9e418 a4 .cfa: sp 0 +
STACK CFI INIT 9e4bc 14 .cfa: sp 0 +
STACK CFI INIT 9e53c 54 .cfa: sp 0 +
STACK CFI INIT 9e61c 54 .cfa: sp 0 +
STACK CFI INIT 9e804 28 .cfa: sp 0 +
STACK CFI INIT 9e82c 24 .cfa: sp 0 +
STACK CFI INIT 9e8b0 24 .cfa: sp 0 +
STACK CFI INIT 9e934 54 .cfa: sp 0 +
STACK CFI INIT 9e988 78 .cfa: sp 0 +
STACK CFI INIT 9ea00 54 .cfa: sp 0 +
STACK CFI INIT 9ea54 5c .cfa: sp 0 +
STACK CFI INIT 9eab0 2c .cfa: sp 0 +
STACK CFI INIT 9eadc 10 .cfa: sp 0 +
STACK CFI INIT 9eaec 24 .cfa: sp 0 +
STACK CFI INIT 9eb10 8 .cfa: sp 0 +
STACK CFI INIT 9eb18 c .cfa: sp 0 +
STACK CFI INIT 9eb24 18 .cfa: sp 0 +
STACK CFI INIT 9eb3c 50 .cfa: sp 0 +
STACK CFI INIT 9eb8c c .cfa: sp 0 +
STACK CFI INIT 9eb98 3c .cfa: sp 0 +
STACK CFI INIT 9ebd4 2c .cfa: sp 0 +
STACK CFI INIT 9ec00 18 .cfa: sp 0 +
STACK CFI INIT 9ec18 2c .cfa: sp 0 +
STACK CFI INIT 9ec9c 18 .cfa: sp 0 +
STACK CFI INIT 9ed7c 94 .cfa: sp 0 +
STACK CFI INIT 9ee68 10 .cfa: sp 0 +
STACK CFI INIT 9ee78 74 .cfa: sp 0 +
STACK CFI INIT 9eeec 50 .cfa: sp 0 +
STACK CFI INIT 9ef3c 40 .cfa: sp 0 +
STACK CFI INIT 9ef7c 40 .cfa: sp 0 +
STACK CFI INIT 9efbc 8 .cfa: sp 0 +
STACK CFI INIT 9efc4 2c .cfa: sp 0 +
STACK CFI INIT 9eff0 64 .cfa: sp 0 +
STACK CFI INIT 9f0e4 10 .cfa: sp 0 +
STACK CFI INIT 9f0f4 28 .cfa: sp 0 +
STACK CFI INIT 9f11c 114 .cfa: sp 0 +
STACK CFI INIT 9f230 114 .cfa: sp 0 +
STACK CFI INIT 9f344 e0 .cfa: sp 0 +
STACK CFI INIT 9f4d8 2c .cfa: sp 0 +
STACK CFI INIT 9f504 40 .cfa: sp 0 +
STACK CFI INIT 9f5e4 4c .cfa: sp 0 +
STACK CFI INIT 9f8f0 9c .cfa: sp 0 +
STACK CFI INIT 9f98c 11c .cfa: sp 0 +
STACK CFI INIT 9faa8 2c .cfa: sp 0 +
STACK CFI INIT 9fad4 2c .cfa: sp 0 +
STACK CFI INIT 9fb00 1c .cfa: sp 0 +
STACK CFI INIT 9fb1c 2c .cfa: sp 0 +
STACK CFI INIT 9fb48 38 .cfa: sp 0 +
STACK CFI INIT 9fb80 8 .cfa: sp 0 +
STACK CFI INIT 9fb88 2c .cfa: sp 0 +
STACK CFI INIT 9fbb4 7c .cfa: sp 0 +
STACK CFI INIT 9fc30 18 .cfa: sp 0 +
STACK CFI INIT 9fc48 2c .cfa: sp 0 +
STACK CFI INIT 9fc74 54 .cfa: sp 0 +
STACK CFI INIT 9fcc8 10 .cfa: sp 0 +
STACK CFI INIT 9fcd8 10 .cfa: sp 0 +
STACK CFI INIT 9fce8 10 .cfa: sp 0 +
STACK CFI INIT 9fcf8 10 .cfa: sp 0 +
STACK CFI INIT 9fd08 10 .cfa: sp 0 +
STACK CFI INIT 9fd18 24 .cfa: sp 0 +
STACK CFI INIT 9fd3c 84 .cfa: sp 0 +
STACK CFI INIT 9fdc0 2c .cfa: sp 0 +
STACK CFI INIT 9fdec 24 .cfa: sp 0 +
STACK CFI INIT 9fe10 10 .cfa: sp 0 +
STACK CFI INIT 9fe20 38 .cfa: sp 0 +
STACK CFI INIT 9fe58 30 .cfa: sp 0 +
STACK CFI INIT 9fe88 3c .cfa: sp 0 +
STACK CFI INIT 9fec4 10 .cfa: sp 0 +
STACK CFI INIT 9fed4 44 .cfa: sp 0 +
STACK CFI INIT 9ff18 58 .cfa: sp 0 +
STACK CFI INIT 9ff70 50 .cfa: sp 0 +
STACK CFI INIT 9ffc0 bc .cfa: sp 0 +
STACK CFI INIT a007c 14 .cfa: sp 0 +
STACK CFI INIT a0090 10 .cfa: sp 0 +
STACK CFI INIT a00a0 14 .cfa: sp 0 +
STACK CFI INIT a00b4 10 .cfa: sp 0 +
STACK CFI INIT a00c4 8 .cfa: sp 0 +
STACK CFI INIT a00cc 8 .cfa: sp 0 +
STACK CFI INIT a00d4 10 .cfa: sp 0 +
STACK CFI INIT a00e4 10 .cfa: sp 0 +
STACK CFI INIT a00f4 c .cfa: sp 0 +
STACK CFI INIT a0100 c .cfa: sp 0 +
STACK CFI INIT a010c d0 .cfa: sp 0 +
STACK CFI INIT a01dc c .cfa: sp 0 +
STACK CFI INIT a01e8 48 .cfa: sp 0 +
STACK CFI INIT a0230 c .cfa: sp 0 +
STACK CFI INIT a023c d0 .cfa: sp 0 +
STACK CFI INIT a030c c .cfa: sp 0 +
STACK CFI INIT a0318 5c .cfa: sp 0 +
STACK CFI INIT a03e0 8 .cfa: sp 0 +
STACK CFI INIT a03e8 c .cfa: sp 0 +
STACK CFI INIT a03f4 18 .cfa: sp 0 +
STACK CFI INIT a040c 30 .cfa: sp 0 +
STACK CFI INIT a043c 38 .cfa: sp 0 +
STACK CFI INIT a0474 6c .cfa: sp 0 +
STACK CFI INIT a079c c .cfa: sp 0 +
STACK CFI INIT a07a8 38 .cfa: sp 0 +
STACK CFI INIT a07e0 38 .cfa: sp 0 +
STACK CFI INIT a09cc 8 .cfa: sp 0 +
STACK CFI INIT a0b04 8 .cfa: sp 0 +
STACK CFI INIT a0c7c 8 .cfa: sp 0 +
STACK CFI INIT a0db4 8 .cfa: sp 0 +
STACK CFI INIT a0f30 8 .cfa: sp 0 +
STACK CFI INIT a1068 8 .cfa: sp 0 +
STACK CFI INIT a11a0 8 .cfa: sp 0 +
STACK CFI INIT a12d8 8 .cfa: sp 0 +
STACK CFI INIT a1410 8 .cfa: sp 0 +
STACK CFI INIT a1548 8 .cfa: sp 0 +
STACK CFI INIT a1680 8 .cfa: sp 0 +
STACK CFI INIT a17b8 8 .cfa: sp 0 +
STACK CFI INIT a18f0 8 .cfa: sp 0 +
STACK CFI INIT a1b40 3c .cfa: sp 0 +
STACK CFI INIT a2e4c 58 .cfa: sp 0 +
STACK CFI INIT a2f10 8 .cfa: sp 0 +
STACK CFI INIT a2f18 c .cfa: sp 0 +
STACK CFI INIT a2f24 18 .cfa: sp 0 +
STACK CFI INIT a2f3c 30 .cfa: sp 0 +
STACK CFI INIT a2f6c 38 .cfa: sp 0 +
STACK CFI INIT a2fa4 64 .cfa: sp 0 +
STACK CFI INIT a3008 64 .cfa: sp 0 +
STACK CFI INIT a3114 c .cfa: sp 0 +
STACK CFI INIT a3120 38 .cfa: sp 0 +
STACK CFI INIT a3158 38 .cfa: sp 0 +
STACK CFI INIT a49ec 60 .cfa: sp 0 +
STACK CFI INIT a4bd4 a0 .cfa: sp 0 +
STACK CFI INIT a4cfc 8 .cfa: sp 0 +
STACK CFI INIT a4d04 c .cfa: sp 0 +
STACK CFI INIT a4d10 c .cfa: sp 0 +
STACK CFI INIT a4d1c 18 .cfa: sp 0 +
STACK CFI INIT a4d34 30 .cfa: sp 0 +
STACK CFI INIT a4d64 30 .cfa: sp 0 +
STACK CFI INIT a4d94 38 .cfa: sp 0 +
STACK CFI INIT a4dcc 6c .cfa: sp 0 +
STACK CFI INIT a4e38 8 .cfa: sp 0 +
STACK CFI INIT a4e40 2c .cfa: sp 0 +
STACK CFI INIT a4e6c 7c .cfa: sp 0 +
STACK CFI INIT a4ee8 18 .cfa: sp 0 +
STACK CFI INIT a4f00 2c .cfa: sp 0 +
STACK CFI INIT a4f2c 54 .cfa: sp 0 +
STACK CFI INIT a4f80 10 .cfa: sp 0 +
STACK CFI INIT a4f90 10 .cfa: sp 0 +
STACK CFI INIT a4fa0 10 .cfa: sp 0 +
STACK CFI INIT a4fb0 10 .cfa: sp 0 +
STACK CFI INIT a4fc0 10 .cfa: sp 0 +
STACK CFI INIT a4fd0 28 .cfa: sp 0 +
STACK CFI INIT a4ff8 8c .cfa: sp 0 +
STACK CFI INIT a5084 30 .cfa: sp 0 +
STACK CFI INIT a50b4 24 .cfa: sp 0 +
STACK CFI INIT a50d8 10 .cfa: sp 0 +
STACK CFI INIT a50e8 38 .cfa: sp 0 +
STACK CFI INIT a5120 34 .cfa: sp 0 +
STACK CFI INIT a5154 34 .cfa: sp 0 +
STACK CFI INIT a5188 10 .cfa: sp 0 +
STACK CFI INIT a5198 44 .cfa: sp 0 +
STACK CFI INIT a51dc 58 .cfa: sp 0 +
STACK CFI INIT a5234 50 .cfa: sp 0 +
STACK CFI INIT a5284 bc .cfa: sp 0 +
STACK CFI INIT a5340 14 .cfa: sp 0 +
STACK CFI INIT a5354 10 .cfa: sp 0 +
STACK CFI INIT a5364 14 .cfa: sp 0 +
STACK CFI INIT a5378 10 .cfa: sp 0 +
STACK CFI INIT a5388 8 .cfa: sp 0 +
STACK CFI INIT a5390 8 .cfa: sp 0 +
STACK CFI INIT a5398 10 .cfa: sp 0 +
STACK CFI INIT a53a8 10 .cfa: sp 0 +
STACK CFI INIT a53b8 c .cfa: sp 0 +
STACK CFI INIT a53c4 c .cfa: sp 0 +
STACK CFI INIT a53d0 d4 .cfa: sp 0 +
STACK CFI INIT a54a4 c .cfa: sp 0 +
STACK CFI INIT a54b0 44 .cfa: sp 0 +
STACK CFI INIT a54f4 c .cfa: sp 0 +
STACK CFI INIT a5500 d8 .cfa: sp 0 +
STACK CFI INIT a55d8 c .cfa: sp 0 +
STACK CFI INIT a55e4 5c .cfa: sp 0 +
STACK CFI INIT a56ac 8 .cfa: sp 0 +
STACK CFI INIT a56b4 c .cfa: sp 0 +
STACK CFI INIT a56c0 18 .cfa: sp 0 +
STACK CFI INIT a56d8 30 .cfa: sp 0 +
STACK CFI INIT a5708 38 .cfa: sp 0 +
STACK CFI INIT a5740 6c .cfa: sp 0 +
STACK CFI INIT a5a80 c .cfa: sp 0 +
STACK CFI INIT a5a8c 38 .cfa: sp 0 +
STACK CFI INIT a5ac4 38 .cfa: sp 0 +
STACK CFI INIT a5cac 8 .cfa: sp 0 +
STACK CFI INIT a5de4 8 .cfa: sp 0 +
STACK CFI INIT a5f5c 8 .cfa: sp 0 +
STACK CFI INIT a6094 8 .cfa: sp 0 +
STACK CFI INIT a6210 8 .cfa: sp 0 +
STACK CFI INIT a6348 8 .cfa: sp 0 +
STACK CFI INIT a6480 8 .cfa: sp 0 +
STACK CFI INIT a65b8 8 .cfa: sp 0 +
STACK CFI INIT a66f0 8 .cfa: sp 0 +
STACK CFI INIT a6828 8 .cfa: sp 0 +
STACK CFI INIT a6960 8 .cfa: sp 0 +
STACK CFI INIT a6a98 8 .cfa: sp 0 +
STACK CFI INIT a6bd0 8 .cfa: sp 0 +
STACK CFI INIT a6e20 3c .cfa: sp 0 +
STACK CFI INIT a8128 58 .cfa: sp 0 +
STACK CFI INIT a81ec 8 .cfa: sp 0 +
STACK CFI INIT a81f4 c .cfa: sp 0 +
STACK CFI INIT a8200 18 .cfa: sp 0 +
STACK CFI INIT a8218 30 .cfa: sp 0 +
STACK CFI INIT a8248 38 .cfa: sp 0 +
STACK CFI INIT a8280 64 .cfa: sp 0 +
STACK CFI INIT a82e4 64 .cfa: sp 0 +
STACK CFI INIT a83f0 c .cfa: sp 0 +
STACK CFI INIT a83fc 38 .cfa: sp 0 +
STACK CFI INIT a8434 38 .cfa: sp 0 +
STACK CFI INIT a9cd4 60 .cfa: sp 0 +
STACK CFI INIT aa610 234 .cfa: sp 0 +
STACK CFI INIT aa844 8c .cfa: sp 0 +
STACK CFI INIT aa8d0 54 .cfa: sp 0 +
STACK CFI INIT aa924 74 .cfa: sp 0 +
STACK CFI INIT aab50 f8 .cfa: sp 0 +
STACK CFI INIT aac48 8c .cfa: sp 0 +
STACK CFI INIT aacd4 90 .cfa: sp 0 +
STACK CFI INIT aad64 8c .cfa: sp 0 +
STACK CFI INIT aadf0 b0 .cfa: sp 0 +
STACK CFI INIT aaea0 a4 .cfa: sp 0 +
STACK CFI INIT aaf44 bc .cfa: sp 0 +
STACK CFI INIT ab000 b0 .cfa: sp 0 +
STACK CFI INIT ab0b0 bc .cfa: sp 0 +
STACK CFI INIT ab290 194 .cfa: sp 0 +
STACK CFI INIT ab584 2c .cfa: sp 0 +
STACK CFI INIT ab5b0 2fc .cfa: sp 0 +
STACK CFI INIT ab8ac 134 .cfa: sp 0 +
STACK CFI INIT ab9e0 24c .cfa: sp 0 +
STACK CFI INIT abc2c 58 .cfa: sp 0 +
STACK CFI INIT abc84 38 .cfa: sp 0 +
STACK CFI INIT abcbc 64 .cfa: sp 0 +
STACK CFI INIT abd20 1ec .cfa: sp 0 +
STACK CFI INIT abf0c 6c .cfa: sp 0 +
STACK CFI INIT abf78 108 .cfa: sp 0 +
STACK CFI INIT ac080 cc .cfa: sp 0 +
STACK CFI INIT ac14c 78 .cfa: sp 0 +
STACK CFI INIT ac1c4 1c4 .cfa: sp 0 +
STACK CFI INIT ac388 f8 .cfa: sp 0 +
STACK CFI INIT ac480 44 .cfa: sp 0 +
STACK CFI INIT ac4c4 50 .cfa: sp 0 +
STACK CFI INIT ac514 50 .cfa: sp 0 +
STACK CFI INIT ac564 5c .cfa: sp 0 +
STACK CFI INIT ac5c0 44 .cfa: sp 0 +
STACK CFI INIT ac604 50 .cfa: sp 0 +
STACK CFI INIT ac654 50 .cfa: sp 0 +
STACK CFI INIT ac6a4 5c .cfa: sp 0 +
STACK CFI INIT ac700 60 .cfa: sp 0 +
STACK CFI INIT ac760 60 .cfa: sp 0 +
STACK CFI INIT ac7c0 18 .cfa: sp 0 +
STACK CFI INIT ac7d8 88 .cfa: sp 0 +
STACK CFI INIT ac860 80 .cfa: sp 0 +
STACK CFI INIT ac8e0 94 .cfa: sp 0 +
STACK CFI INIT ac974 88 .cfa: sp 0 +
STACK CFI INIT ac9fc 90 .cfa: sp 0 +
STACK CFI INIT aca8c 78 .cfa: sp 0 +
STACK CFI INIT acb04 80 .cfa: sp 0 +
STACK CFI INIT acb84 80 .cfa: sp 0 +
STACK CFI INIT acc04 88 .cfa: sp 0 +
STACK CFI INIT acc8c 7c .cfa: sp 0 +
STACK CFI INIT acd08 84 .cfa: sp 0 +
STACK CFI INIT acd8c 84 .cfa: sp 0 +
STACK CFI INIT ace10 8c .cfa: sp 0 +
STACK CFI INIT ace9c 8 .cfa: sp 0 +
STACK CFI INIT acea4 2c .cfa: sp 0 +
STACK CFI INIT aced0 64 .cfa: sp 0 +
STACK CFI INIT acf34 bc .cfa: sp 0 +
STACK CFI INIT acff0 38 .cfa: sp 0 +
STACK CFI INIT ad028 8 .cfa: sp 0 +
STACK CFI INIT ad030 2c .cfa: sp 0 +
STACK CFI INIT ad05c 58 .cfa: sp 0 +
STACK CFI INIT ad0b4 d4 .cfa: sp 0 +
STACK CFI INIT ad188 38 .cfa: sp 0 +
STACK CFI INIT ad8b8 8 .cfa: sp 0 +
STACK CFI INIT adcf4 8 .cfa: sp 0 +
STACK CFI INIT ae130 8 .cfa: sp 0 +
STACK CFI INIT ae56c 8 .cfa: sp 0 +
STACK CFI INIT ae9a8 8 .cfa: sp 0 +
STACK CFI INIT aede4 8 .cfa: sp 0 +
STACK CFI INIT af220 8 .cfa: sp 0 +
STACK CFI INIT af638 8 .cfa: sp 0 +
STACK CFI INIT afa50 8 .cfa: sp 0 +
STACK CFI INIT b039c 1c0 .cfa: sp 0 +
STACK CFI INIT b0d98 8 .cfa: sp 0 +
STACK CFI INIT b11c8 8 .cfa: sp 0 +
STACK CFI INIT b15f8 8 .cfa: sp 0 +
STACK CFI INIT b1a28 8 .cfa: sp 0 +
STACK CFI INIT b1e58 8 .cfa: sp 0 +
STACK CFI INIT b2288 8 .cfa: sp 0 +
STACK CFI INIT b26b8 8 .cfa: sp 0 +
STACK CFI INIT b2ac4 8 .cfa: sp 0 +
STACK CFI INIT b2ed0 8 .cfa: sp 0 +
STACK CFI INIT b3804 1bc .cfa: sp 0 +
STACK CFI INIT b3b58 27c .cfa: sp 0 +
STACK CFI INIT b40ec 268 .cfa: sp 0 +
STACK CFI INIT b46a4 10 .cfa: sp 0 +
STACK CFI INIT b48f0 10 .cfa: sp 0 +
STACK CFI INIT b4b3c 10 .cfa: sp 0 +
STACK CFI INIT b4d6c 10 .cfa: sp 0 +
STACK CFI INIT b4f9c 10 .cfa: sp 0 +
STACK CFI INIT b542c 10 .cfa: sp 0 +
STACK CFI INIT b5b98 70 .cfa: sp 0 +
STACK CFI INIT b5dd8 10 .cfa: sp 0 +
STACK CFI INIT b6024 10 .cfa: sp 0 +
STACK CFI INIT b6270 10 .cfa: sp 0 +
STACK CFI INIT b64a0 10 .cfa: sp 0 +
STACK CFI INIT b66d0 10 .cfa: sp 0 +
STACK CFI INIT b6b60 10 .cfa: sp 0 +
STACK CFI INIT b8cd0 c .cfa: sp 0 +
STACK CFI INIT b8cdc 44 .cfa: sp 0 +
STACK CFI INIT b8d20 8c .cfa: sp 0 +
STACK CFI INIT b8f04 bc .cfa: sp 0 +
STACK CFI INIT b9110 b4 .cfa: sp 0 +
STACK CFI INIT b92e0 68 .cfa: sp 0 +
STACK CFI INIT b99c8 64 .cfa: sp 0 +
STACK CFI INIT b9a2c 60 .cfa: sp 0 +
STACK CFI INIT b9a8c 64 .cfa: sp 0 +
STACK CFI INIT b9af0 60 .cfa: sp 0 +
STACK CFI INIT b9b50 64 .cfa: sp 0 +
STACK CFI INIT b9bb4 60 .cfa: sp 0 +
STACK CFI INIT b9c14 1e8 .cfa: sp 0 +
STACK CFI INIT b9dfc e8 .cfa: sp 0 +
STACK CFI INIT b9ee4 60 .cfa: sp 0 +
STACK CFI INIT b9f44 60 .cfa: sp 0 +
STACK CFI INIT b9fa4 50 .cfa: sp 0 +
STACK CFI INIT b9ff4 1ec .cfa: sp 0 +
STACK CFI INIT ba1e0 344 .cfa: sp 0 +
STACK CFI INIT baa18 c .cfa: sp 0 +
STACK CFI INIT baa24 40 .cfa: sp 0 +
STACK CFI INIT baa64 90 .cfa: sp 0 +
STACK CFI INIT bac4c bc .cfa: sp 0 +
STACK CFI INIT bae58 b4 .cfa: sp 0 +
STACK CFI INIT bb028 68 .cfa: sp 0 +
STACK CFI INIT bb700 64 .cfa: sp 0 +
STACK CFI INIT bb764 60 .cfa: sp 0 +
STACK CFI INIT bb7c4 64 .cfa: sp 0 +
STACK CFI INIT bb828 60 .cfa: sp 0 +
STACK CFI INIT bb888 64 .cfa: sp 0 +
STACK CFI INIT bb8ec 60 .cfa: sp 0 +
STACK CFI INIT bb94c 1f0 .cfa: sp 0 +
STACK CFI INIT bbb3c e8 .cfa: sp 0 +
STACK CFI INIT bbc24 60 .cfa: sp 0 +
STACK CFI INIT bbc84 60 .cfa: sp 0 +
STACK CFI INIT bbce4 50 .cfa: sp 0 +
STACK CFI INIT bbd34 1f0 .cfa: sp 0 +
STACK CFI INIT bbf24 35c .cfa: sp 0 +
STACK CFI INIT bc520 cc .cfa: sp 0 +
STACK CFI INIT bc5ec 74 .cfa: sp 0 +
STACK CFI INIT bc910 bc .cfa: sp 0 +
STACK CFI INIT bcac4 c .cfa: sp 0 +
STACK CFI INIT bcad0 c .cfa: sp 0 +
STACK CFI INIT bcadc 10 .cfa: sp 0 +
STACK CFI INIT bcaec 10 .cfa: sp 0 +
STACK CFI INIT bcafc 10 .cfa: sp 0 +
STACK CFI INIT bcb0c 14 .cfa: sp 0 +
STACK CFI INIT bcb20 c .cfa: sp 0 +
STACK CFI INIT bcb2c 10 .cfa: sp 0 +
STACK CFI INIT bcb3c 10 .cfa: sp 0 +
STACK CFI INIT bcb4c c .cfa: sp 0 +
STACK CFI INIT bcb58 c .cfa: sp 0 +
STACK CFI INIT bcb64 10 .cfa: sp 0 +
STACK CFI INIT bcb74 10 .cfa: sp 0 +
STACK CFI INIT bcb84 10 .cfa: sp 0 +
STACK CFI INIT bcb94 14 .cfa: sp 0 +
STACK CFI INIT bcba8 c .cfa: sp 0 +
STACK CFI INIT bcbb4 10 .cfa: sp 0 +
STACK CFI INIT bcbc4 10 .cfa: sp 0 +
STACK CFI INIT bcbd4 c .cfa: sp 0 +
STACK CFI INIT bcbe0 c .cfa: sp 0 +
STACK CFI INIT bcbec 10 .cfa: sp 0 +
STACK CFI INIT bcbfc 10 .cfa: sp 0 +
STACK CFI INIT bcc0c 10 .cfa: sp 0 +
STACK CFI INIT bcc1c 1c .cfa: sp 0 +
STACK CFI INIT bcc38 c .cfa: sp 0 +
STACK CFI INIT bcc44 10 .cfa: sp 0 +
STACK CFI INIT bcc54 10 .cfa: sp 0 +
STACK CFI INIT bcc64 c .cfa: sp 0 +
STACK CFI INIT bcc70 c .cfa: sp 0 +
STACK CFI INIT bcc7c 10 .cfa: sp 0 +
STACK CFI INIT bcc8c 10 .cfa: sp 0 +
STACK CFI INIT bcc9c 10 .cfa: sp 0 +
STACK CFI INIT bccac 1c .cfa: sp 0 +
STACK CFI INIT bccc8 c .cfa: sp 0 +
STACK CFI INIT bccd4 10 .cfa: sp 0 +
STACK CFI INIT bcce4 10 .cfa: sp 0 +
STACK CFI INIT bccf4 c .cfa: sp 0 +
STACK CFI INIT bcd00 c .cfa: sp 0 +
STACK CFI INIT bcd0c 30 .cfa: sp 0 +
STACK CFI INIT bcd3c 30 .cfa: sp 0 +
STACK CFI INIT bcd6c 30 .cfa: sp 0 +
STACK CFI INIT bcd9c 30 .cfa: sp 0 +
STACK CFI INIT bcdcc c .cfa: sp 0 +
STACK CFI INIT bcdd8 c .cfa: sp 0 +
STACK CFI INIT bcde4 c .cfa: sp 0 +
STACK CFI INIT bcdf0 c .cfa: sp 0 +
STACK CFI INIT bcdfc c .cfa: sp 0 +
STACK CFI INIT bce08 30 .cfa: sp 0 +
STACK CFI INIT bce38 30 .cfa: sp 0 +
STACK CFI INIT bce68 30 .cfa: sp 0 +
STACK CFI INIT bce98 30 .cfa: sp 0 +
STACK CFI INIT bcec8 c .cfa: sp 0 +
STACK CFI INIT bced4 c .cfa: sp 0 +
STACK CFI INIT bcee0 c .cfa: sp 0 +
STACK CFI INIT bceec c .cfa: sp 0 +
STACK CFI INIT bcef8 c .cfa: sp 0 +
STACK CFI INIT bcf04 30 .cfa: sp 0 +
STACK CFI INIT bcf34 30 .cfa: sp 0 +
STACK CFI INIT bcf64 30 .cfa: sp 0 +
STACK CFI INIT bcf94 30 .cfa: sp 0 +
STACK CFI INIT bcfc4 c .cfa: sp 0 +
STACK CFI INIT bcfd0 c .cfa: sp 0 +
STACK CFI INIT bcfdc c .cfa: sp 0 +
STACK CFI INIT bcfe8 c .cfa: sp 0 +
STACK CFI INIT bcff4 c .cfa: sp 0 +
STACK CFI INIT bd000 30 .cfa: sp 0 +
STACK CFI INIT bd030 30 .cfa: sp 0 +
STACK CFI INIT bd060 30 .cfa: sp 0 +
STACK CFI INIT bd090 30 .cfa: sp 0 +
STACK CFI INIT bd0c0 c .cfa: sp 0 +
STACK CFI INIT bd0cc c .cfa: sp 0 +
STACK CFI INIT bd0d8 c .cfa: sp 0 +
STACK CFI INIT bd428 8 .cfa: sp 0 +
STACK CFI INIT bec60 228 .cfa: sp 0 +
STACK CFI INIT bee88 f8 .cfa: sp 0 +
STACK CFI INIT c0c40 228 .cfa: sp 0 +
STACK CFI INIT c13e0 214 .cfa: sp 0 +
STACK CFI INIT c15f4 46c .cfa: sp 0 +
STACK CFI INIT c229c 214 .cfa: sp 0 +
STACK CFI INIT c24b0 498 .cfa: sp 0 +
STACK CFI INIT c2cdc c .cfa: sp 0 +
STACK CFI INIT c2ce8 2c .cfa: sp 0 +
STACK CFI INIT c2d14 8 .cfa: sp 0 +
STACK CFI INIT c2d1c c .cfa: sp 0 +
STACK CFI INIT c2d28 2c .cfa: sp 0 +
STACK CFI INIT c2d54 8 .cfa: sp 0 +
STACK CFI INIT c2d5c 8 .cfa: sp 0 +
STACK CFI INIT c2d64 2c .cfa: sp 0 +
STACK CFI INIT c2d90 8 .cfa: sp 0 +
STACK CFI INIT c2d98 2c .cfa: sp 0 +
STACK CFI INIT c2dc4 8 .cfa: sp 0 +
STACK CFI INIT c2dcc 2c .cfa: sp 0 +
STACK CFI INIT c2df8 8 .cfa: sp 0 +
STACK CFI INIT c2e00 2c .cfa: sp 0 +
STACK CFI INIT c2e2c 8 .cfa: sp 0 +
STACK CFI INIT c2e34 2c .cfa: sp 0 +
STACK CFI INIT c2e60 8 .cfa: sp 0 +
STACK CFI INIT c2e68 2c .cfa: sp 0 +
STACK CFI INIT c2e94 13c .cfa: sp 0 +
STACK CFI INIT c2fd0 a8 .cfa: sp 0 +
STACK CFI INIT ca584 d4 .cfa: sp 0 +
STACK CFI INIT ca658 2c .cfa: sp 0 +
STACK CFI INIT ca7b0 40 .cfa: sp 0 +
STACK CFI INIT ca7f0 60 .cfa: sp 0 +
STACK CFI INIT ca850 88 .cfa: sp 0 +
STACK CFI INIT cacbc 30 .cfa: sp 0 +
STACK CFI INIT caf8c 90 .cfa: sp 0 +
STACK CFI INIT cb01c 68 .cfa: sp 0 +
STACK CFI INIT cb084 88 .cfa: sp 0 +
STACK CFI INIT cb10c f0 .cfa: sp 0 +
STACK CFI INIT cb1fc 2c .cfa: sp 0 +
STACK CFI INIT cb228 10 .cfa: sp 0 +
STACK CFI INIT cb310 64 .cfa: sp 0 +
STACK CFI INIT cb47c 2c .cfa: sp 0 +
STACK CFI INIT cba5c 2c .cfa: sp 0 +
STACK CFI INIT cbed4 2c .cfa: sp 0 +
STACK CFI INIT cbf00 2c .cfa: sp 0 +
STACK CFI INIT cbf2c 10 .cfa: sp 0 +
STACK CFI INIT cbf3c 4c .cfa: sp 0 +
STACK CFI INIT cbf88 4c .cfa: sp 0 +
STACK CFI INIT cbfd4 44 .cfa: sp 0 +
STACK CFI INIT cc310 c .cfa: sp 0 +
STACK CFI INIT cc31c 130 .cfa: sp 0 +
STACK CFI INIT cc44c 10 .cfa: sp 0 +
STACK CFI INIT cc45c 188 .cfa: sp 0 +
STACK CFI INIT cc5e4 38 .cfa: sp 0 +
STACK CFI INIT cc61c 54 .cfa: sp 0 +
STACK CFI INIT cc670 2c .cfa: sp 0 +
STACK CFI INIT cc98c c .cfa: sp 0 +
STACK CFI INIT cc998 d0 .cfa: sp 0 +
STACK CFI INIT cca68 14 .cfa: sp 0 +
STACK CFI INIT cca7c f8 .cfa: sp 0 +
STACK CFI INIT ccd30 2c .cfa: sp 0 +
STACK CFI INIT ccd5c 1c .cfa: sp 0 +
STACK CFI INIT ccd78 1ac .cfa: sp 0 +
STACK CFI INIT ccf24 1c .cfa: sp 0 +
STACK CFI INIT ccf40 1ac .cfa: sp 0 +
STACK CFI INIT cd288 2c .cfa: sp 0 +
STACK CFI INIT cd2b4 154 .cfa: sp 0 +
STACK CFI INIT cd408 19c .cfa: sp 0 +
STACK CFI INIT cd5a4 130 .cfa: sp 0 +
STACK CFI INIT cd6d4 130 .cfa: sp 0 +
STACK CFI INIT cd804 14 .cfa: sp 0 +
STACK CFI INIT cd818 5c .cfa: sp 0 +
STACK CFI INIT cd874 14 .cfa: sp 0 +
STACK CFI INIT cd888 5c .cfa: sp 0 +
STACK CFI INIT cdb40 2c .cfa: sp 0 +
STACK CFI INIT cdb6c 14 .cfa: sp 0 +
STACK CFI INIT cdb80 14 .cfa: sp 0 +
STACK CFI INIT cdb94 10 .cfa: sp 0 +
STACK CFI INIT cdba4 c .cfa: sp 0 +
STACK CFI INIT cdbb0 c .cfa: sp 0 +
STACK CFI INIT cdbbc 14 .cfa: sp 0 +
STACK CFI INIT cdbd0 c .cfa: sp 0 +
STACK CFI INIT cdd60 2c .cfa: sp 0 +
STACK CFI INIT ce4a8 c .cfa: sp 0 +
STACK CFI INIT ce624 2c .cfa: sp 0 +
STACK CFI INIT ce650 68 .cfa: sp 0 +
STACK CFI INIT ce6b8 25c .cfa: sp 0 +
STACK CFI INIT ce914 68 .cfa: sp 0 +
STACK CFI INIT ce97c 294 .cfa: sp 0 +
STACK CFI INIT cec10 10 .cfa: sp 0 +
STACK CFI INIT cec20 c .cfa: sp 0 +
STACK CFI INIT cec2c c .cfa: sp 0 +
STACK CFI INIT cec38 1c .cfa: sp 0 +
STACK CFI INIT cec54 200 .cfa: sp 0 +
STACK CFI INIT cee54 c .cfa: sp 0 +
STACK CFI INIT cee60 2c .cfa: sp 0 +
STACK CFI INIT cee8c 68 .cfa: sp 0 +
STACK CFI INIT ceef4 68 .cfa: sp 0 +
STACK CFI INIT cef5c 10 .cfa: sp 0 +
STACK CFI INIT cef6c c .cfa: sp 0 +
STACK CFI INIT cef78 c .cfa: sp 0 +
STACK CFI INIT cef84 1c .cfa: sp 0 +
STACK CFI INIT cefa0 c .cfa: sp 0 +
STACK CFI INIT cefac 2c .cfa: sp 0 +
STACK CFI INIT cefd8 128 .cfa: sp 0 +
STACK CFI INIT cf100 188 .cfa: sp 0 +
STACK CFI INIT cf288 68 .cfa: sp 0 +
STACK CFI INIT cf2f0 244 .cfa: sp 0 +
STACK CFI INIT cf534 10 .cfa: sp 0 +
STACK CFI INIT cf544 c .cfa: sp 0 +
STACK CFI INIT cf550 c .cfa: sp 0 +
STACK CFI INIT cf55c 1c .cfa: sp 0 +
STACK CFI INIT cf578 1e4 .cfa: sp 0 +
STACK CFI INIT cf75c c .cfa: sp 0 +
STACK CFI INIT cf768 2c .cfa: sp 0 +
STACK CFI INIT cf794 128 .cfa: sp 0 +
STACK CFI INIT cf8bc 68 .cfa: sp 0 +
STACK CFI INIT cf924 10 .cfa: sp 0 +
STACK CFI INIT cf934 c .cfa: sp 0 +
STACK CFI INIT cf940 c .cfa: sp 0 +
STACK CFI INIT cf94c 1c .cfa: sp 0 +
STACK CFI INIT cf968 c .cfa: sp 0 +
STACK CFI INIT cf974 70 .cfa: sp 0 +
STACK CFI INIT cf9e4 70 .cfa: sp 0 +
STACK CFI INIT cfa54 10 .cfa: sp 0 +
STACK CFI INIT cfa64 c .cfa: sp 0 +
STACK CFI INIT cfa70 c .cfa: sp 0 +
STACK CFI INIT cfa7c 20 .cfa: sp 0 +
STACK CFI INIT cfa9c 1c .cfa: sp 0 +
STACK CFI INIT cfab8 10c .cfa: sp 0 +
STACK CFI INIT cfbc4 190 .cfa: sp 0 +
STACK CFI INIT cfd54 10 .cfa: sp 0 +
STACK CFI INIT cfd64 c .cfa: sp 0 +
STACK CFI INIT cfd70 c .cfa: sp 0 +
STACK CFI INIT cfd7c 16c .cfa: sp 0 +
STACK CFI INIT cfee8 1c .cfa: sp 0 +
STACK CFI INIT cff04 70 .cfa: sp 0 +
STACK CFI INIT cff74 70 .cfa: sp 0 +
STACK CFI INIT cffe4 10 .cfa: sp 0 +
STACK CFI INIT cfff4 c .cfa: sp 0 +
STACK CFI INIT d0000 c .cfa: sp 0 +
STACK CFI INIT d000c 20 .cfa: sp 0 +
STACK CFI INIT d002c 1c .cfa: sp 0 +
STACK CFI INIT d0048 e4 .cfa: sp 0 +
STACK CFI INIT d012c fc .cfa: sp 0 +
STACK CFI INIT d0228 10 .cfa: sp 0 +
STACK CFI INIT d0238 c .cfa: sp 0 +
STACK CFI INIT d0244 c .cfa: sp 0 +
STACK CFI INIT d0250 20 .cfa: sp 0 +
STACK CFI INIT d0270 e8 .cfa: sp 0 +
STACK CFI INIT d0358 1c .cfa: sp 0 +
STACK CFI INIT d0374 d4 .cfa: sp 0 +
STACK CFI INIT d0448 fc .cfa: sp 0 +
STACK CFI INIT d0544 10 .cfa: sp 0 +
STACK CFI INIT d0554 c .cfa: sp 0 +
STACK CFI INIT d0560 c .cfa: sp 0 +
STACK CFI INIT d056c 20 .cfa: sp 0 +
STACK CFI INIT d058c e8 .cfa: sp 0 +
STACK CFI INIT d0674 1c .cfa: sp 0 +
STACK CFI INIT d0690 9c .cfa: sp 0 +
STACK CFI INIT d072c 94 .cfa: sp 0 +
STACK CFI INIT d07c0 10 .cfa: sp 0 +
STACK CFI INIT d07d0 c .cfa: sp 0 +
STACK CFI INIT d07dc c .cfa: sp 0 +
STACK CFI INIT d07e8 94 .cfa: sp 0 +
STACK CFI INIT d087c 1c .cfa: sp 0 +
STACK CFI INIT d0898 9c .cfa: sp 0 +
STACK CFI INIT d0934 94 .cfa: sp 0 +
STACK CFI INIT d09c8 10 .cfa: sp 0 +
STACK CFI INIT d09d8 c .cfa: sp 0 +
STACK CFI INIT d09e4 c .cfa: sp 0 +
STACK CFI INIT d09f0 94 .cfa: sp 0 +
STACK CFI INIT d0a84 1c .cfa: sp 0 +
STACK CFI INIT d0aa0 e4 .cfa: sp 0 +
STACK CFI INIT d0b84 fc .cfa: sp 0 +
STACK CFI INIT d0c80 10 .cfa: sp 0 +
STACK CFI INIT d0c90 c .cfa: sp 0 +
STACK CFI INIT d0c9c c .cfa: sp 0 +
STACK CFI INIT d0ca8 20 .cfa: sp 0 +
STACK CFI INIT d0cc8 1c .cfa: sp 0 +
STACK CFI INIT d0ce4 d4 .cfa: sp 0 +
STACK CFI INIT d0db8 fc .cfa: sp 0 +
STACK CFI INIT d0eb4 10 .cfa: sp 0 +
STACK CFI INIT d0ec4 c .cfa: sp 0 +
STACK CFI INIT d0ed0 c .cfa: sp 0 +
STACK CFI INIT d0edc 20 .cfa: sp 0 +
STACK CFI INIT d0efc 1c .cfa: sp 0 +
STACK CFI INIT d0f18 70 .cfa: sp 0 +
STACK CFI INIT d0f88 228 .cfa: sp 0 +
STACK CFI INIT d11b0 70 .cfa: sp 0 +
STACK CFI INIT d1220 28c .cfa: sp 0 +
STACK CFI INIT d14ac 10 .cfa: sp 0 +
STACK CFI INIT d14bc c .cfa: sp 0 +
STACK CFI INIT d14c8 c .cfa: sp 0 +
STACK CFI INIT d14d4 20 .cfa: sp 0 +
STACK CFI INIT d14f4 1c .cfa: sp 0 +
STACK CFI INIT d1510 70 .cfa: sp 0 +
STACK CFI INIT d1580 70 .cfa: sp 0 +
STACK CFI INIT d15f0 10 .cfa: sp 0 +
STACK CFI INIT d1600 c .cfa: sp 0 +
STACK CFI INIT d160c c .cfa: sp 0 +
STACK CFI INIT d1618 20 .cfa: sp 0 +
STACK CFI INIT d1638 1c .cfa: sp 0 +
STACK CFI INIT d1654 70 .cfa: sp 0 +
STACK CFI INIT d16c4 70 .cfa: sp 0 +
STACK CFI INIT d1734 10 .cfa: sp 0 +
STACK CFI INIT d1744 c .cfa: sp 0 +
STACK CFI INIT d1750 c .cfa: sp 0 +
STACK CFI INIT d175c 20 .cfa: sp 0 +
STACK CFI INIT d177c 1c .cfa: sp 0 +
STACK CFI INIT d1798 2c .cfa: sp 0 +
STACK CFI INIT d17c4 2c .cfa: sp 0 +
STACK CFI INIT d17f0 2c .cfa: sp 0 +
STACK CFI INIT d181c 2c .cfa: sp 0 +
STACK CFI INIT d1848 2c .cfa: sp 0 +
STACK CFI INIT d1874 30 .cfa: sp 0 +
STACK CFI INIT d18a4 50 .cfa: sp 0 +
STACK CFI INIT d18f4 2c .cfa: sp 0 +
STACK CFI INIT d1920 50 .cfa: sp 0 +
STACK CFI INIT d1970 2c .cfa: sp 0 +
STACK CFI INIT d199c c .cfa: sp 0 +
STACK CFI INIT d19a8 c .cfa: sp 0 +
STACK CFI INIT d19b4 c .cfa: sp 0 +
STACK CFI INIT d19c0 c .cfa: sp 0 +
STACK CFI INIT d19cc 30 .cfa: sp 0 +
STACK CFI INIT d19fc 30 .cfa: sp 0 +
STACK CFI INIT d1a2c 20 .cfa: sp 0 +
STACK CFI INIT d1a4c 24 .cfa: sp 0 +
STACK CFI INIT d1a70 bc .cfa: sp 0 +
STACK CFI INIT d1b2c 24 .cfa: sp 0 +
STACK CFI INIT d1b50 54 .cfa: sp 0 +
STACK CFI INIT d1f48 2c .cfa: sp 0 +
STACK CFI INIT d2280 2c .cfa: sp 0 +
STACK CFI INIT d22ac 44 .cfa: sp 0 +
STACK CFI INIT d22f0 a4 .cfa: sp 0 +
STACK CFI INIT d2394 b8 .cfa: sp 0 +
STACK CFI INIT d244c 6c .cfa: sp 0 +
STACK CFI INIT d24b8 438 .cfa: sp 0 +
STACK CFI INIT d2970 2d4 .cfa: sp 0 +
STACK CFI INIT d2c44 6c .cfa: sp 0 +
STACK CFI INIT d2cb0 6d4 .cfa: sp 0 +
STACK CFI INIT d3404 528 .cfa: sp 0 +
STACK CFI INIT d392c 6c .cfa: sp 0 +
STACK CFI INIT d3998 e0 .cfa: sp 0 +
STACK CFI INIT d3a78 6c .cfa: sp 0 +
STACK CFI INIT d3ae4 e4 .cfa: sp 0 +
STACK CFI INIT d3bc8 6c .cfa: sp 0 +
STACK CFI INIT d3cd4 6c .cfa: sp 0 +
STACK CFI INIT d3de0 6c .cfa: sp 0 +
STACK CFI INIT d3eec 6c .cfa: sp 0 +
STACK CFI INIT d644c 278 .cfa: sp 0 +
STACK CFI INIT d7d20 298 .cfa: sp 0 +
STACK CFI INIT d7fb8 298 .cfa: sp 0 +
STACK CFI INIT d8848 52c .cfa: sp 0 +
STACK CFI INIT d9910 548 .cfa: sp 0 +
STACK CFI INIT da60c 2c .cfa: sp 0 +
STACK CFI INIT da638 2c .cfa: sp 0 +
STACK CFI INIT da664 2c .cfa: sp 0 +
STACK CFI INIT da690 2c .cfa: sp 0 +
STACK CFI INIT da6bc 2c .cfa: sp 0 +
STACK CFI INIT da6e8 2c .cfa: sp 0 +
STACK CFI INIT da714 2c .cfa: sp 0 +
STACK CFI INIT da740 2c .cfa: sp 0 +
STACK CFI INIT da76c 2c .cfa: sp 0 +
STACK CFI INIT da858 2c .cfa: sp 0 +
STACK CFI INIT da884 2c .cfa: sp 0 +
STACK CFI INIT da8b0 2c .cfa: sp 0 +
STACK CFI INIT da8dc 2c .cfa: sp 0 +
STACK CFI INIT da908 2c .cfa: sp 0 +
STACK CFI INIT da934 2c .cfa: sp 0 +
STACK CFI INIT da960 2c .cfa: sp 0 +
STACK CFI INIT da98c 8 .cfa: sp 0 +
STACK CFI INIT da994 2c .cfa: sp 0 +
STACK CFI INIT da9c0 8 .cfa: sp 0 +
STACK CFI INIT da9c8 2c .cfa: sp 0 +
STACK CFI INIT da9f4 30 .cfa: sp 0 +
STACK CFI INIT daa24 38 .cfa: sp 0 +
STACK CFI INIT daa5c c .cfa: sp 0 +
STACK CFI INIT daa68 c .cfa: sp 0 +
STACK CFI INIT daa74 c .cfa: sp 0 +
STACK CFI INIT daa80 c .cfa: sp 0 +
STACK CFI INIT daa8c c .cfa: sp 0 +
STACK CFI INIT daa98 c .cfa: sp 0 +
STACK CFI INIT daaa4 c .cfa: sp 0 +
STACK CFI INIT daab0 c .cfa: sp 0 +
STACK CFI INIT daabc c .cfa: sp 0 +
STACK CFI INIT daac8 c .cfa: sp 0 +
STACK CFI INIT daad4 c .cfa: sp 0 +
STACK CFI INIT daae0 c .cfa: sp 0 +
STACK CFI INIT daaec c .cfa: sp 0 +
STACK CFI INIT daaf8 c .cfa: sp 0 +
STACK CFI INIT dab04 c .cfa: sp 0 +
STACK CFI INIT dab10 30 .cfa: sp 0 +
STACK CFI INIT dab40 38 .cfa: sp 0 +
STACK CFI INIT dab78 c .cfa: sp 0 +
STACK CFI INIT dab84 c .cfa: sp 0 +
STACK CFI INIT dab90 c .cfa: sp 0 +
STACK CFI INIT dab9c c .cfa: sp 0 +
STACK CFI INIT daba8 c .cfa: sp 0 +
STACK CFI INIT dabb4 c .cfa: sp 0 +
STACK CFI INIT dabc0 c .cfa: sp 0 +
STACK CFI INIT dabcc c .cfa: sp 0 +
STACK CFI INIT dabd8 c .cfa: sp 0 +
STACK CFI INIT dabe4 c .cfa: sp 0 +
STACK CFI INIT dabf0 c .cfa: sp 0 +
STACK CFI INIT dabfc c .cfa: sp 0 +
STACK CFI INIT dac08 c .cfa: sp 0 +
STACK CFI INIT dac14 c .cfa: sp 0 +
STACK CFI INIT dac20 c .cfa: sp 0 +
STACK CFI INIT dac2c 38 .cfa: sp 0 +
STACK CFI INIT dac64 38 .cfa: sp 0 +
STACK CFI INIT dac9c 30 .cfa: sp 0 +
STACK CFI INIT daccc 38 .cfa: sp 0 +
STACK CFI INIT dad04 30 .cfa: sp 0 +
STACK CFI INIT dad34 38 .cfa: sp 0 +
STACK CFI INIT dad6c 2c .cfa: sp 0 +
STACK CFI INIT dad98 2c .cfa: sp 0 +
STACK CFI INIT dadc4 2c .cfa: sp 0 +
STACK CFI INIT dadf0 2c .cfa: sp 0 +
STACK CFI INIT dae1c 94 .cfa: sp 0 +
STACK CFI INIT daeb0 2c .cfa: sp 0 +
STACK CFI INIT daedc 94 .cfa: sp 0 +
STACK CFI INIT daf70 2c .cfa: sp 0 +
STACK CFI INIT daf9c 94 .cfa: sp 0 +
STACK CFI INIT db030 2c .cfa: sp 0 +
STACK CFI INIT db05c 94 .cfa: sp 0 +
STACK CFI INIT db0f0 2c .cfa: sp 0 +
STACK CFI INIT db11c 2c .cfa: sp 0 +
STACK CFI INIT db148 2c .cfa: sp 0 +
STACK CFI INIT db174 2c .cfa: sp 0 +
STACK CFI INIT db1a0 2c .cfa: sp 0 +
STACK CFI INIT db1cc 2c .cfa: sp 0 +
STACK CFI INIT db1f8 2c .cfa: sp 0 +
STACK CFI INIT db224 2c .cfa: sp 0 +
STACK CFI INIT db250 8 .cfa: sp 0 +
STACK CFI INIT db258 2c .cfa: sp 0 +
STACK CFI INIT db2ac 18 .cfa: sp 0 +
STACK CFI INIT db2c4 15c .cfa: sp 0 +
STACK CFI INIT db420 15c .cfa: sp 0 +
STACK CFI INIT db57c 170 .cfa: sp 0 +
STACK CFI INIT db6ec 170 .cfa: sp 0 +
STACK CFI INIT db85c 50 .cfa: sp 0 +
STACK CFI INIT db8ac 50 .cfa: sp 0 +
STACK CFI INIT db8fc 4c .cfa: sp 0 +
STACK CFI INIT db948 4c .cfa: sp 0 +
STACK CFI INIT db994 44 .cfa: sp 0 +
STACK CFI INIT dba94 58 .cfa: sp 0 +
STACK CFI INIT dbaec 5c .cfa: sp 0 +
STACK CFI INIT dcbf8 6c .cfa: sp 0 +
STACK CFI INIT dcc64 8 .cfa: sp 0 +
STACK CFI INIT dcc6c 2c .cfa: sp 0 +
STACK CFI INIT dcc98 a8 .cfa: sp 0 +
STACK CFI INIT dcd40 bc .cfa: sp 0 +
STACK CFI INIT dcdfc 50 .cfa: sp 0 +
STACK CFI INIT dce4c 58 .cfa: sp 0 +
STACK CFI INIT dd530 10 .cfa: sp 0 +
STACK CFI INIT dd8e0 60 .cfa: sp 0 +
STACK CFI INIT dd940 a4 .cfa: sp 0 +
STACK CFI INIT ddc20 10 .cfa: sp 0 +
STACK CFI INIT ddc30 14 .cfa: sp 0 +
STACK CFI INIT ddc44 50 .cfa: sp 0 +
STACK CFI INIT ddc94 74 .cfa: sp 0 +
STACK CFI INIT de0cc 5c .cfa: sp 0 +
STACK CFI INIT de128 bc .cfa: sp 0 +
STACK CFI INIT de628 15c .cfa: sp 0 +
STACK CFI INIT de874 5c .cfa: sp 0 +
STACK CFI INIT de9bc 14 .cfa: sp 0 +
STACK CFI INIT de9d0 38 .cfa: sp 0 +
STACK CFI INIT dea08 70 .cfa: sp 0 +
STACK CFI INIT dea78 8 .cfa: sp 0 +
STACK CFI INIT dedc8 14 .cfa: sp 0 +
STACK CFI INIT deddc 38 .cfa: sp 0 +
STACK CFI INIT dee14 60 .cfa: sp 0 +
STACK CFI INIT dee74 8 .cfa: sp 0 +
STACK CFI INIT dee7c 14 .cfa: sp 0 +
STACK CFI INIT dee90 38 .cfa: sp 0 +
STACK CFI INIT deec8 8c .cfa: sp 0 +
STACK CFI INIT def54 8 .cfa: sp 0 +
STACK CFI INIT def5c 160 .cfa: sp 0 +
STACK CFI INIT df548 190 .cfa: sp 0 +
STACK CFI INIT df6d8 194 .cfa: sp 0 +
STACK CFI INIT df86c 194 .cfa: sp 0 +
STACK CFI INIT dfa00 e8 .cfa: sp 0 +
STACK CFI INIT dfae8 68 .cfa: sp 0 +
STACK CFI INIT dfb50 2c .cfa: sp 0 +
STACK CFI INIT dfb7c e4 .cfa: sp 0 +
STACK CFI INIT dfc60 20 .cfa: sp 0 +
STACK CFI INIT e0750 138 .cfa: sp 0 +
STACK CFI INIT e0888 138 .cfa: sp 0 +
STACK CFI INIT e09c0 44 .cfa: sp 0 +
STACK CFI INIT e0a88 a4 .cfa: sp 0 +
STACK CFI INIT e0b2c a4 .cfa: sp 0 +
STACK CFI INIT e0f50 cc .cfa: sp 0 +
STACK CFI INIT e1340 48 .cfa: sp 0 +
STACK CFI INIT e1454 74 .cfa: sp 0 +
STACK CFI INIT e14c8 70 .cfa: sp 0 +
STACK CFI INIT e1538 8c .cfa: sp 0 +
STACK CFI INIT e1b8c a4 .cfa: sp 0 +
STACK CFI INIT e1e20 88 .cfa: sp 0 +
STACK CFI INIT e208c c8 .cfa: sp 0 +
STACK CFI INIT e2254 90 .cfa: sp 0 +
STACK CFI INIT e22e4 14c .cfa: sp 0 +
STACK CFI INIT e2430 100 .cfa: sp 0 +
STACK CFI INIT e2634 194 .cfa: sp 0 +
STACK CFI INIT e27c8 128 .cfa: sp 0 +
STACK CFI INIT e28f0 9c .cfa: sp 0 +
STACK CFI INIT e298c 84 .cfa: sp 0 +
STACK CFI INIT e2d8c a4 .cfa: sp 0 +
STACK CFI INIT e2e30 98 .cfa: sp 0 +
STACK CFI INIT e2ec8 134 .cfa: sp 0 +
STACK CFI INIT e2ffc 2c .cfa: sp 0 +
STACK CFI INIT e3028 2c .cfa: sp 0 +
STACK CFI INIT e3824 18 .cfa: sp 0 +
STACK CFI INIT e383c 148 .cfa: sp 0 +
STACK CFI INIT e3de4 8 .cfa: sp 0 +
STACK CFI INIT e3dec 2c .cfa: sp 0 +
STACK CFI INIT e3e18 10 .cfa: sp 0 +
STACK CFI INIT e3e28 2c .cfa: sp 0 +
STACK CFI INIT e3e54 10 .cfa: sp 0 +
STACK CFI INIT e3e64 18 .cfa: sp 0 +
STACK CFI INIT e3e7c 2c .cfa: sp 0 +
STACK CFI INIT e3ea8 10 .cfa: sp 0 +
STACK CFI INIT e3eb8 18 .cfa: sp 0 +
STACK CFI INIT e3ed0 2c .cfa: sp 0 +
STACK CFI INIT e3efc 10 .cfa: sp 0 +
STACK CFI INIT e3f0c 58 .cfa: sp 0 +
STACK CFI INIT e3f64 2c .cfa: sp 0 +
STACK CFI INIT e3f90 c .cfa: sp 0 +
STACK CFI INIT e3f9c 58 .cfa: sp 0 +
STACK CFI INIT e3ff4 2c .cfa: sp 0 +
STACK CFI INIT e4020 c .cfa: sp 0 +
STACK CFI INIT e402c 2c .cfa: sp 0 +
STACK CFI INIT e4058 2c .cfa: sp 0 +
STACK CFI INIT e4084 2c .cfa: sp 0 +
STACK CFI INIT e40b0 2c .cfa: sp 0 +
STACK CFI INIT e40dc 2c .cfa: sp 0 +
STACK CFI INIT e4108 2c .cfa: sp 0 +
STACK CFI INIT e4134 2c .cfa: sp 0 +
STACK CFI INIT e4160 8 .cfa: sp 0 +
STACK CFI INIT e4168 2c .cfa: sp 0 +
STACK CFI INIT e4194 18 .cfa: sp 0 +
STACK CFI INIT e41ac 8 .cfa: sp 0 +
STACK CFI INIT e41b4 2c .cfa: sp 0 +
STACK CFI INIT e41e0 10 .cfa: sp 0 +
STACK CFI INIT e41f0 18 .cfa: sp 0 +
STACK CFI INIT e4208 8 .cfa: sp 0 +
STACK CFI INIT e4210 2c .cfa: sp 0 +
STACK CFI INIT e423c 10 .cfa: sp 0 +
STACK CFI INIT e424c 8 .cfa: sp 0 +
STACK CFI INIT e4254 8 .cfa: sp 0 +
STACK CFI INIT e425c 8 .cfa: sp 0 +
STACK CFI INIT e4264 8 .cfa: sp 0 +
STACK CFI INIT e426c 2c .cfa: sp 0 +
STACK CFI INIT e4298 2c .cfa: sp 0 +
STACK CFI INIT e42c4 2c .cfa: sp 0 +
STACK CFI INIT e42f0 2c .cfa: sp 0 +
STACK CFI INIT e431c 2c .cfa: sp 0 +
STACK CFI INIT e4348 2c .cfa: sp 0 +
STACK CFI INIT e4374 2c .cfa: sp 0 +
STACK CFI INIT e43a0 2c .cfa: sp 0 +
STACK CFI INIT e43cc 2c .cfa: sp 0 +
STACK CFI INIT e43f8 2c .cfa: sp 0 +
STACK CFI INIT e4424 18 .cfa: sp 0 +
STACK CFI INIT e443c c .cfa: sp 0 +
STACK CFI INIT e4448 c .cfa: sp 0 +
STACK CFI INIT e4454 18 .cfa: sp 0 +
STACK CFI INIT e446c ec .cfa: sp 0 +
STACK CFI INIT e4558 20c .cfa: sp 0 +
STACK CFI INIT e4764 88 .cfa: sp 0 +
STACK CFI INIT e47ec 94 .cfa: sp 0 +
STACK CFI INIT e4880 1d0 .cfa: sp 0 +
STACK CFI INIT e4a50 ac .cfa: sp 0 +
STACK CFI INIT e4afc 2bc .cfa: sp 0 +
STACK CFI INIT e4db8 f4 .cfa: sp 0 +
STACK CFI INIT e4eac a0 .cfa: sp 0 +
STACK CFI INIT e4f4c 16c .cfa: sp 0 +
STACK CFI INIT e50b8 3b0 .cfa: sp 0 +
STACK CFI INIT e5468 1b0 .cfa: sp 0 +
STACK CFI INIT e5618 128 .cfa: sp 0 +
STACK CFI INIT e5740 234 .cfa: sp 0 +
STACK CFI INIT e5974 144 .cfa: sp 0 +
STACK CFI INIT e5ab8 104 .cfa: sp 0 +
STACK CFI INIT e5bbc 104 .cfa: sp 0 +
STACK CFI INIT e7940 6c .cfa: sp 0 +
STACK CFI INIT e79ac 8 .cfa: sp 0 +
STACK CFI INIT e5d20 8 .cfa: sp 0 +
STACK CFI INIT e5d28 8 .cfa: sp 0 +
STACK CFI INIT e5d30 8 .cfa: sp 0 +
STACK CFI INIT e5d38 8 .cfa: sp 0 +
STACK CFI INIT e5d40 8 .cfa: sp 0 +
STACK CFI INIT e5d48 8 .cfa: sp 0 +
STACK CFI INIT e79b4 90 .cfa: sp 0 +
STACK CFI INIT e7a44 8 .cfa: sp 0 +
STACK CFI INIT e5db0 8 .cfa: sp 0 +
STACK CFI INIT e5db8 8 .cfa: sp 0 +
STACK CFI INIT e5dc0 c .cfa: sp 0 +
STACK CFI INIT e5dcc 8 .cfa: sp 0 +
STACK CFI INIT e5dd4 8 .cfa: sp 0 +
STACK CFI INIT e5ddc c .cfa: sp 0 +
STACK CFI INIT e5de8 c .cfa: sp 0 +
STACK CFI INIT e5df4 24 .cfa: sp 0 +
STACK CFI INIT e5f28 70 .cfa: sp 0 +
STACK CFI INIT e6000 3c .cfa: sp 0 +
STACK CFI INIT e603c 8 .cfa: sp 0 +
STACK CFI INIT e6044 5c .cfa: sp 0 +
STACK CFI INIT e60a0 24 .cfa: sp 0 +
STACK CFI INIT e60c4 c .cfa: sp 0 +
STACK CFI INIT e6218 50 .cfa: sp 0 +
STACK CFI INIT e634c 2c .cfa: sp 0 +
STACK CFI INIT e65e4 4c .cfa: sp 0 +
STACK CFI INIT e67b8 2c .cfa: sp 0 +
STACK CFI INIT e68e8 14 .cfa: sp 0 +
STACK CFI INIT e693c 1c .cfa: sp 0 +
STACK CFI INIT e6958 1c .cfa: sp 0 +
STACK CFI INIT e6974 14 .cfa: sp 0 +
STACK CFI INIT e69b8 14 .cfa: sp 0 +
STACK CFI INIT e6b18 20 .cfa: sp 0 +
STACK CFI INIT e6b38 34 .cfa: sp 0 +
STACK CFI INIT e6b6c 34 .cfa: sp 0 +
STACK CFI INIT e6ba0 24 .cfa: sp 0 +
STACK CFI INIT e6bc4 8 .cfa: sp 0 +
STACK CFI INIT e6bcc 8 .cfa: sp 0 +
STACK CFI INIT e6cec 3c .cfa: sp 0 +
STACK CFI INIT e6d94 68 .cfa: sp 0 +
STACK CFI INIT e6dfc a0 .cfa: sp 0 +
STACK CFI e6e08 .cfa: sp 32 +
STACK CFI e6e60 .cfa: sp 0 +
STACK CFI e6e64 .cfa: sp 32 +
STACK CFI e6e6c .cfa: sp 0 +
STACK CFI e6e70 .cfa: sp 32 +
STACK CFI e6e84 .cfa: sp 0 +
STACK CFI e6e88 .cfa: sp 32 +
STACK CFI e6e98 .cfa: sp 0 +
STACK CFI INIT e6e9c 38 .cfa: sp 0 +
STACK CFI e6ea8 .cfa: sp 32 +
STACK CFI e6ed0 .cfa: sp 0 +
STACK CFI INIT e6ed4 58 .cfa: sp 0 +
STACK CFI INIT e6f2c 24c .cfa: sp 0 +
STACK CFI INIT e7178 c .cfa: sp 0 +
STACK CFI INIT e7184 1ec .cfa: sp 0 +
STACK CFI INIT e7370 3c .cfa: sp 0 +
STACK CFI INIT e73ac 3c .cfa: sp 0 +
STACK CFI INIT e73e8 88 .cfa: sp 0 +
STACK CFI INIT e7470 34 .cfa: sp 0 +
STACK CFI INIT e74a4 98 .cfa: sp 0 +
STACK CFI INIT e753c 2ac .cfa: sp 0 +
STACK CFI INIT e77e8 8c .cfa: sp 0 +
STACK CFI INIT e7880 2c .cfa: sp 0 +
STACK CFI INIT e78b0 30 .cfa: sp 0 +
STACK CFI INIT e78e0 30 .cfa: sp 0 +
STACK CFI INIT e7910 30 .cfa: sp 0 +
STACK CFI INIT 71cc0 27c .cfa: sp 0 +
STACK CFI 71cc4 .cfa: sp 112 +
STACK CFI 71cd4 .cfa: x29 48 + x19: .cfa -8 + ^ x20: .cfa -16 + ^ x21: .cfa -24 + ^ x22: .cfa -32 + ^ .ra: .cfa -40 + ^ x29: .cfa -48 + ^
STACK CFI 71ebc .cfa: sp 112 +
STACK CFI 71ecc .cfa: sp 0 +
STACK CFI 71ed0 .cfa: x29 48 +
STACK CFI INIT 71f3c d0 .cfa: sp 0 +
STACK CFI 71f40 .cfa: sp 80 +
STACK CFI 71f54 .cfa: x29 64 + x19: .cfa -8 + ^ x20: .cfa -16 + ^ x21: .cfa -24 + ^ x22: .cfa -32 + ^ x23: .cfa -40 + ^ x24: .cfa -48 + ^ .ra: .cfa -56 + ^ x29: .cfa -64 + ^
STACK CFI 71fcc .cfa: sp 80 +
STACK CFI 71fe0 .cfa: sp 0 +
STACK CFI 71fe4 .cfa: x29 64 +
STACK CFI INIT 7200c 184 .cfa: sp 0 +
STACK CFI 72010 .cfa: sp 96 +
STACK CFI 72020 .cfa: x29 48 + x19: .cfa -8 + ^ x20: .cfa -16 + ^ x21: .cfa -24 + ^ x22: .cfa -32 + ^ .ra: .cfa -40 + ^ x29: .cfa -48 + ^
STACK CFI 7210c .cfa: sp 96 +
STACK CFI 7211c .cfa: sp 0 +
STACK CFI 72120 .cfa: x29 48 +
STACK CFI INIT 72220 50 .cfa: sp 0 +
STACK CFI 72224 .cfa: sp 32 +
STACK CFI 7222c .cfa: x29 32 + x19: .cfa -8 + ^ x20: .cfa -16 + ^ .ra: .cfa -24 + ^ x29: .cfa -32 + ^
STACK CFI INIT 724e4 168 .cfa: sp 0 +
STACK CFI 724e8 .cfa: sp 160 +
STACK CFI 724f8 .cfa: x29 48 + x19: .cfa -8 + ^ x20: .cfa -16 + ^ x21: .cfa -32 + ^ .ra: .cfa -40 + ^ x29: .cfa -48 + ^
STACK CFI 725f0 .cfa: sp 160 +
STACK CFI 72600 .cfa: sp 0 +
STACK CFI 72604 .cfa: x29 48 +
STACK CFI INIT 7264c 74 .cfa: sp 0 +
STACK CFI 72650 .cfa: sp 48 +
STACK CFI 7265c .cfa: x29 32 + x19: .cfa -8 + ^ x20: .cfa -16 + ^ .ra: .cfa -24 + ^ x29: .cfa -32 + ^
STACK CFI 726a8 .cfa: sp 48 +
STACK CFI 726b4 .cfa: sp 0 +
STACK CFI 726b8 .cfa: x29 32 +
STACK CFI INIT 726f4 128 .cfa: sp 0 +
STACK CFI 726f8 .cfa: sp 80 +
STACK CFI 7270c .cfa: x29 80 + x19: .cfa -8 + ^ x20: .cfa -16 + ^ x21: .cfa -24 + ^ x22: .cfa -32 + ^ x23: .cfa -40 + ^ x24: .cfa -48 + ^ x25: .cfa -56 + ^ x26: .cfa -64 + ^ .ra: .cfa -72 + ^ x29: .cfa -80 + ^
STACK CFI 727dc .cfa: sp 80 +
STACK CFI 727f0 .cfa: sp 0 +
STACK CFI 727f4 .cfa: x29 80 +
STACK CFI INIT 728cc 19c .cfa: sp 0 +
STACK CFI 728d0 .cfa: sp 112 +
STACK CFI 728e8 .cfa: x29 80 + x19: .cfa -8 + ^ x20: .cfa -16 + ^ x21: .cfa -24 + ^ x22: .cfa -32 + ^ x23: .cfa -40 + ^ x24: .cfa -48 + ^ x25: .cfa -56 + ^ x26: .cfa -64 + ^ .ra: .cfa -72 + ^ x29: .cfa -80 + ^
STACK CFI 729dc .cfa: sp 112 +
STACK CFI 729f4 .cfa: sp 0 +
STACK CFI 729f8 .cfa: x29 80 +
STACK CFI INIT 72a68 1cc .cfa: sp 0 +
STACK CFI 72a6c .cfa: sp 128 +
STACK CFI 72a88 .cfa: x29 96 + x19: .cfa -8 + ^ x20: .cfa -16 + ^ x21: .cfa -24 + ^ x22: .cfa -32 + ^ x23: .cfa -40 + ^ x24: .cfa -48 + ^ x25: .cfa -56 + ^ x26: .cfa -64 + ^ x27: .cfa -80 + ^ .ra: .cfa -88 + ^ x29: .cfa -96 + ^
STACK CFI 72bdc .cfa: sp 128 +
STACK CFI 72bf8 .cfa: sp 0 +
STACK CFI 72bfc .cfa: x29 96 +
STACK CFI INIT 72c34 164 .cfa: sp 0 +
STACK CFI 72c38 .cfa: sp 48 +
STACK CFI 72c44 .cfa: x29 48 + x19: .cfa -8 + ^ x20: .cfa -16 + ^ x21: .cfa -32 + ^ .ra: .cfa -40 + ^ x29: .cfa -48 + ^
STACK CFI 72d64 .cfa: sp 48 +
STACK CFI 72d70 .cfa: sp 0 +
STACK CFI 72d74 .cfa: x29 48 +
STACK CFI INIT 72f6c 50 .cfa: sp 0 +
STACK CFI 72f70 .cfa: sp 32 +
STACK CFI 72f78 .cfa: x29 32 + x19: .cfa -8 + ^ x20: .cfa -16 + ^ .ra: .cfa -24 + ^ x29: .cfa -32 + ^
STACK CFI INIT 73078 bc .cfa: sp 0 +
STACK CFI 7307c .cfa: sp 64 +
STACK CFI 73088 .cfa: x29 32 + x19: .cfa -8 + ^ x20: .cfa -16 + ^ .ra: .cfa -24 + ^ x29: .cfa -32 + ^
STACK CFI 730c8 .cfa: sp 64 +
STACK CFI 730d4 .cfa: sp 0 +
STACK CFI 730d8 .cfa: x29 32 +
STACK CFI 730fc .cfa: sp 64 +
STACK CFI 73108 .cfa: sp 0 +
STACK CFI 7310c .cfa: x29 32 +
STACK CFI INIT 7315c 3c0 .cfa: sp 0 +
STACK CFI 73160 .cfa: sp 224 +
STACK CFI 7317c .cfa: x29 96 + x19: .cfa -8 + ^ x20: .cfa -16 + ^ x21: .cfa -24 + ^ x22: .cfa -32 + ^ x23: .cfa -40 + ^ x24: .cfa -48 + ^ x25: .cfa -56 + ^ x26: .cfa -64 + ^ x27: .cfa -72 + ^ x28: .cfa -80 + ^ .ra: .cfa -88 + ^ x29: .cfa -96 + ^
STACK CFI 73418 .cfa: sp 224 +
STACK CFI 73434 .cfa: sp 0 +
STACK CFI 73438 .cfa: x29 96 +
STACK CFI INIT 7351c 2c8 .cfa: sp 0 +
STACK CFI 73520 .cfa: sp 128 +
STACK CFI 73534 .cfa: x29 64 + x19: .cfa -8 + ^ x20: .cfa -16 + ^ x21: .cfa -24 + ^ x22: .cfa -32 + ^ x23: .cfa -48 + ^ .ra: .cfa -56 + ^ x29: .cfa -64 + ^
STACK CFI 73704 .cfa: sp 128 +
STACK CFI 73718 .cfa: sp 0 +
STACK CFI 7371c .cfa: x29 64 +
STACK CFI INIT 73834 74 .cfa: sp 0 +
STACK CFI 73838 .cfa: sp 48 +
STACK CFI 73844 .cfa: x29 32 + x19: .cfa -8 + ^ x20: .cfa -16 + ^ .ra: .cfa -24 + ^ x29: .cfa -32 + ^
STACK CFI 73890 .cfa: sp 48 +
STACK CFI 7389c .cfa: sp 0 +
STACK CFI 738a0 .cfa: x29 32 +
STACK CFI INIT 73938 16c .cfa: sp 0 +
STACK CFI 7393c .cfa: sp 384 +
STACK CFI 73950 .cfa: x29 64 + x19: .cfa -8 + ^ x20: .cfa -16 + ^ x21: .cfa -24 + ^ x22: .cfa -32 + ^ x23: .cfa -40 + ^ x28: .cfa -48 + ^ .ra: .cfa -56 + ^ x29: .cfa -64 + ^
STACK CFI 73a44 .cfa: sp 384 +
STACK CFI 73a58 .cfa: sp 0 +
STACK CFI 73a5c .cfa: x29 64 +
STACK CFI INIT 73aa4 1b8 .cfa: sp 0 +
STACK CFI 73aa8 .cfa: sp 128 +
STACK CFI 73ac0 .cfa: x29 80 + x19: .cfa -8 + ^ x20: .cfa -16 + ^ x21: .cfa -24 + ^ x22: .cfa -32 + ^ x23: .cfa -40 + ^ x24: .cfa -48 + ^ x25: .cfa -64 + ^ .ra: .cfa -72 + ^ x29: .cfa -80 + ^
STACK CFI 73bec .cfa: sp 128 +
STACK CFI 73c04 .cfa: sp 0 +
STACK CFI 73c08 .cfa: x29 80 +
STACK CFI INIT 74380 13c .cfa: sp 0 +
STACK CFI 74384 .cfa: sp 128 +
STACK CFI 74398 .cfa: x29 64 + x19: .cfa -8 + ^ x20: .cfa -16 + ^ x21: .cfa -24 + ^ x22: .cfa -32 + ^ x23: .cfa -40 + ^ x24: .cfa -48 + ^ .ra: .cfa -56 + ^ x29: .cfa -64 + ^
STACK CFI 7446c .cfa: sp 128 +
STACK CFI 74480 .cfa: sp 0 +
STACK CFI 74484 .cfa: x29 64 +
STACK CFI INIT 744c0 90 .cfa: sp 0 +
STACK CFI 744c4 .cfa: sp 32 +
STACK CFI 744cc .cfa: x29 32 + x19: .cfa -8 + ^ x20: .cfa -16 + ^ .ra: .cfa -24 + ^ x29: .cfa -32 + ^
STACK CFI 744e4 .cfa: sp 32 +
STACK CFI 744ec .cfa: sp 0 +
STACK CFI 744f0 .cfa: x29 32 +
STACK CFI INIT 74a50 498 .cfa: sp 0 +
STACK CFI 74a54 .cfa: sp 112 +
STACK CFI 74a68 .cfa: x29 64 + x19: .cfa -8 + ^ x20: .cfa -16 + ^ x21: .cfa -24 + ^ x22: .cfa -32 + ^ x23: .cfa -48 + ^ .ra: .cfa -56 + ^ x29: .cfa -64 + ^
STACK CFI 74dfc .cfa: sp 112 +
STACK CFI 74e10 .cfa: sp 0 +
STACK CFI 74e14 .cfa: x29 64 +
STACK CFI INIT 74ee8 498 .cfa: sp 0 +
STACK CFI 74eec .cfa: sp 112 +
STACK CFI 74f00 .cfa: x29 64 + x19: .cfa -8 + ^ x20: .cfa -16 + ^ x21: .cfa -24 + ^ x22: .cfa -32 + ^ x23: .cfa -48 + ^ .ra: .cfa -56 + ^ x29: .cfa -64 + ^
STACK CFI 75294 .cfa: sp 112 +
STACK CFI 752a8 .cfa: sp 0 +
STACK CFI 752ac .cfa: x29 64 +
STACK CFI INIT 75380 800 .cfa: sp 0 +
STACK CFI 75384 .cfa: sp 208 +
STACK CFI 753a4 .cfa: x29 96 + x19: .cfa -8 + ^ x20: .cfa -16 + ^ x21: .cfa -24 + ^ x22: .cfa -32 + ^ x23: .cfa -40 + ^ x24: .cfa -48 + ^ x25: .cfa -56 + ^ x26: .cfa -64 + ^ x27: .cfa -72 + ^ x28: .cfa -80 + ^ .ra: .cfa -88 + ^ x29: .cfa -96 + ^ v8: .cfa -112 + ^
STACK CFI 75ac8 .cfa: sp 208 +
STACK CFI 75ae8 .cfa: sp 0 +
STACK CFI 75aec .cfa: x29 96 +
STACK CFI INIT 75b80 20 .cfa: sp 0 +
STACK CFI 75b84 .cfa: sp 16 +
STACK CFI 75b88 .cfa: x29 16 + .ra: .cfa -8 + ^ x29: .cfa -16 + ^
STACK CFI 75b94 .cfa: sp 16 +
STACK CFI 75b98 .cfa: sp 0 +
STACK CFI 75b9c .cfa: x29 16 +
STACK CFI INIT 75ba0 c4 .cfa: sp 0 +
STACK CFI 75ba4 .cfa: sp 80 +
STACK CFI 75bb4 .cfa: x29 48 + x19: .cfa -8 + ^ x20: .cfa -16 + ^ x21: .cfa -32 + ^ .ra: .cfa -40 + ^ x29: .cfa -48 + ^
STACK CFI 75c48 .cfa: sp 80 +
STACK CFI 75c58 .cfa: sp 0 +
STACK CFI 75c5c .cfa: x29 48 +
STACK CFI INIT 75c8c b4 .cfa: sp 0 +
STACK CFI 75c90 .cfa: sp 64 +
STACK CFI 75c9c .cfa: x29 32 + x19: .cfa -8 + ^ x20: .cfa -16 + ^ .ra: .cfa -24 + ^ x29: .cfa -32 + ^
STACK CFI 75d28 .cfa: sp 64 +
STACK CFI 75d34 .cfa: sp 0 +
STACK CFI 75d38 .cfa: x29 32 +
STACK CFI INIT 75d68 118 .cfa: sp 0 +
STACK CFI 75d6c .cfa: sp 80 +
STACK CFI 75d7c .cfa: x29 48 + x19: .cfa -8 + ^ x20: .cfa -16 + ^ x21: .cfa -24 + ^ x22: .cfa -32 + ^ .ra: .cfa -40 + ^ x29: .cfa -48 + ^
STACK CFI 75e64 .cfa: sp 80 +
STACK CFI 75e74 .cfa: sp 0 +
STACK CFI 75e78 .cfa: x29 48 +
STACK CFI INIT 75e80 c4 .cfa: sp 0 +
STACK CFI 75e84 .cfa: sp 80 +
STACK CFI 75e94 .cfa: x29 48 + x19: .cfa -8 + ^ x20: .cfa -16 + ^ x21: .cfa -32 + ^ .ra: .cfa -40 + ^ x29: .cfa -48 + ^
STACK CFI 75f28 .cfa: sp 80 +
STACK CFI 75f38 .cfa: sp 0 +
STACK CFI 75f3c .cfa: x29 48 +
STACK CFI INIT 75f6c b4 .cfa: sp 0 +
STACK CFI 75f70 .cfa: sp 64 +
STACK CFI 75f7c .cfa: x29 32 + x19: .cfa -8 + ^ x20: .cfa -16 + ^ .ra: .cfa -24 + ^ x29: .cfa -32 + ^
STACK CFI 76008 .cfa: sp 64 +
STACK CFI 76014 .cfa: sp 0 +
STACK CFI 76018 .cfa: x29 32 +
STACK CFI INIT 7620c 128 .cfa: sp 0 +
STACK CFI 76210 .cfa: sp 112 +
STACK CFI 76220 .cfa: x29 48 + x19: .cfa -8 + ^ x20: .cfa -16 + ^ x21: .cfa -24 + ^ x22: .cfa -32 + ^ .ra: .cfa -40 + ^ x29: .cfa -48 + ^
STACK CFI INIT 76334 10c .cfa: sp 0 +
STACK CFI 76338 .cfa: sp 80 +
STACK CFI 76348 .cfa: x29 48 + x19: .cfa -8 + ^ x20: .cfa -16 + ^ x21: .cfa -24 + ^ x22: .cfa -32 + ^ .ra: .cfa -40 + ^ x29: .cfa -48 + ^
STACK CFI 763e4 .cfa: sp 80 +
STACK CFI 763f4 .cfa: sp 0 +
STACK CFI 763f8 .cfa: x29 48 +
STACK CFI INIT 764d8 ac .cfa: sp 0 +
STACK CFI 764dc .cfa: sp 96 +
STACK CFI 764e8 .cfa: x29 32 + x19: .cfa -8 + ^ x20: .cfa -16 + ^ .ra: .cfa -24 + ^ x29: .cfa -32 + ^
STACK CFI 7656c .cfa: sp 96 +
STACK CFI 76578 .cfa: sp 0 +
STACK CFI 7657c .cfa: x29 32 +
STACK CFI INIT 76584 c4 .cfa: sp 0 +
STACK CFI 76588 .cfa: sp 80 +
STACK CFI 76598 .cfa: x29 48 + x19: .cfa -8 + ^ x20: .cfa -16 + ^ x21: .cfa -32 + ^ .ra: .cfa -40 + ^ x29: .cfa -48 + ^
STACK CFI 7662c .cfa: sp 80 +
STACK CFI 7663c .cfa: sp 0 +
STACK CFI 76640 .cfa: x29 48 +
STACK CFI INIT 76670 118 .cfa: sp 0 +
STACK CFI 76674 .cfa: sp 80 +
STACK CFI 76684 .cfa: x29 48 + x19: .cfa -8 + ^ x20: .cfa -16 + ^ x21: .cfa -32 + ^ .ra: .cfa -40 + ^ x29: .cfa -48 + ^
STACK CFI 76738 .cfa: sp 80 +
STACK CFI 76748 .cfa: sp 0 +
STACK CFI 7674c .cfa: x29 48 +
STACK CFI INIT 767b0 dc .cfa: sp 0 +
STACK CFI 767b4 .cfa: sp 80 +
STACK CFI 767c4 .cfa: x29 48 + x19: .cfa -8 + ^ x20: .cfa -16 + ^ x21: .cfa -32 + ^ .ra: .cfa -40 + ^ x29: .cfa -48 + ^
STACK CFI 76870 .cfa: sp 80 +
STACK CFI 76880 .cfa: sp 0 +
STACK CFI 76884 .cfa: x29 48 +
STACK CFI INIT 768b4 b4 .cfa: sp 0 +
STACK CFI 768b8 .cfa: sp 64 +
STACK CFI 768c4 .cfa: x29 32 + x19: .cfa -8 + ^ x20: .cfa -16 + ^ .ra: .cfa -24 + ^ x29: .cfa -32 + ^
STACK CFI 76950 .cfa: sp 64 +
STACK CFI 7695c .cfa: sp 0 +
STACK CFI 76960 .cfa: x29 32 +
STACK CFI INIT 76b00 17c .cfa: sp 0 +
STACK CFI 76b04 .cfa: sp 112 +
STACK CFI 76b14 .cfa: x29 48 + x19: .cfa -8 + ^ x20: .cfa -16 + ^ x21: .cfa -24 + ^ x22: .cfa -32 + ^ .ra: .cfa -40 + ^ x29: .cfa -48 + ^
STACK CFI 76bdc .cfa: sp 112 +
STACK CFI 76bec .cfa: sp 0 +
STACK CFI 76bf0 .cfa: x29 48 +
STACK CFI INIT 76c7c 218 .cfa: sp 0 +
STACK CFI 76c80 .cfa: sp 176 +
STACK CFI 76c9c .cfa: x29 96 + x19: .cfa -8 + ^ x20: .cfa -16 + ^ x21: .cfa -24 + ^ x22: .cfa -32 + ^ x23: .cfa -40 + ^ x24: .cfa -48 + ^ x25: .cfa -56 + ^ x26: .cfa -64 + ^ x27: .cfa -72 + ^ x28: .cfa -80 + ^ .ra: .cfa -88 + ^ x29: .cfa -96 + ^
STACK CFI 76cdc .cfa: sp 176 +
STACK CFI 76cf8 .cfa: sp 0 +
STACK CFI 76cfc .cfa: x29 96 +
STACK CFI INIT 76e94 110 .cfa: sp 0 +
STACK CFI 76e98 .cfa: sp 64 +
STACK CFI 76ea8 .cfa: x29 64 + x19: .cfa -8 + ^ x20: .cfa -16 + ^ x21: .cfa -24 + ^ x22: .cfa -32 + ^ x23: .cfa -48 + ^ .ra: .cfa -56 + ^ x29: .cfa -64 + ^
STACK CFI 76f80 .cfa: sp 64 +
STACK CFI 76f90 .cfa: sp 0 +
STACK CFI 76f94 .cfa: x29 64 +
STACK CFI INIT 76fbc 204 .cfa: sp 0 +
STACK CFI 76fc0 .cfa: sp 96 +
STACK CFI 76fd8 .cfa: x29 96 + x19: .cfa -8 + ^ x20: .cfa -16 + ^ x21: .cfa -24 + ^ x22: .cfa -32 + ^ x23: .cfa -40 + ^ x24: .cfa -48 + ^ x25: .cfa -56 + ^ x26: .cfa -64 + ^ x27: .cfa -72 + ^ x28: .cfa -80 + ^ .ra: .cfa -88 + ^ x29: .cfa -96 + ^
STACK CFI 77190 .cfa: sp 96 +
STACK CFI 771a8 .cfa: sp 0 +
STACK CFI 771ac .cfa: x29 96 +
STACK CFI INIT 7729c c4 .cfa: sp 0 +
STACK CFI 772a0 .cfa: sp 80 +
STACK CFI 772b0 .cfa: x29 48 + x19: .cfa -8 + ^ x20: .cfa -16 + ^ x21: .cfa -32 + ^ .ra: .cfa -40 + ^ x29: .cfa -48 + ^
STACK CFI 77344 .cfa: sp 80 +
STACK CFI 77354 .cfa: sp 0 +
STACK CFI 77358 .cfa: x29 48 +
STACK CFI INIT 7739c c4 .cfa: sp 0 +
STACK CFI 773a0 .cfa: sp 80 +
STACK CFI 773b0 .cfa: x29 48 + x19: .cfa -8 + ^ x20: .cfa -16 + ^ x21: .cfa -32 + ^ .ra: .cfa -40 + ^ x29: .cfa -48 + ^
STACK CFI 77444 .cfa: sp 80 +
STACK CFI 77454 .cfa: sp 0 +
STACK CFI 77458 .cfa: x29 48 +
STACK CFI INIT 77488 c4 .cfa: sp 0 +
STACK CFI 7748c .cfa: sp 80 +
STACK CFI 7749c .cfa: x29 48 + x19: .cfa -8 + ^ x20: .cfa -16 + ^ x21: .cfa -32 + ^ .ra: .cfa -40 + ^ x29: .cfa -48 + ^
STACK CFI 77530 .cfa: sp 80 +
STACK CFI 77540 .cfa: sp 0 +
STACK CFI 77544 .cfa: x29 48 +
STACK CFI INIT 77814 144 .cfa: sp 0 +
STACK CFI 77818 .cfa: sp 128 +
STACK CFI 77824 .cfa: x29 32 + x19: .cfa -8 + ^ x20: .cfa -16 + ^ .ra: .cfa -24 + ^ x29: .cfa -32 + ^
STACK CFI 778dc .cfa: sp 128 +
STACK CFI 778e8 .cfa: sp 0 +
STACK CFI 778ec .cfa: x29 32 +
STACK CFI INIT 779f4 498 .cfa: sp 0 +
STACK CFI 779f8 .cfa: sp 112 +
STACK CFI 77a0c .cfa: x29 64 + x19: .cfa -8 + ^ x20: .cfa -16 + ^ x21: .cfa -24 + ^ x22: .cfa -32 + ^ x23: .cfa -48 + ^ .ra: .cfa -56 + ^ x29: .cfa -64 + ^
STACK CFI 77da0 .cfa: sp 112 +
STACK CFI 77db4 .cfa: sp 0 +
STACK CFI 77db8 .cfa: x29 64 +
STACK CFI INIT 77f30 800 .cfa: sp 0 +
STACK CFI 77f34 .cfa: sp 208 +
STACK CFI 77f54 .cfa: x29 96 + x19: .cfa -8 + ^ x20: .cfa -16 + ^ x21: .cfa -24 + ^ x22: .cfa -32 + ^ x23: .cfa -40 + ^ x24: .cfa -48 + ^ x25: .cfa -56 + ^ x26: .cfa -64 + ^ x27: .cfa -72 + ^ x28: .cfa -80 + ^ .ra: .cfa -88 + ^ x29: .cfa -96 + ^ v8: .cfa -112 + ^
STACK CFI 78678 .cfa: sp 208 +
STACK CFI 78698 .cfa: sp 0 +
STACK CFI 7869c .cfa: x29 96 +
STACK CFI INIT 78730 804 .cfa: sp 0 +
STACK CFI 78734 .cfa: sp 208 +
STACK CFI 78754 .cfa: x29 96 + x19: .cfa -8 + ^ x20: .cfa -16 + ^ x21: .cfa -24 + ^ x22: .cfa -32 + ^ x23: .cfa -40 + ^ x24: .cfa -48 + ^ x25: .cfa -56 + ^ x26: .cfa -64 + ^ x27: .cfa -72 + ^ x28: .cfa -80 + ^ .ra: .cfa -88 + ^ x29: .cfa -96 + ^ v8: .cfa -112 + ^
STACK CFI 78e7c .cfa: sp 208 +
STACK CFI 78e9c .cfa: sp 0 +
STACK CFI 78ea0 .cfa: x29 96 +
STACK CFI INIT 78fcc 514 .cfa: sp 0 +
STACK CFI 78fd0 .cfa: sp 192 +
STACK CFI 78ff4 .cfa: x29 96 + x19: .cfa -8 + ^ x20: .cfa -16 + ^ x21: .cfa -24 + ^ x22: .cfa -32 + ^ x23: .cfa -40 + ^ x24: .cfa -48 + ^ x25: .cfa -56 + ^ x26: .cfa -64 + ^ x27: .cfa -72 + ^ x28: .cfa -80 + ^ .ra: .cfa -88 + ^ x29: .cfa -96 + ^ v8: .cfa -104 + ^ v9: .cfa -112 + ^ v10: .cfa -120 + ^ v11: .cfa -128 + ^
STACK CFI 793f0 .cfa: sp 192 +
STACK CFI 79414 .cfa: sp 0 +
STACK CFI 79418 .cfa: x29 96 +
STACK CFI INIT 794e0 20 .cfa: sp 0 +
STACK CFI 794e4 .cfa: sp 16 +
STACK CFI 794e8 .cfa: x29 16 + .ra: .cfa -8 + ^ x29: .cfa -16 + ^
STACK CFI 794f4 .cfa: sp 16 +
STACK CFI 794f8 .cfa: sp 0 +
STACK CFI 794fc .cfa: x29 16 +
STACK CFI INIT 79500 20 .cfa: sp 0 +
STACK CFI 79504 .cfa: sp 16 +
STACK CFI 79508 .cfa: x29 16 + .ra: .cfa -8 + ^ x29: .cfa -16 + ^
STACK CFI 79514 .cfa: sp 16 +
STACK CFI 79518 .cfa: sp 0 +
STACK CFI 7951c .cfa: x29 16 +
STACK CFI INIT 79520 140 .cfa: sp 0 +
STACK CFI 79524 .cfa: sp 80 +
STACK CFI 79534 .cfa: x29 48 + x19: .cfa -8 + ^ x20: .cfa -16 + ^ x21: .cfa -32 + ^ .ra: .cfa -40 + ^ x29: .cfa -48 + ^
STACK CFI 79614 .cfa: sp 80 +
STACK CFI 79624 .cfa: sp 0 +
STACK CFI 79628 .cfa: x29 48 +
STACK CFI INIT 79660 15c .cfa: sp 0 +
STACK CFI 79664 .cfa: sp 80 +
STACK CFI 79674 .cfa: x29 48 + x19: .cfa -8 + ^ x20: .cfa -16 + ^ x21: .cfa -32 + ^ .ra: .cfa -40 + ^ x29: .cfa -48 + ^
STACK CFI 79770 .cfa: sp 80 +
STACK CFI 79780 .cfa: sp 0 +
STACK CFI 79784 .cfa: x29 48 +
STACK CFI INIT 797bc c4 .cfa: sp 0 +
STACK CFI 797c0 .cfa: sp 80 +
STACK CFI 797d0 .cfa: x29 48 + x19: .cfa -8 + ^ x20: .cfa -16 + ^ x21: .cfa -32 + ^ .ra: .cfa -40 + ^ x29: .cfa -48 + ^
STACK CFI 79864 .cfa: sp 80 +
STACK CFI 79874 .cfa: sp 0 +
STACK CFI 79878 .cfa: x29 48 +
STACK CFI INIT 798a8 90 .cfa: sp 0 +
STACK CFI 798ac .cfa: sp 64 +
STACK CFI 798bc .cfa: x29 32 + x19: .cfa -8 + ^ x20: .cfa -16 + ^ .ra: .cfa -24 + ^ x29: .cfa -32 + ^ v8: .cfa -40 + ^ v9: .cfa -48 + ^ v10: .cfa -56 + ^ v11: .cfa -64 + ^
STACK CFI 7990c .cfa: sp 64 +
STACK CFI 7991c .cfa: sp 0 +
STACK CFI 79920 .cfa: x29 32 +
STACK CFI INIT 79938 110 .cfa: sp 0 +
STACK CFI 7993c .cfa: sp 80 +
STACK CFI 7994c .cfa: x29 48 + x19: .cfa -8 + ^ x20: .cfa -16 + ^ x21: .cfa -32 + ^ .ra: .cfa -40 + ^ x29: .cfa -48 + ^
STACK CFI 799fc .cfa: sp 80 +
STACK CFI 79a0c .cfa: sp 0 +
STACK CFI 79a10 .cfa: x29 48 +
STACK CFI INIT 79a50 c4 .cfa: sp 0 +
STACK CFI 79a54 .cfa: sp 80 +
STACK CFI 79a64 .cfa: x29 48 + x19: .cfa -8 + ^ x20: .cfa -16 + ^ x21: .cfa -32 + ^ .ra: .cfa -40 + ^ x29: .cfa -48 + ^
STACK CFI 79af8 .cfa: sp 80 +
STACK CFI 79b08 .cfa: sp 0 +
STACK CFI 79b0c .cfa: x29 48 +
STACK CFI INIT 79b40 c4 .cfa: sp 0 +
STACK CFI 79b44 .cfa: sp 80 +
STACK CFI 79b54 .cfa: x29 48 + x19: .cfa -8 + ^ x20: .cfa -16 + ^ x21: .cfa -32 + ^ .ra: .cfa -40 + ^ x29: .cfa -48 + ^
STACK CFI 79be8 .cfa: sp 80 +
STACK CFI 79bf8 .cfa: sp 0 +
STACK CFI 79bfc .cfa: x29 48 +
STACK CFI INIT 79c2c 70 .cfa: sp 0 +
STACK CFI 79c30 .cfa: sp 32 +
STACK CFI 79c38 .cfa: x29 32 + x19: .cfa -8 + ^ x20: .cfa -16 + ^ .ra: .cfa -24 + ^ x29: .cfa -32 + ^
STACK CFI 79c78 .cfa: sp 32 +
STACK CFI 79c80 .cfa: sp 0 +
STACK CFI 79c84 .cfa: x29 32 +
STACK CFI INIT 7db6c 134 .cfa: sp 0 +
STACK CFI 7db70 .cfa: sp 80 +
STACK CFI 7db7c .cfa: x29 32 + x19: .cfa -8 + ^ x20: .cfa -16 + ^ .ra: .cfa -24 + ^ x29: .cfa -32 + ^
STACK CFI 7dbac .cfa: sp 80 +
STACK CFI 7dbb8 .cfa: sp 0 +
STACK CFI 7dbbc .cfa: x29 32 +
STACK CFI INIT 7dca0 78 .cfa: sp 0 +
STACK CFI 7dca4 .cfa: sp 32 +
STACK CFI 7dcac .cfa: x29 32 + x19: .cfa -8 + ^ x20: .cfa -16 + ^ .ra: .cfa -24 + ^ x29: .cfa -32 + ^
STACK CFI 7dcb8 .cfa: sp 32 +
STACK CFI 7dcc0 .cfa: sp 0 +
STACK CFI 7dcc4 .cfa: x29 32 +
STACK CFI INIT 7dd18 74 .cfa: sp 0 +
STACK CFI 7dd1c .cfa: sp 48 +
STACK CFI 7dd28 .cfa: x29 32 + x19: .cfa -8 + ^ x20: .cfa -16 + ^ .ra: .cfa -24 + ^ x29: .cfa -32 + ^
STACK CFI 7dd74 .cfa: sp 48 +
STACK CFI 7dd80 .cfa: sp 0 +
STACK CFI 7dd84 .cfa: x29 32 +
STACK CFI INIT 7ddf8 224 .cfa: sp 0 +
STACK CFI 7ddfc .cfa: sp 128 +
STACK CFI 7de0c .cfa: x29 48 + x19: .cfa -8 + ^ x20: .cfa -16 + ^ x21: .cfa -32 + ^ .ra: .cfa -40 + ^ x29: .cfa -48 + ^
STACK CFI 7debc .cfa: sp 128 +
STACK CFI 7decc .cfa: sp 0 +
STACK CFI 7ded0 .cfa: x29 48 +
STACK CFI INIT 7e06c 2e8 .cfa: sp 0 +
STACK CFI 7e070 .cfa: sp 144 +
STACK CFI 7e084 .cfa: x29 64 + x19: .cfa -8 + ^ x20: .cfa -16 + ^ x21: .cfa -24 + ^ x22: .cfa -32 + ^ x23: .cfa -48 + ^ .ra: .cfa -56 + ^ x29: .cfa -64 + ^
STACK CFI 7e1a8 .cfa: sp 144 +
STACK CFI 7e1bc .cfa: sp 0 +
STACK CFI 7e1c0 .cfa: x29 64 +
STACK CFI INIT 7e354 16c .cfa: sp 0 +
STACK CFI 7e358 .cfa: sp 384 +
STACK CFI 7e36c .cfa: x29 64 + x19: .cfa -8 + ^ x20: .cfa -16 + ^ x21: .cfa -24 + ^ x22: .cfa -32 + ^ x23: .cfa -40 + ^ x28: .cfa -48 + ^ .ra: .cfa -56 + ^ x29: .cfa -64 + ^
STACK CFI 7e460 .cfa: sp 384 +
STACK CFI 7e474 .cfa: sp 0 +
STACK CFI 7e478 .cfa: x29 64 +
STACK CFI INIT 7e4c0 180 .cfa: sp 0 +
STACK CFI 7e4c4 .cfa: sp 384 +
STACK CFI 7e4d8 .cfa: x29 64 + x19: .cfa -8 + ^ x20: .cfa -16 + ^ x21: .cfa -24 + ^ x22: .cfa -32 + ^ x23: .cfa -40 + ^ x28: .cfa -48 + ^ .ra: .cfa -56 + ^ x29: .cfa -64 + ^
STACK CFI 7e5e0 .cfa: sp 384 +
STACK CFI 7e5f4 .cfa: sp 0 +
STACK CFI 7e5f8 .cfa: x29 64 +
STACK CFI INIT 7e660 304 .cfa: sp 0 +
STACK CFI 7e664 .cfa: sp 64 +
STACK CFI 7e674 .cfa: x29 64 + x19: .cfa -8 + ^ x20: .cfa -16 + ^ x21: .cfa -24 + ^ x22: .cfa -32 + ^ x23: .cfa -40 + ^ x24: .cfa -48 + ^ .ra: .cfa -56 + ^ x29: .cfa -64 + ^
STACK CFI 7e938 .cfa: sp 64 +
STACK CFI 7e948 .cfa: sp 0 +
STACK CFI 7e94c .cfa: x29 64 +
STACK CFI INIT 7ed50 1a4 .cfa: sp 0 +
STACK CFI 7ed54 .cfa: sp 208 +
STACK CFI 7ed64 .cfa: x29 48 + x19: .cfa -8 + ^ x20: .cfa -16 + ^ x21: .cfa -24 + ^ x22: .cfa -32 + ^ .ra: .cfa -40 + ^ x29: .cfa -48 + ^
STACK CFI 7ee6c .cfa: sp 208 +
STACK CFI 7ee7c .cfa: sp 0 +
STACK CFI 7ee80 .cfa: x29 48 +
STACK CFI INIT 7eef4 19c .cfa: sp 0 +
STACK CFI 7eef8 .cfa: sp 80 +
STACK CFI 7ef08 .cfa: x29 48 + x19: .cfa -8 + ^ x20: .cfa -16 + ^ x21: .cfa -24 + ^ x22: .cfa -32 + ^ .ra: .cfa -40 + ^ x29: .cfa -48 + ^
STACK CFI 7eff0 .cfa: sp 80 +
STACK CFI 7f000 .cfa: sp 0 +
STACK CFI 7f004 .cfa: x29 48 +
STACK CFI INIT 7f118 50 .cfa: sp 0 +
STACK CFI 7f11c .cfa: sp 32 +
STACK CFI 7f124 .cfa: x29 32 + x19: .cfa -8 + ^ x20: .cfa -16 + ^ .ra: .cfa -24 + ^ x29: .cfa -32 + ^
STACK CFI INIT 7f194 1b8 .cfa: sp 0 +
STACK CFI 7f198 .cfa: sp 144 +
STACK CFI 7f1a8 .cfa: x29 48 + x19: .cfa -8 + ^ x20: .cfa -16 + ^ x21: .cfa -32 + ^ .ra: .cfa -40 + ^ x29: .cfa -48 + ^
STACK CFI 7f29c .cfa: sp 144 +
STACK CFI 7f2ac .cfa: sp 0 +
STACK CFI 7f2b0 .cfa: x29 48 +
STACK CFI INIT 7f464 134 .cfa: sp 0 +
STACK CFI 7f468 .cfa: sp 80 +
STACK CFI 7f47c .cfa: x29 80 + x19: .cfa -8 + ^ x20: .cfa -16 + ^ x21: .cfa -24 + ^ x22: .cfa -32 + ^ x23: .cfa -40 + ^ x24: .cfa -48 + ^ x28: .cfa -64 + ^ .ra: .cfa -72 + ^ x29: .cfa -80 + ^
STACK CFI 7f54c .cfa: sp 80 +
STACK CFI 7f560 .cfa: sp 0 +
STACK CFI 7f564 .cfa: x29 80 +
STACK CFI INIT 80af0 120 .cfa: sp 0 +
STACK CFI 80af4 .cfa: sp 80 +
STACK CFI 80b04 .cfa: x29 48 + x19: .cfa -8 + ^ x20: .cfa -16 + ^ x21: .cfa -32 + ^ .ra: .cfa -40 + ^ x29: .cfa -48 + ^
STACK CFI 80bb4 .cfa: sp 80 +
STACK CFI 80bc4 .cfa: sp 0 +
STACK CFI 80bc8 .cfa: x29 48 +
STACK CFI INIT 8397c 684 .cfa: sp 0 +
STACK CFI 83980 .cfa: sp 256 +
STACK CFI 8399c .cfa: x29 96 + x19: .cfa -8 + ^ x20: .cfa -16 + ^ x21: .cfa -24 + ^ x22: .cfa -32 + ^ x23: .cfa -40 + ^ x24: .cfa -48 + ^ x25: .cfa -56 + ^ x26: .cfa -64 + ^ x27: .cfa -80 + ^ .ra: .cfa -88 + ^ x29: .cfa -96 + ^
STACK CFI 83eb4 .cfa: sp 256 +
STACK CFI 83ed0 .cfa: sp 0 +
STACK CFI 83ed4 .cfa: x29 96 +
STACK CFI INIT 84154 1c8 .cfa: sp 0 +
STACK CFI 84158 .cfa: sp 128 +
STACK CFI 84168 .cfa: x29 48 + x19: .cfa -8 + ^ x20: .cfa -16 + ^ x21: .cfa -32 + ^ .ra: .cfa -40 + ^ x29: .cfa -48 + ^
STACK CFI 84280 .cfa: sp 128 +
STACK CFI 84290 .cfa: sp 0 +
STACK CFI 84294 .cfa: x29 48 +
STACK CFI INIT 847e8 1a8 .cfa: sp 0 +
STACK CFI 847ec .cfa: sp 80 +
STACK CFI 84800 .cfa: x29 80 + x19: .cfa -8 + ^ x20: .cfa -16 + ^ x21: .cfa -24 + ^ x22: .cfa -32 + ^ x23: .cfa -40 + ^ x24: .cfa -48 + ^ x28: .cfa -64 + ^ .ra: .cfa -72 + ^ x29: .cfa -80 + ^
STACK CFI 84944 .cfa: sp 80 +
STACK CFI 84958 .cfa: sp 0 +
STACK CFI 8495c .cfa: x29 80 +
STACK CFI INIT 84990 39c .cfa: sp 0 +
STACK CFI 84994 .cfa: sp 96 +
STACK CFI 849ac .cfa: x29 96 + x19: .cfa -8 + ^ x20: .cfa -16 + ^ x21: .cfa -24 + ^ x22: .cfa -32 + ^ x23: .cfa -40 + ^ x24: .cfa -48 + ^ x25: .cfa -56 + ^ x26: .cfa -64 + ^ x27: .cfa -72 + ^ x28: .cfa -80 + ^ .ra: .cfa -88 + ^ x29: .cfa -96 + ^
STACK CFI 84ccc .cfa: sp 96 +
STACK CFI 84ce4 .cfa: sp 0 +
STACK CFI 84ce8 .cfa: x29 96 +
STACK CFI INIT 84f7c 148 .cfa: sp 0 +
STACK CFI 84f80 .cfa: sp 64 +
STACK CFI 84f90 .cfa: x29 64 + x19: .cfa -8 + ^ x20: .cfa -16 + ^ x21: .cfa -24 + ^ x22: .cfa -32 + ^ x23: .cfa -40 + ^ x28: .cfa -48 + ^ .ra: .cfa -56 + ^ x29: .cfa -64 + ^
STACK CFI 8507c .cfa: sp 64 +
STACK CFI 8508c .cfa: sp 0 +
STACK CFI 85090 .cfa: x29 64 +
STACK CFI INIT 8523c 6a0 .cfa: sp 0 +
STACK CFI 85240 .cfa: sp 272 +
STACK CFI 8525c .cfa: x29 96 + x19: .cfa -8 + ^ x20: .cfa -16 + ^ x21: .cfa -24 + ^ x22: .cfa -32 + ^ x23: .cfa -40 + ^ x24: .cfa -48 + ^ x25: .cfa -56 + ^ x26: .cfa -64 + ^ x27: .cfa -72 + ^ x28: .cfa -80 + ^ .ra: .cfa -88 + ^ x29: .cfa -96 + ^
STACK CFI 85790 .cfa: sp 272 +
STACK CFI 857ac .cfa: sp 0 +
STACK CFI 857b0 .cfa: x29 96 +
STACK CFI INIT 85d1c 1a8 .cfa: sp 0 +
STACK CFI 85d20 .cfa: sp 80 +
STACK CFI 85d34 .cfa: x29 80 + x19: .cfa -8 + ^ x20: .cfa -16 + ^ x21: .cfa -24 + ^ x22: .cfa -32 + ^ x23: .cfa -40 + ^ x24: .cfa -48 + ^ x28: .cfa -64 + ^ .ra: .cfa -72 + ^ x29: .cfa -80 + ^
STACK CFI 85e78 .cfa: sp 80 +
STACK CFI 85e8c .cfa: sp 0 +
STACK CFI 85e90 .cfa: x29 80 +
STACK CFI INIT 86054 148 .cfa: sp 0 +
STACK CFI 86058 .cfa: sp 64 +
STACK CFI 86068 .cfa: x29 64 + x19: .cfa -8 + ^ x20: .cfa -16 + ^ x21: .cfa -24 + ^ x22: .cfa -32 + ^ x23: .cfa -40 + ^ x28: .cfa -48 + ^ .ra: .cfa -56 + ^ x29: .cfa -64 + ^
STACK CFI 86154 .cfa: sp 64 +
STACK CFI 86164 .cfa: sp 0 +
STACK CFI 86168 .cfa: x29 64 +
STACK CFI INIT 86314 32c .cfa: sp 0 +
STACK CFI 86318 .cfa: sp 80 +
STACK CFI 8632c .cfa: x29 80 + x19: .cfa -8 + ^ x20: .cfa -16 + ^ x21: .cfa -24 + ^ x22: .cfa -32 + ^ x23: .cfa -40 + ^ x24: .cfa -48 + ^ x25: .cfa -56 + ^ x28: .cfa -64 + ^ .ra: .cfa -72 + ^ x29: .cfa -80 + ^
STACK CFI 865d4 .cfa: sp 80 +
STACK CFI 865e8 .cfa: sp 0 +
STACK CFI 865ec .cfa: x29 80 +
STACK CFI INIT 86fb4 1790 .cfa: sp 0 +
STACK CFI 86fb8 .cfa: sp 96 +
STACK CFI 86fd0 .cfa: x29 96 + x19: .cfa -8 + ^ x20: .cfa -16 + ^ x21: .cfa -24 + ^ x22: .cfa -32 + ^ x23: .cfa -40 + ^ x24: .cfa -48 + ^ x25: .cfa -56 + ^ x26: .cfa -64 + ^ x27: .cfa -72 + ^ x28: .cfa -80 + ^ .ra: .cfa -88 + ^ x29: .cfa -96 + ^
STACK CFI 88624 .cfa: sp 96 +
STACK CFI 8863c .cfa: sp 0 +
STACK CFI 88640 .cfa: x29 96 +
STACK CFI INIT 88e78 4cc .cfa: sp 0 +
STACK CFI 88e7c .cfa: sp 320 +
STACK CFI 88e98 .cfa: x29 96 + x19: .cfa -8 + ^ x20: .cfa -16 + ^ x21: .cfa -24 + ^ x22: .cfa -32 + ^ x23: .cfa -40 + ^ x24: .cfa -48 + ^ x25: .cfa -56 + ^ x26: .cfa -64 + ^ x27: .cfa -72 + ^ x28: .cfa -80 + ^ .ra: .cfa -88 + ^ x29: .cfa -96 + ^
STACK CFI 892e0 .cfa: sp 320 +
STACK CFI 892fc .cfa: sp 0 +
STACK CFI 89300 .cfa: x29 96 +
STACK CFI INIT 89344 674 .cfa: sp 0 +
STACK CFI 89348 .cfa: sp 272 +
STACK CFI 89364 .cfa: x29 96 + x19: .cfa -8 + ^ x20: .cfa -16 + ^ x21: .cfa -24 + ^ x22: .cfa -32 + ^ x23: .cfa -40 + ^ x24: .cfa -48 + ^ x25: .cfa -56 + ^ x26: .cfa -64 + ^ x27: .cfa -72 + ^ x28: .cfa -80 + ^ .ra: .cfa -88 + ^ x29: .cfa -96 + ^
STACK CFI 8986c .cfa: sp 272 +
STACK CFI 89888 .cfa: sp 0 +
STACK CFI 8988c .cfa: x29 96 +
STACK CFI INIT 89c54 3e8 .cfa: sp 0 +
STACK CFI 89c58 .cfa: sp 96 +
STACK CFI 89c70 .cfa: x29 96 + x19: .cfa -8 + ^ x20: .cfa -16 + ^ x21: .cfa -24 + ^ x22: .cfa -32 + ^ x23: .cfa -40 + ^ x24: .cfa -48 + ^ x25: .cfa -56 + ^ x26: .cfa -64 + ^ x28: .cfa -80 + ^ .ra: .cfa -88 + ^ x29: .cfa -96 + ^
STACK CFI 89fe8 .cfa: sp 96 +
STACK CFI 8a000 .cfa: sp 0 +
STACK CFI 8a004 .cfa: x29 96 +
STACK CFI INIT 8a1cc 214 .cfa: sp 0 +
STACK CFI 8a1d0 .cfa: sp 96 +
STACK CFI 8a1e8 .cfa: x29 96 + x19: .cfa -8 + ^ x20: .cfa -16 + ^ x21: .cfa -24 + ^ x22: .cfa -32 + ^ x23: .cfa -40 + ^ x24: .cfa -48 + ^ x25: .cfa -56 + ^ x26: .cfa -64 + ^ x27: .cfa -72 + ^ x28: .cfa -80 + ^ .ra: .cfa -88 + ^ x29: .cfa -96 + ^
STACK CFI 8a35c .cfa: sp 96 +
STACK CFI 8a374 .cfa: sp 0 +
STACK CFI 8a378 .cfa: x29 96 +
STACK CFI 8a390 .cfa: sp 96 +
STACK CFI 8a3a8 .cfa: sp 0 +
STACK CFI 8a3ac .cfa: x29 96 +
STACK CFI INIT 8ca9c 348 .cfa: sp 0 +
STACK CFI 8caa0 .cfa: sp 96 +
STACK CFI 8cab8 .cfa: x29 80 + x19: .cfa -8 + ^ x20: .cfa -16 + ^ x21: .cfa -24 + ^ x22: .cfa -32 + ^ x23: .cfa -40 + ^ x24: .cfa -48 + ^ x25: .cfa -56 + ^ x28: .cfa -64 + ^ .ra: .cfa -72 + ^ x29: .cfa -80 + ^ v8: .cfa -96 + ^
STACK CFI 8cd74 .cfa: sp 96 +
STACK CFI 8cd8c .cfa: sp 0 +
STACK CFI 8cd90 .cfa: x29 80 +
STACK CFI INIT 8d274 82c .cfa: sp 0 +
STACK CFI 8d278 .cfa: sp 128 +
STACK CFI 8d28c .cfa: x29 64 + x19: .cfa -8 + ^ x20: .cfa -16 + ^ x21: .cfa -24 + ^ x22: .cfa -32 + ^ x23: .cfa -40 + ^ x24: .cfa -48 + ^ .ra: .cfa -56 + ^ x29: .cfa -64 + ^
STACK CFI 8d9ec .cfa: sp 128 +
STACK CFI 8da00 .cfa: sp 0 +
STACK CFI 8da04 .cfa: x29 64 +
STACK CFI INIT 8daa0 344 .cfa: sp 0 +
STACK CFI 8daa4 .cfa: sp 96 +
STACK CFI 8dabc .cfa: x29 80 + x19: .cfa -8 + ^ x20: .cfa -16 + ^ x21: .cfa -24 + ^ x22: .cfa -32 + ^ x23: .cfa -40 + ^ x24: .cfa -48 + ^ x25: .cfa -56 + ^ x28: .cfa -64 + ^ .ra: .cfa -72 + ^ x29: .cfa -80 + ^ v8: .cfa -96 + ^
STACK CFI 8dd74 .cfa: sp 96 +
STACK CFI 8dd8c .cfa: sp 0 +
STACK CFI 8dd90 .cfa: x29 80 +
STACK CFI INIT 8ed0c 204 .cfa: sp 0 +
STACK CFI 8ed10 .cfa: sp 192 +
STACK CFI 8ed24 .cfa: x29 64 + x19: .cfa -8 + ^ x20: .cfa -16 + ^ x21: .cfa -24 + ^ x22: .cfa -32 + ^ x23: .cfa -40 + ^ x24: .cfa -48 + ^ .ra: .cfa -56 + ^ x29: .cfa -64 + ^
STACK CFI 8ee4c .cfa: sp 192 +
STACK CFI 8ee60 .cfa: sp 0 +
STACK CFI 8ee64 .cfa: x29 64 +
STACK CFI INIT 8ef10 1ec .cfa: sp 0 +
STACK CFI 8ef14 .cfa: sp 192 +
STACK CFI 8ef28 .cfa: x29 64 + x19: .cfa -8 + ^ x20: .cfa -16 + ^ x21: .cfa -24 + ^ x22: .cfa -32 + ^ x23: .cfa -40 + ^ x24: .cfa -48 + ^ .ra: .cfa -56 + ^ x29: .cfa -64 + ^
STACK CFI 8f038 .cfa: sp 192 +
STACK CFI 8f04c .cfa: sp 0 +
STACK CFI 8f050 .cfa: x29 64 +
STACK CFI INIT 8f0fc 204 .cfa: sp 0 +
STACK CFI 8f100 .cfa: sp 192 +
STACK CFI 8f114 .cfa: x29 64 + x19: .cfa -8 + ^ x20: .cfa -16 + ^ x21: .cfa -24 + ^ x22: .cfa -32 + ^ x23: .cfa -40 + ^ x24: .cfa -48 + ^ .ra: .cfa -56 + ^ x29: .cfa -64 + ^
STACK CFI 8f23c .cfa: sp 192 +
STACK CFI 8f250 .cfa: sp 0 +
STACK CFI 8f254 .cfa: x29 64 +
STACK CFI INIT 8f300 1ec .cfa: sp 0 +
STACK CFI 8f304 .cfa: sp 192 +
STACK CFI 8f318 .cfa: x29 64 + x19: .cfa -8 + ^ x20: .cfa -16 + ^ x21: .cfa -24 + ^ x22: .cfa -32 + ^ x23: .cfa -40 + ^ x24: .cfa -48 + ^ .ra: .cfa -56 + ^ x29: .cfa -64 + ^
STACK CFI 8f428 .cfa: sp 192 +
STACK CFI 8f43c .cfa: sp 0 +
STACK CFI 8f440 .cfa: x29 64 +
STACK CFI INIT 8f4ec 218 .cfa: sp 0 +
STACK CFI 8f4f0 .cfa: sp 208 +
STACK CFI 8f508 .cfa: x29 80 + x19: .cfa -8 + ^ x20: .cfa -16 + ^ x21: .cfa -24 + ^ x22: .cfa -32 + ^ x23: .cfa -40 + ^ x24: .cfa -48 + ^ x25: .cfa -64 + ^ .ra: .cfa -72 + ^ x29: .cfa -80 + ^
STACK CFI 8f63c .cfa: sp 208 +
STACK CFI 8f654 .cfa: sp 0 +
STACK CFI 8f658 .cfa: x29 80 +
STACK CFI INIT 8f704 1fc .cfa: sp 0 +
STACK CFI 8f708 .cfa: sp 208 +
STACK CFI 8f720 .cfa: x29 80 + x19: .cfa -8 + ^ x20: .cfa -16 + ^ x21: .cfa -24 + ^ x22: .cfa -32 + ^ x23: .cfa -40 + ^ x24: .cfa -48 + ^ x25: .cfa -64 + ^ .ra: .cfa -72 + ^ x29: .cfa -80 + ^
STACK CFI 8f838 .cfa: sp 208 +
STACK CFI 8f850 .cfa: sp 0 +
STACK CFI 8f854 .cfa: x29 80 +
STACK CFI INIT 8f900 55c .cfa: sp 0 +
STACK CFI 8f904 .cfa: sp 96 +
STACK CFI 8f91c .cfa: x29 96 + x19: .cfa -8 + ^ x20: .cfa -16 + ^ x21: .cfa -24 + ^ x22: .cfa -32 + ^ x23: .cfa -40 + ^ x24: .cfa -48 + ^ x25: .cfa -56 + ^ x26: .cfa -64 + ^ x27: .cfa -72 + ^ x28: .cfa -80 + ^ .ra: .cfa -88 + ^ x29: .cfa -96 + ^
STACK CFI 8fe0c .cfa: sp 96 +
STACK CFI 8fe24 .cfa: sp 0 +
STACK CFI 8fe28 .cfa: x29 96 +
STACK CFI INIT 8ff78 660 .cfa: sp 0 +
STACK CFI 8ff7c .cfa: sp 96 +
STACK CFI 8ff94 .cfa: x29 96 + x19: .cfa -8 + ^ x20: .cfa -16 + ^ x21: .cfa -24 + ^ x22: .cfa -32 + ^ x23: .cfa -40 + ^ x24: .cfa -48 + ^ x25: .cfa -56 + ^ x26: .cfa -64 + ^ x27: .cfa -72 + ^ x28: .cfa -80 + ^ .ra: .cfa -88 + ^ x29: .cfa -96 + ^
STACK CFI 90584 .cfa: sp 96 +
STACK CFI 9059c .cfa: sp 0 +
STACK CFI 905a0 .cfa: x29 96 +
STACK CFI INIT 906f4 78 .cfa: sp 0 +
STACK CFI INIT 907a8 58 .cfa: sp 0 +
STACK CFI INIT 90800 68 .cfa: sp 0 +
STACK CFI INIT 90868 228 .cfa: sp 0 +
STACK CFI INIT 911ec 55c .cfa: sp 0 +
STACK CFI INIT 91748 520 .cfa: sp 0 +
STACK CFI INIT 91f60 12c .cfa: sp 0 +
STACK CFI INIT 92d70 368 .cfa: sp 0 +
STACK CFI INIT 937f8 54 .cfa: sp 0 +
STACK CFI INIT 93adc 24 .cfa: sp 0 +
STACK CFI INIT 93b00 24 .cfa: sp 0 +
STACK CFI INIT 93c40 94 .cfa: sp 0 +
STACK CFI INIT 93cd4 88 .cfa: sp 0 +
STACK CFI INIT 93df0 94 .cfa: sp 0 +
STACK CFI INIT 93e84 88 .cfa: sp 0 +
STACK CFI INIT 93fa0 54 .cfa: sp 0 +
STACK CFI INIT 94d28 184 .cfa: sp 0 +
STACK CFI INIT 959f8 80 .cfa: sp 0 +
STACK CFI INIT 96ff8 144 .cfa: sp 0 +
STACK CFI INIT 97cbc 98 .cfa: sp 0 +
STACK CFI INIT 9879c 15c .cfa: sp 0 +
STACK CFI INIT 988f8 118 .cfa: sp 0 +
STACK CFI INIT 98a10 16c .cfa: sp 0 +
STACK CFI INIT 98b7c 16c .cfa: sp 0 +
STACK CFI INIT 98ce8 170 .cfa: sp 0 +
STACK CFI INIT 98e58 148 .cfa: sp 0 +
STACK CFI INIT 98fa0 148 .cfa: sp 0 +
STACK CFI INIT 990e8 164 .cfa: sp 0 +
STACK CFI INIT 9924c 164 .cfa: sp 0 +
STACK CFI INIT 993b0 120 .cfa: sp 0 +
STACK CFI INIT 994d0 17c .cfa: sp 0 +
STACK CFI INIT 9964c 17c .cfa: sp 0 +
STACK CFI INIT 997c8 180 .cfa: sp 0 +
STACK CFI INIT 99948 158 .cfa: sp 0 +
STACK CFI INIT 99aa0 158 .cfa: sp 0 +
STACK CFI INIT 99bf8 16c .cfa: sp 0 +
STACK CFI INIT 9b4ec 19c .cfa: sp 0 +
STACK CFI INIT 9b688 198 .cfa: sp 0 +
STACK CFI INIT 9b820 190 .cfa: sp 0 +
STACK CFI INIT 9b9b0 148 .cfa: sp 0 +
STACK CFI INIT 9baf8 144 .cfa: sp 0 +
STACK CFI INIT 9bc3c 13c .cfa: sp 0 +
STACK CFI INIT 9bd78 50 .cfa: sp 0 +
STACK CFI INIT 9bdc8 54 .cfa: sp 0 +
STACK CFI INIT 9c624 f8 .cfa: sp 0 +
STACK CFI INIT 9c71c d4 .cfa: sp 0 +
STACK CFI INIT 9c7f0 164 .cfa: sp 0 +
STACK CFI INIT 9c954 b0 .cfa: sp 0 +
STACK CFI INIT 9ca04 10c .cfa: sp 0 +
STACK CFI INIT 9cb10 178 .cfa: sp 0 +
STACK CFI INIT 9cc88 b4 .cfa: sp 0 +
STACK CFI INIT 9cd90 68 .cfa: sp 0 +
STACK CFI INIT 9cf28 20 .cfa: sp 0 +
STACK CFI INIT 9cf48 20 .cfa: sp 0 +
STACK CFI INIT 9cf94 28 .cfa: sp 0 +
STACK CFI INIT 9cfbc 20 .cfa: sp 0 +
STACK CFI INIT 9d080 20 .cfa: sp 0 +
STACK CFI INIT 9d0cc 20 .cfa: sp 0 +
STACK CFI INIT 9d0ec 28 .cfa: sp 0 +
STACK CFI INIT 9d130 54 .cfa: sp 0 +
STACK CFI INIT 9d184 90 .cfa: sp 0 +
STACK CFI INIT 9d214 60 .cfa: sp 0 +
STACK CFI INIT 9d274 54 .cfa: sp 0 +
STACK CFI INIT 9d2e4 54 .cfa: sp 0 +
STACK CFI INIT 9d338 e0 .cfa: sp 0 +
STACK CFI INIT 9d418 88 .cfa: sp 0 +
STACK CFI INIT 9d4a0 7c .cfa: sp 0 +
STACK CFI INIT 9d51c 20 .cfa: sp 0 +
STACK CFI INIT 9d53c 20 .cfa: sp 0 +
STACK CFI INIT 9d55c 4c .cfa: sp 0 +
STACK CFI INIT 9d5a8 a0 .cfa: sp 0 +
STACK CFI INIT 9d648 90 .cfa: sp 0 +
STACK CFI INIT 9d78c 2c .cfa: sp 0 +
STACK CFI INIT 9d838 84 .cfa: sp 0 +
STACK CFI INIT 9d8f0 cc .cfa: sp 0 +
STACK CFI INIT 9de94 8c .cfa: sp 0 +
STACK CFI INIT 9df64 8c .cfa: sp 0 +
STACK CFI INIT 9dff0 90 .cfa: sp 0 +
STACK CFI INIT 9e080 94 .cfa: sp 0 +
STACK CFI INIT 9e114 a4 .cfa: sp 0 +
STACK CFI INIT 9e1b8 a4 .cfa: sp 0 +
STACK CFI INIT 9e2a0 e8 .cfa: sp 0 +
STACK CFI INIT 9e4d0 6c .cfa: sp 0 +
STACK CFI INIT 9e590 8c .cfa: sp 0 +
STACK CFI INIT 9e670 194 .cfa: sp 0 +
STACK CFI INIT 9e850 60 .cfa: sp 0 +
STACK CFI INIT 9e8d4 60 .cfa: sp 0 +
STACK CFI INIT 9ec44 58 .cfa: sp 0 +
STACK CFI INIT 9ecb4 a4 .cfa: sp 0 +
STACK CFI INIT 9ed58 24 .cfa: sp 0 +
STACK CFI INIT 9ee10 58 .cfa: sp 0 +
STACK CFI INIT 9f054 90 .cfa: sp 0 +
STACK CFI INIT 9f424 b4 .cfa: sp 0 +
STACK CFI INIT 9f544 a0 .cfa: sp 0 +
STACK CFI INIT 9f630 2c0 .cfa: sp 0 +
STACK CFI INIT a0374 6c .cfa: sp 0 +
STACK CFI INIT a04e0 1d8 .cfa: sp 0 +
STACK CFI INIT a06b8 e4 .cfa: sp 0 +
STACK CFI INIT a0818 1b4 .cfa: sp 0 +
STACK CFI INIT a09d4 130 .cfa: sp 0 +
STACK CFI INIT a0b0c 170 .cfa: sp 0 +
STACK CFI INIT a0c84 130 .cfa: sp 0 +
STACK CFI INIT a0dbc 174 .cfa: sp 0 +
STACK CFI INIT a0f38 130 .cfa: sp 0 +
STACK CFI INIT a1070 130 .cfa: sp 0 +
STACK CFI INIT a11a8 130 .cfa: sp 0 +
STACK CFI INIT a12e0 130 .cfa: sp 0 +
STACK CFI INIT a1418 130 .cfa: sp 0 +
STACK CFI INIT a1550 130 .cfa: sp 0 +
STACK CFI INIT a1688 130 .cfa: sp 0 +
STACK CFI INIT a17c0 130 .cfa: sp 0 +
STACK CFI INIT a18f8 130 .cfa: sp 0 +
STACK CFI INIT a1a28 118 .cfa: sp 0 +
STACK CFI INIT a1b7c a4 .cfa: sp 0 +
STACK CFI INIT a1c20 1d4 .cfa: sp 0 +
STACK CFI INIT a1df4 94 .cfa: sp 0 +
STACK CFI INIT a1e88 170 .cfa: sp 0 +
STACK CFI INIT a1ff8 a4 .cfa: sp 0 +
STACK CFI INIT a209c 244 .cfa: sp 0 +
STACK CFI INIT a22e0 1bc .cfa: sp 0 +
STACK CFI INIT a249c 100 .cfa: sp 0 +
STACK CFI INIT a259c f8 .cfa: sp 0 +
STACK CFI INIT a2694 150 .cfa: sp 0 +
STACK CFI INIT a27e4 134 .cfa: sp 0 +
STACK CFI INIT a2918 128 .cfa: sp 0 +
STACK CFI INIT a2a40 f0 .cfa: sp 0 +
STACK CFI INIT a2b30 fc .cfa: sp 0 +
STACK CFI INIT a2c2c 110 .cfa: sp 0 +
STACK CFI INIT a2d3c 110 .cfa: sp 0 +
STACK CFI INIT a2ea4 6c .cfa: sp 0 +
STACK CFI INIT a306c a8 .cfa: sp 0 +
STACK CFI INIT a3190 190 .cfa: sp 0 +
STACK CFI INIT a3320 1b8 .cfa: sp 0 +
STACK CFI INIT a34d8 190 .cfa: sp 0 +
STACK CFI INIT a3668 1b8 .cfa: sp 0 +
STACK CFI INIT a3820 190 .cfa: sp 0 +
STACK CFI INIT a39b0 190 .cfa: sp 0 +
STACK CFI INIT a3b40 190 .cfa: sp 0 +
STACK CFI INIT a3cd0 190 .cfa: sp 0 +
STACK CFI INIT a3e60 190 .cfa: sp 0 +
STACK CFI INIT a3ff0 198 .cfa: sp 0 +
STACK CFI INIT a4188 198 .cfa: sp 0 +
STACK CFI INIT a4320 190 .cfa: sp 0 +
STACK CFI INIT a44b0 190 .cfa: sp 0 +
STACK CFI INIT a4640 1c8 .cfa: sp 0 +
STACK CFI INIT a4808 f8 .cfa: sp 0 +
STACK CFI INIT a4900 ec .cfa: sp 0 +
STACK CFI INIT a4a4c c4 .cfa: sp 0 +
STACK CFI INIT a4b10 c4 .cfa: sp 0 +
STACK CFI INIT a4c74 88 .cfa: sp 0 +
STACK CFI INIT a5640 6c .cfa: sp 0 +
STACK CFI INIT a57ac 1f0 .cfa: sp 0 +
STACK CFI INIT a599c e4 .cfa: sp 0 +
STACK CFI INIT a5afc 1b0 .cfa: sp 0 +
STACK CFI INIT a5cb4 130 .cfa: sp 0 +
STACK CFI INIT a5dec 170 .cfa: sp 0 +
STACK CFI INIT a5f64 130 .cfa: sp 0 +
STACK CFI INIT a609c 174 .cfa: sp 0 +
STACK CFI INIT a6218 130 .cfa: sp 0 +
STACK CFI INIT a6350 130 .cfa: sp 0 +
STACK CFI INIT a6488 130 .cfa: sp 0 +
STACK CFI INIT a65c0 130 .cfa: sp 0 +
STACK CFI INIT a66f8 130 .cfa: sp 0 +
STACK CFI INIT a6830 130 .cfa: sp 0 +
STACK CFI INIT a6968 130 .cfa: sp 0 +
STACK CFI INIT a6aa0 130 .cfa: sp 0 +
STACK CFI INIT a6bd8 130 .cfa: sp 0 +
STACK CFI INIT a6d08 118 .cfa: sp 0 +
STACK CFI INIT a6e5c a4 .cfa: sp 0 +
STACK CFI INIT a6f00 1d0 .cfa: sp 0 +
STACK CFI INIT a70d0 94 .cfa: sp 0 +
STACK CFI INIT a7164 164 .cfa: sp 0 +
STACK CFI INIT a72c8 a4 .cfa: sp 0 +
STACK CFI INIT a736c 23c .cfa: sp 0 +
STACK CFI INIT a75a8 1b4 .cfa: sp 0 +
STACK CFI INIT a775c 100 .cfa: sp 0 +
STACK CFI INIT a785c f8 .cfa: sp 0 +
STACK CFI INIT a7954 154 .cfa: sp 0 +
STACK CFI INIT a7aa8 140 .cfa: sp 0 +
STACK CFI INIT a7be8 134 .cfa: sp 0 +
STACK CFI INIT a7d1c f0 .cfa: sp 0 +
STACK CFI INIT a7e0c fc .cfa: sp 0 +
STACK CFI INIT a7f08 110 .cfa: sp 0 +
STACK CFI INIT a8018 110 .cfa: sp 0 +
STACK CFI INIT a8180 6c .cfa: sp 0 +
STACK CFI INIT a8348 a8 .cfa: sp 0 +
STACK CFI INIT a846c 190 .cfa: sp 0 +
STACK CFI INIT a85fc 1b8 .cfa: sp 0 +
STACK CFI INIT a87b4 190 .cfa: sp 0 +
STACK CFI INIT a8944 1b8 .cfa: sp 0 +
STACK CFI INIT a8afc 190 .cfa: sp 0 +
STACK CFI INIT a8c8c 190 .cfa: sp 0 +
STACK CFI INIT a8e1c 190 .cfa: sp 0 +
STACK CFI INIT a8fac 190 .cfa: sp 0 +
STACK CFI INIT a913c 190 .cfa: sp 0 +
STACK CFI INIT a92cc 198 .cfa: sp 0 +
STACK CFI INIT a9464 198 .cfa: sp 0 +
STACK CFI INIT a95fc 190 .cfa: sp 0 +
STACK CFI INIT a978c 190 .cfa: sp 0 +
STACK CFI INIT a991c 1cc .cfa: sp 0 +
STACK CFI INIT a9ae8 100 .cfa: sp 0 +
STACK CFI INIT a9be8 ec .cfa: sp 0 +
STACK CFI INIT a9d34 c4 .cfa: sp 0 +
STACK CFI INIT a9df8 c4 .cfa: sp 0 +
STACK CFI INIT a9ebc ac .cfa: sp 0 +
STACK CFI INIT a9f68 1d4 .cfa: sp 0 +
STACK CFI INIT aa13c 1fc .cfa: sp 0 +
STACK CFI INIT aa338 2d8 .cfa: sp 0 +
STACK CFI INIT aa998 1b8 .cfa: sp 0 +
STACK CFI INIT ab16c 124 .cfa: sp 0 +
STACK CFI INIT ab424 d4 .cfa: sp 0 +
STACK CFI INIT ab4f8 8c .cfa: sp 0 +
STACK CFI INIT ad1c0 28c .cfa: sp 0 +
STACK CFI INIT ad44c 46c .cfa: sp 0 +
STACK CFI INIT ad8c0 434 .cfa: sp 0 +
STACK CFI INIT adcfc 434 .cfa: sp 0 +
STACK CFI INIT ae138 434 .cfa: sp 0 +
STACK CFI INIT ae574 434 .cfa: sp 0 +
STACK CFI INIT ae9b0 434 .cfa: sp 0 +
STACK CFI INIT aedec 434 .cfa: sp 0 +
STACK CFI INIT af228 410 .cfa: sp 0 +
STACK CFI INIT af640 410 .cfa: sp 0 +
STACK CFI INIT afa58 410 .cfa: sp 0 +
STACK CFI INIT afe68 534 .cfa: sp 0 +
STACK CFI INIT b055c b4 .cfa: sp 0 +
STACK CFI INIT b0610 88 .cfa: sp 0 +
STACK CFI INIT b0698 28c .cfa: sp 0 +
STACK CFI INIT b0924 474 .cfa: sp 0 +
STACK CFI INIT b0da0 428 .cfa: sp 0 +
STACK CFI INIT b11d0 428 .cfa: sp 0 +
STACK CFI INIT b1600 428 .cfa: sp 0 +
STACK CFI INIT b1a30 428 .cfa: sp 0 +
STACK CFI INIT b1e60 428 .cfa: sp 0 +
STACK CFI INIT b2290 428 .cfa: sp 0 +
STACK CFI INIT b26c0 404 .cfa: sp 0 +
STACK CFI INIT b2acc 404 .cfa: sp 0 +
STACK CFI INIT b2ed8 404 .cfa: sp 0 +
STACK CFI INIT b32dc 528 .cfa: sp 0 +
STACK CFI INIT b39c0 198 .cfa: sp 0 +
STACK CFI INIT b3dd4 180 .cfa: sp 0 +
STACK CFI INIT b3f54 198 .cfa: sp 0 +
STACK CFI INIT b4354 180 .cfa: sp 0 +
STACK CFI INIT b44d4 1d0 .cfa: sp 0 +
STACK CFI INIT b46b4 23c .cfa: sp 0 +
STACK CFI INIT b4900 23c .cfa: sp 0 +
STACK CFI INIT b4b4c 220 .cfa: sp 0 +
STACK CFI INIT b4d7c 220 .cfa: sp 0 +
STACK CFI INIT b4fac 480 .cfa: sp 0 +
STACK CFI INIT b543c 478 .cfa: sp 0 +
STACK CFI INIT b58b4 224 .cfa: sp 0 +
STACK CFI INIT b5ad8 c0 .cfa: sp 0 +
STACK CFI INIT b5c08 1d0 .cfa: sp 0 +
STACK CFI INIT b5de8 23c .cfa: sp 0 +
STACK CFI INIT b6034 23c .cfa: sp 0 +
STACK CFI INIT b6280 220 .cfa: sp 0 +
STACK CFI INIT b64b0 220 .cfa: sp 0 +
STACK CFI INIT b66e0 480 .cfa: sp 0 +
STACK CFI INIT b6b70 478 .cfa: sp 0 +
STACK CFI INIT b6fe8 230 .cfa: sp 0 +
STACK CFI INIT b7218 200 .cfa: sp 0 +
STACK CFI INIT b7418 3f4 .cfa: sp 0 +
STACK CFI INIT b780c 5f8 .cfa: sp 0 +
STACK CFI INIT b7e04 3fc .cfa: sp 0 +
STACK CFI INIT b8200 5f8 .cfa: sp 0 +
STACK CFI INIT b87f8 4d8 .cfa: sp 0 +
STACK CFI INIT b8dac 158 .cfa: sp 0 +
STACK CFI INIT b8fc0 150 .cfa: sp 0 +
STACK CFI INIT b91c4 11c .cfa: sp 0 +
STACK CFI INIT b9348 680 .cfa: sp 0 +
STACK CFI INIT ba524 4f4 .cfa: sp 0 +
STACK CFI INIT baaf4 158 .cfa: sp 0 +
STACK CFI INIT bad08 150 .cfa: sp 0 +
STACK CFI INIT baf0c 11c .cfa: sp 0 +
STACK CFI INIT bb090 670 .cfa: sp 0 +
STACK CFI INIT bc280 2a0 .cfa: sp 0 +
STACK CFI INIT bc660 2b0 .cfa: sp 0 +
STACK CFI INIT bc9cc f8 .cfa: sp 0 +
STACK CFI INIT bd0e4 344 .cfa: sp 0 +
STACK CFI INIT bd430 1208 .cfa: sp 0 +
STACK CFI INIT be638 2c0 .cfa: sp 0 +
STACK CFI INIT be8f8 368 .cfa: sp 0 +
STACK CFI INIT bef80 348 .cfa: sp 0 +
STACK CFI INIT bf2c8 132c .cfa: sp 0 +
STACK CFI INIT c05f4 32c .cfa: sp 0 +
STACK CFI INIT c0920 320 .cfa: sp 0 +
STACK CFI INIT c0e68 4ac .cfa: sp 0 +
STACK CFI INIT c1314 cc .cfa: sp 0 +
STACK CFI INIT c1a60 384 .cfa: sp 0 +
STACK CFI INIT c1de4 4b8 .cfa: sp 0 +
STACK CFI INIT c2948 394 .cfa: sp 0 +
STACK CFI INIT c3078 1df0 .cfa: sp 0 +
STACK CFI INIT c4e68 6b8 .cfa: sp 0 +
STACK CFI INIT c5520 8c .cfa: sp 0 +
STACK CFI INIT c55ac 12c .cfa: sp 0 +
STACK CFI INIT c56d8 12c .cfa: sp 0 +
STACK CFI INIT c5804 12c .cfa: sp 0 +
STACK CFI INIT c5930 12c .cfa: sp 0 +
STACK CFI INIT c5a5c 12c .cfa: sp 0 +
STACK CFI INIT c5b88 12c .cfa: sp 0 +
STACK CFI INIT c5cb4 12c .cfa: sp 0 +
STACK CFI INIT c5de0 12c .cfa: sp 0 +
STACK CFI INIT c5f0c 12c .cfa: sp 0 +
STACK CFI INIT c6038 12c .cfa: sp 0 +
STACK CFI INIT c6164 12c .cfa: sp 0 +
STACK CFI INIT c6290 12c .cfa: sp 0 +
STACK CFI INIT c63bc 12c .cfa: sp 0 +
STACK CFI INIT c64e8 e4 .cfa: sp 0 +
STACK CFI INIT c65cc 12c .cfa: sp 0 +
STACK CFI INIT c66f8 e4 .cfa: sp 0 +
STACK CFI INIT c67dc 12c .cfa: sp 0 +
STACK CFI INIT c6908 e4 .cfa: sp 0 +
STACK CFI INIT c69ec 12c .cfa: sp 0 +
STACK CFI INIT c6b18 e4 .cfa: sp 0 +
STACK CFI INIT c6bfc 12c .cfa: sp 0 +
STACK CFI INIT c6d28 12c .cfa: sp 0 +
STACK CFI INIT c6e54 12c .cfa: sp 0 +
STACK CFI INIT c6f80 12c .cfa: sp 0 +
STACK CFI INIT c70ac 12c .cfa: sp 0 +
STACK CFI INIT c71d8 12c .cfa: sp 0 +
STACK CFI INIT c7304 650 .cfa: sp 0 +
STACK CFI INIT c7954 364 .cfa: sp 0 +
STACK CFI INIT c7cb8 144 .cfa: sp 0 +
STACK CFI INIT c7dfc 144 .cfa: sp 0 +
STACK CFI INIT c7f40 144 .cfa: sp 0 +
STACK CFI INIT c8084 144 .cfa: sp 0 +
STACK CFI INIT c81c8 144 .cfa: sp 0 +
STACK CFI INIT c830c 144 .cfa: sp 0 +
STACK CFI INIT c8450 144 .cfa: sp 0 +
STACK CFI INIT c8594 144 .cfa: sp 0 +
STACK CFI INIT c86d8 144 .cfa: sp 0 +
STACK CFI INIT c881c 144 .cfa: sp 0 +
STACK CFI INIT c8960 144 .cfa: sp 0 +
STACK CFI INIT c8aa4 144 .cfa: sp 0 +
STACK CFI INIT c8be8 144 .cfa: sp 0 +
STACK CFI INIT c8d2c 144 .cfa: sp 0 +
STACK CFI INIT c8e70 144 .cfa: sp 0 +
STACK CFI INIT c8fb4 144 .cfa: sp 0 +
STACK CFI INIT c90f8 144 .cfa: sp 0 +
STACK CFI INIT c923c 144 .cfa: sp 0 +
STACK CFI INIT c9380 144 .cfa: sp 0 +
STACK CFI INIT c94c4 144 .cfa: sp 0 +
STACK CFI INIT c9608 144 .cfa: sp 0 +
STACK CFI INIT c974c 144 .cfa: sp 0 +
STACK CFI INIT c9890 144 .cfa: sp 0 +
STACK CFI INIT c99d4 144 .cfa: sp 0 +
STACK CFI INIT c9b18 144 .cfa: sp 0 +
STACK CFI INIT c9c5c 144 .cfa: sp 0 +
STACK CFI INIT c9da0 144 .cfa: sp 0 +
STACK CFI INIT c9ee4 144 .cfa: sp 0 +
STACK CFI INIT ca028 144 .cfa: sp 0 +
STACK CFI INIT ca16c 144 .cfa: sp 0 +
STACK CFI INIT ca2b0 2d4 .cfa: sp 0 +
STACK CFI INIT ca684 84 .cfa: sp 0 +
STACK CFI INIT ca708 a8 .cfa: sp 0 +
STACK CFI INIT ca8d8 138 .cfa: sp 0 +
STACK CFI INIT caa10 6c .cfa: sp 0 +
STACK CFI INIT caa7c 150 .cfa: sp 0 +
STACK CFI INIT cabcc 78 .cfa: sp 0 +
STACK CFI INIT cac44 78 .cfa: sp 0 +
STACK CFI INIT cacec 98 .cfa: sp 0 +
STACK CFI INIT cad84 208 .cfa: sp 0 +
STACK CFI INIT cb238 d8 .cfa: sp 0 +
STACK CFI INIT cb374 c4 .cfa: sp 0 +
STACK CFI INIT cb438 44 .cfa: sp 0 +
STACK CFI INIT cb4a8 1d8 .cfa: sp 0 +
STACK CFI INIT cb680 1fc .cfa: sp 0 +
STACK CFI INIT cb87c d8 .cfa: sp 0 +
STACK CFI INIT cb954 c4 .cfa: sp 0 +
STACK CFI INIT cba18 44 .cfa: sp 0 +
STACK CFI INIT cba88 218 .cfa: sp 0 +
STACK CFI INIT cbca0 234 .cfa: sp 0 +
STACK CFI INIT cc018 ac .cfa: sp 0 +
STACK CFI INIT cc0c4 d4 .cfa: sp 0 +
STACK CFI INIT cc198 a4 .cfa: sp 0 +
STACK CFI INIT cc23c d4 .cfa: sp 0 +
STACK CFI INIT cc69c a4 .cfa: sp 0 +
STACK CFI INIT cc740 d4 .cfa: sp 0 +
STACK CFI INIT cc814 a4 .cfa: sp 0 +
STACK CFI INIT cc8b8 d4 .cfa: sp 0 +
STACK CFI INIT ccb74 e8 .cfa: sp 0 +
STACK CFI INIT ccc5c d4 .cfa: sp 0 +
STACK CFI INIT cd0ec d8 .cfa: sp 0 +
STACK CFI INIT cd1c4 c4 .cfa: sp 0 +
STACK CFI INIT cd8e4 70 .cfa: sp 0 +
STACK CFI INIT cd954 b4 .cfa: sp 0 +
STACK CFI INIT cda08 78 .cfa: sp 0 +
STACK CFI INIT cda80 c0 .cfa: sp 0 +
STACK CFI INIT cdbdc ac .cfa: sp 0 +
STACK CFI INIT cdc88 d8 .cfa: sp 0 +
STACK CFI INIT cdd8c 2c4 .cfa: sp 0 +
STACK CFI INIT ce050 2b4 .cfa: sp 0 +
STACK CFI INIT ce304 e0 .cfa: sp 0 +
STACK CFI INIT ce3e4 c4 .cfa: sp 0 +
STACK CFI INIT ce4b4 f8 .cfa: sp 0 +
STACK CFI INIT ce5ac 78 .cfa: sp 0 +
STACK CFI INIT d1ba4 60 .cfa: sp 0 +
STACK CFI INIT d1c04 2d4 .cfa: sp 0 +
STACK CFI INIT d1ed8 70 .cfa: sp 0 +
STACK CFI INIT d1f74 28 .cfa: sp 0 +
STACK CFI INIT d1f9c 64 .cfa: sp 0 +
STACK CFI INIT d2000 20c .cfa: sp 0 +
STACK CFI INIT d220c 74 .cfa: sp 0 +
STACK CFI INIT d28f0 80 .cfa: sp 0 +
STACK CFI INIT d3384 80 .cfa: sp 0 +
STACK CFI INIT d3c34 a0 .cfa: sp 0 +
STACK CFI INIT d3d40 a0 .cfa: sp 0 +
STACK CFI INIT d3e4c a0 .cfa: sp 0 +
STACK CFI INIT d3f58 a0 .cfa: sp 0 +
STACK CFI INIT d3ff8 c8 .cfa: sp 0 +
STACK CFI INIT d40c0 9c .cfa: sp 0 +
STACK CFI INIT d415c 24 .cfa: sp 0 +
STACK CFI INIT d4180 5e8 .cfa: sp 0 +
STACK CFI INIT d4768 310 .cfa: sp 0 +
STACK CFI INIT d4a78 16a8 .cfa: sp 0 +
STACK CFI INIT d6120 32c .cfa: sp 0 +
STACK CFI INIT d66c4 a78 .cfa: sp 0 +
STACK CFI INIT d713c 2e0 .cfa: sp 0 +
STACK CFI INIT d741c 68 .cfa: sp 0 +
STACK CFI INIT d7484 2e0 .cfa: sp 0 +
STACK CFI INIT d7764 2bc .cfa: sp 0 +
STACK CFI INIT d7a20 44 .cfa: sp 0 +
STACK CFI INIT d7a64 2bc .cfa: sp 0 +
STACK CFI INIT d8250 c8 .cfa: sp 0 +
STACK CFI INIT d8318 9c .cfa: sp 0 +
STACK CFI INIT d83b4 ac .cfa: sp 0 +
STACK CFI INIT d8460 3e8 .cfa: sp 0 +
STACK CFI INIT d8d74 3e8 .cfa: sp 0 +
STACK CFI INIT d915c 7b4 .cfa: sp 0 +
STACK CFI INIT d9e58 7b4 .cfa: sp 0 +
STACK CFI INIT da798 c0 .cfa: sp 0 +
STACK CFI INIT db284 28 .cfa: sp 0 +
STACK CFI INIT db9d8 70 .cfa: sp 0 +
STACK CFI INIT dba48 4c .cfa: sp 0 +
STACK CFI INIT dbb48 128 .cfa: sp 0 +
STACK CFI INIT dbc70 128 .cfa: sp 0 +
STACK CFI INIT dbd98 158 .cfa: sp 0 +
STACK CFI INIT dbef0 154 .cfa: sp 0 +
STACK CFI INIT dc044 148 .cfa: sp 0 +
STACK CFI INIT dc18c 148 .cfa: sp 0 +
STACK CFI INIT dc2d4 118 .cfa: sp 0 +
STACK CFI INIT dc3ec 118 .cfa: sp 0 +
STACK CFI INIT dc504 124 .cfa: sp 0 +
STACK CFI INIT dc628 230 .cfa: sp 0 +
STACK CFI INIT dc858 230 .cfa: sp 0 +
STACK CFI INIT dca88 114 .cfa: sp 0 +
STACK CFI INIT dcb9c 5c .cfa: sp 0 +
STACK CFI INIT dcea4 1a8 .cfa: sp 0 +
STACK CFI INIT dd04c fc .cfa: sp 0 +
STACK CFI INIT dd148 130 .cfa: sp 0 +
STACK CFI INIT dd278 220 .cfa: sp 0 +
STACK CFI INIT dd498 98 .cfa: sp 0 +
STACK CFI INIT dd540 278 .cfa: sp 0 +
STACK CFI INIT dd7b8 128 .cfa: sp 0 +
STACK CFI INIT dd9e4 23c .cfa: sp 0 +
STACK CFI INIT ddd08 3c4 .cfa: sp 0 +
STACK CFI INIT de1e4 230 .cfa: sp 0 +
STACK CFI INIT de414 e0 .cfa: sp 0 +
STACK CFI INIT de4f4 5c .cfa: sp 0 +
STACK CFI INIT de550 68 .cfa: sp 0 +
STACK CFI INIT de5b8 70 .cfa: sp 0 +
STACK CFI INIT de784 f0 .cfa: sp 0 +
STACK CFI INIT de8d0 ec .cfa: sp 0 +
STACK CFI INIT dea80 cc .cfa: sp 0 +
STACK CFI INIT deb4c ec .cfa: sp 0 +
STACK CFI INIT dec38 a4 .cfa: sp 0 +
STACK CFI INIT decdc ec .cfa: sp 0 +
STACK CFI INIT df0bc 48c .cfa: sp 0 +
STACK CFI INIT dfc80 168 .cfa: sp 0 +
STACK CFI INIT dfde8 78 .cfa: sp 0 +
STACK CFI INIT dfe60 12c .cfa: sp 0 +
STACK CFI INIT dff8c 17c .cfa: sp 0 +
STACK CFI INIT e0108 104 .cfa: sp 0 +
STACK CFI INIT e020c 544 .cfa: sp 0 +
STACK CFI INIT e0a04 84 .cfa: sp 0 +
STACK CFI INIT e0bd0 304 .cfa: sp 0 +
STACK CFI INIT e0ed4 7c .cfa: sp 0 +
STACK CFI INIT e101c 160 .cfa: sp 0 +
STACK CFI INIT e117c c4 .cfa: sp 0 +
STACK CFI INIT e1240 100 .cfa: sp 0 +
STACK CFI INIT e1388 cc .cfa: sp 0 +
STACK CFI INIT e15c4 40 .cfa: sp 0 +
STACK CFI INIT e1604 118 .cfa: sp 0 +
STACK CFI INIT e171c 288 .cfa: sp 0 +
STACK CFI INIT e19a4 40 .cfa: sp 0 +
STACK CFI INIT e19e4 e8 .cfa: sp 0 +
STACK CFI INIT e1acc c0 .cfa: sp 0 +
STACK CFI INIT e1c30 14c .cfa: sp 0 +
STACK CFI INIT e1d7c a4 .cfa: sp 0 +
STACK CFI INIT e1ea8 1e4 .cfa: sp 0 +
STACK CFI INIT e2154 100 .cfa: sp 0 +
STACK CFI INIT e2530 104 .cfa: sp 0 +
STACK CFI INIT e2a10 37c .cfa: sp 0 +
STACK CFI INIT e3054 1ac .cfa: sp 0 +
STACK CFI INIT e3200 d0 .cfa: sp 0 +
STACK CFI INIT e32d0 554 .cfa: sp 0 +
STACK CFI INIT e3984 230 .cfa: sp 0 +
STACK CFI INIT e3bb4 230 .cfa: sp 0 +
STACK CFI INIT e5cc0 30 .cfa: sp 0 +
STACK CFI INIT e5cf0 30 .cfa: sp 0 +
STACK CFI INIT e5d50 30 .cfa: sp 0 +
STACK CFI INIT e5d80 30 .cfa: sp 0 +
STACK CFI INIT e5e18 50 .cfa: sp 0 +
STACK CFI INIT e5e68 9c .cfa: sp 0 +
STACK CFI INIT e5f04 24 .cfa: sp 0 +
STACK CFI INIT e5f98 68 .cfa: sp 0 +
STACK CFI INIT e60d0 ec .cfa: sp 0 +
STACK CFI INIT e61bc 5c .cfa: sp 0 +
STACK CFI INIT e6268 e4 .cfa: sp 0 +
STACK CFI INIT e6378 80 .cfa: sp 0 +
STACK CFI INIT e63f8 120 .cfa: sp 0 +
STACK CFI INIT e6518 74 .cfa: sp 0 +
STACK CFI INIT e658c 30 .cfa: sp 0 +
STACK CFI INIT e65bc 28 .cfa: sp 0 +
STACK CFI INIT e6630 188 .cfa: sp 0 +
STACK CFI INIT e67e4 104 .cfa: sp 0 +
STACK CFI INIT e68fc 40 .cfa: sp 0 +
STACK CFI INIT e6988 30 .cfa: sp 0 +
STACK CFI INIT e69cc 14c .cfa: sp 0 +
STACK CFI INIT e6bd4 118 .cfa: sp 0 +
STACK CFI INIT e6d28 6c .cfa: sp 0 +
